Warning[w6]: Type conflict for external/entry "osal_pwrmgr_powerconserve", in module OSAL against external/entry in module OSAL_PwrMgr; prototyped function vs K&R function
  /* In module OSAL: */
  /* K&R Function, args 0, attr 0 */
  int (__xdata_reentrant osal_pwrmgr_powerconserve)();
  /* In module OSAL_PwrMgr: */
  /* Function, args 0, attr 0 */
  void (__xdata_reentrant osal_pwrmgr_powerconserve)(void);
################################################################################
#                                                                              #
#      IAR Universal Linker V5.7.0.39                                          #
#                                                                              #
#           Link time     =  09/Dec/2022  12:53:12                             #
#           Target CPU    =  x51                                               #
#           List file     =  "C:\Users\MON\Desktop\IAR_TPMS\IAR Systems\SDK\BL #
#                            E-CC254x-1.4.0\Projects\ble\BAT_MON\CC2541DB\CC25 #
#                            41\List\BAT_MON.map"                              #
#           Output file 1 =  "C:\Users\MON\Desktop\IAR_TPMS\IAR Systems\SDK\BL #
#                            E-CC254x-1.4.0\Projects\ble\BAT_MON\BAT_MON.hex"  #
#                            Format: intel-extended                            #
#           Output file 2 =  "C:\Users\MON\Desktop\IAR_TPMS\IAR Systems\SDK\BL #
#                            E-CC254x-1.4.0\Projects\ble\BAT_MON\CC2541DB\CC25 #
#                            41\Exe\BAT_MON.d51"                               #
#                            Format: debug                                     #
#                            UBROF version 10.0.6                              #
#                            Using library modules for C-SPY (-rt)             #
#           Command line  =  "-IC:\Users\MON\Desktop\IAR_TPMS\IAR Systems\Embe #
#                            dded Workbench 6.5\8051\CONFIG\"                  #
#                            -D_NR_OF_BANKS=0x07 -D_CODEBANK_END=0xFFFF        #
#                            -D_CODEBANK_START=0x8000 -D?CBANK_MASK=0xFF       #
#                            -D?CBANK=0x9F                                     #
#                            "C:\Users\MON\Desktop\IAR_TPMS\IAR Systems\SDK\BL #
#                            E-CC254x-1.4.0\Projects\ble\BAT_MON\CC2541DB\CC25 #
#                            41\Obj\BAT_MON.r51"                               #
#                            "C:\Users\MON\Desktop\IAR_TPMS\IAR Systems\SDK\BL #
#                            E-CC254x-1.4.0\Projects\ble\BAT_MON\CC2541DB\CC25 #
#                            41\Obj\BAT_MON_Main.r51"                          #
#                            "C:\Users\MON\Desktop\IAR_TPMS\IAR Systems\SDK\BL #
#                            E-CC254x-1.4.0\Projects\ble\Libraries\CC2541DB\bi #
#                            n\CC2541_BLE_bcast.lib"                           #
#                            "C:\Users\MON\Desktop\IAR_TPMS\IAR Systems\SDK\BL #
#                            E-CC254x-1.4.0\Projects\ble\Libraries\Common\bin\ #
#                            CC254x_BLE_HCI_TL_None.lib"                       #
#                            "C:\Users\MON\Desktop\IAR_TPMS\IAR Systems\SDK\BL #
#                            E-CC254x-1.4.0\Projects\ble\BAT_MON\CC2541DB\CC25 #
#                            41\Obj\OSAL.r51"                                  #
#                            "C:\Users\MON\Desktop\IAR_TPMS\IAR Systems\SDK\BL #
#                            E-CC254x-1.4.0\Projects\ble\BAT_MON\CC2541DB\CC25 #
#                            41\Obj\OSAL_BAT_MON.r51"                          #
#                            "C:\Users\MON\Desktop\IAR_TPMS\IAR Systems\SDK\BL #
#                            E-CC254x-1.4.0\Projects\ble\BAT_MON\CC2541DB\CC25 #
#                            41\Obj\OSAL_ClockBLE.r51"                         #
#                            "C:\Users\MON\Desktop\IAR_TPMS\IAR Systems\SDK\BL #
#                            E-CC254x-1.4.0\Projects\ble\BAT_MON\CC2541DB\CC25 #
#                            41\Obj\OSAL_Memory.r51"                           #
#                            "C:\Users\MON\Desktop\IAR_TPMS\IAR Systems\SDK\BL #
#                            E-CC254x-1.4.0\Projects\ble\BAT_MON\CC2541DB\CC25 #
#                            41\Obj\OSAL_PwrMgr.r51"                           #
#                            "C:\Users\MON\Desktop\IAR_TPMS\IAR Systems\SDK\BL #
#                            E-CC254x-1.4.0\Projects\ble\BAT_MON\CC2541DB\CC25 #
#                            41\Obj\OSAL_Timers.r51"                           #
#                            "C:\Users\MON\Desktop\IAR_TPMS\IAR Systems\SDK\BL #
#                            E-CC254x-1.4.0\Projects\ble\BAT_MON\CC2541DB\CC25 #
#                            41\Obj\OnBoard.r51"                               #
#                            "C:\Users\MON\Desktop\IAR_TPMS\IAR Systems\SDK\BL #
#                            E-CC254x-1.4.0\Projects\ble\BAT_MON\CC2541DB\CC25 #
#                            41\Obj\broadcaster.r51"                           #
#                            "C:\Users\MON\Desktop\IAR_TPMS\IAR Systems\SDK\BL #
#                            E-CC254x-1.4.0\Projects\ble\BAT_MON\CC2541DB\CC25 #
#                            41\Obj\gap.r51"                                   #
#                            "C:\Users\MON\Desktop\IAR_TPMS\IAR Systems\SDK\BL #
#                            E-CC254x-1.4.0\Projects\ble\BAT_MON\CC2541DB\CC25 #
#                            41\Obj\hal_adc.r51"                               #
#                            "C:\Users\MON\Desktop\IAR_TPMS\IAR Systems\SDK\BL #
#                            E-CC254x-1.4.0\Projects\ble\BAT_MON\CC2541DB\CC25 #
#                            41\Obj\hal_aes.r51"                               #
#                            "C:\Users\MON\Desktop\IAR_TPMS\IAR Systems\SDK\BL #
#                            E-CC254x-1.4.0\Projects\ble\BAT_MON\CC2541DB\CC25 #
#                            41\Obj\hal_dma.r51"                               #
#                            "C:\Users\MON\Desktop\IAR_TPMS\IAR Systems\SDK\BL #
#                            E-CC254x-1.4.0\Projects\ble\BAT_MON\CC2541DB\CC25 #
#                            41\Obj\hal_drivers.r51"                           #
#                            "C:\Users\MON\Desktop\IAR_TPMS\IAR Systems\SDK\BL #
#                            E-CC254x-1.4.0\Projects\ble\BAT_MON\CC2541DB\CC25 #
#                            41\Obj\hal_flash.r51"                             #
#                            "C:\Users\MON\Desktop\IAR_TPMS\IAR Systems\SDK\BL #
#                            E-CC254x-1.4.0\Projects\ble\BAT_MON\CC2541DB\CC25 #
#                            41\Obj\hal_key.r51"                               #
#                            "C:\Users\MON\Desktop\IAR_TPMS\IAR Systems\SDK\BL #
#                            E-CC254x-1.4.0\Projects\ble\BAT_MON\CC2541DB\CC25 #
#                            41\Obj\hal_lcd.r51"                               #
#                            "C:\Users\MON\Desktop\IAR_TPMS\IAR Systems\SDK\BL #
#                            E-CC254x-1.4.0\Projects\ble\BAT_MON\CC2541DB\CC25 #
#                            41\Obj\hal_led.r51"                               #
#                            "C:\Users\MON\Desktop\IAR_TPMS\IAR Systems\SDK\BL #
#                            E-CC254x-1.4.0\Projects\ble\BAT_MON\CC2541DB\CC25 #
#                            41\Obj\hal_sleep.r51"                             #
#                            "C:\Users\MON\Desktop\IAR_TPMS\IAR Systems\SDK\BL #
#                            E-CC254x-1.4.0\Projects\ble\BAT_MON\CC2541DB\CC25 #
#                            41\Obj\hal_startup.r51"                           #
#                            "C:\Users\MON\Desktop\IAR_TPMS\IAR Systems\SDK\BL #
#                            E-CC254x-1.4.0\Projects\ble\BAT_MON\CC2541DB\CC25 #
#                            41\Obj\hal_timer.r51"                             #
#                            "C:\Users\MON\Desktop\IAR_TPMS\IAR Systems\SDK\BL #
#                            E-CC254x-1.4.0\Projects\ble\BAT_MON\CC2541DB\CC25 #
#                            41\Obj\hal_uart.r51"                              #
#                            "C:\Users\MON\Desktop\IAR_TPMS\IAR Systems\SDK\BL #
#                            E-CC254x-1.4.0\Projects\ble\BAT_MON\CC2541DB\CC25 #
#                            41\Obj\npi.r51"                                   #
#                            "C:\Users\MON\Desktop\IAR_TPMS\IAR Systems\SDK\BL #
#                            E-CC254x-1.4.0\Projects\ble\BAT_MON\CC2541DB\CC25 #
#                            41\Obj\osal_bufmgr.r51"                           #
#                            "C:\Users\MON\Desktop\IAR_TPMS\IAR Systems\SDK\BL #
#                            E-CC254x-1.4.0\Projects\ble\BAT_MON\CC2541DB\CC25 #
#                            41\Obj\osal_cbtimer.r51"                          #
#                            "C:\Users\MON\Desktop\IAR_TPMS\IAR Systems\SDK\BL #
#                            E-CC254x-1.4.0\Projects\ble\BAT_MON\CC2541DB\CC25 #
#                            41\Obj\osal_snv.r51"                              #
#                            -o                                                #
#                            "C:\Users\MON\Desktop\IAR_TPMS\IAR Systems\SDK\BL #
#                            E-CC254x-1.4.0\Projects\ble\BAT_MON\CC2541DB\CC25 #
#                            41\Exe\BAT_MON.d51"                               #
#                            -l                                                #
#                            "C:\Users\MON\Desktop\IAR_TPMS\IAR Systems\SDK\BL #
#                            E-CC254x-1.4.0\Projects\ble\BAT_MON\CC2541DB\CC25 #
#                            41\List\BAT_MON.map"                              #
#                            -xmsn -f                                          #
#                            "C:\Users\MON\Desktop\IAR_TPMS\IAR Systems\SDK\BL #
#                            E-CC254x-1.4.0\Projects\ble\BAT_MON\CC2541DB\..\. #
#                            .\common\cc2540\ti_51ew_cc2540b.xcl"              #
#                            (-D_IDATA_END=0xFF -D_PDATA_START=0x1E00          #
#                            -D_PDATA_END=0x1EFF -D_IXDATA_START=0x0001        #
#                            -D_IXDATA_END=0x1EFF                              #
#                            -D_XDATA_START=_IXDATA_START                      #
#                            -D_XDATA_END=_IXDATA_END -D_CODE_START=0x0000     #
#                            -D_CODE_END=0x7FFF -D_FIRST_BANK_ADDR=0x10000     #
#                            -D_NEAR_CODE_END=_CODE_END -D?REGISTER_BANK=0     #
#                            -D_REGISTER_BANK_START=0 -D?PBANK_NUMBER=0x1E     #
#                            -D_BREG_START=0x00 -D?VB=0x20                     #
#                            -D_FAR_DATA_NR_OF_BANKS=0x0E                      #
#                            -D_FAR_DATA_START=0x010001                        #
#                            -D_FAR_DATA_END=0xFFFFFF                          #
#                            -D_FAR_CODE_START=_CODE_START                     #
#                            -D_FAR_CODE_END=_CODE_END                         #
#                            -Z(BIT)BREG=_BREG_START -Z(BIT)BIT_N=0-7F         #
#                            -Z(DATA)REGISTERS+8=_REGISTER_BANK_START          #
#                            -Z(DATA)BDATA_Z,BDATA_N,BDATA_I=20-2F             #
#                            -Z(DATA)VREG+_NR_OF_VIRTUAL_REGISTERS=08-7F       #
#                            -Z(DATA)PSP,XSP=08-7F -Z(DATA)DOVERLAY=08-7F      #
#                            -Z(DATA)DATA_I,DATA_Z,DATA_N=08-7F                #
#                            -U(IDATA)0-7F=(DATA)0-7F                          #
#                            -Z(IDATA)IDATA_I,IDATA_Z,IDATA_N=08-_IDATA_END    #
#                            -Z(IDATA)ISTACK+_IDATA_STACK_SIZE#08-_IDATA_END   #
#                            -Z(IDATA)IOVERLAY=08-FF                           #
#                            -Z(CODE)INTVEC=_CODE_START                        #
#                            -Z(CODE)CSTART=_CODE_START-_CODE_END              #
#                            -Z(CODE)BIT_ID,BDATA_ID,DATA_ID,IDATA_ID,IXDATA_I #
#                            D,PDATA_ID,XDATA_ID=_CODE_START-_CODE_END         #
#                            -Z(CODE)HUGE_ID=_FAR_CODE_START-_FAR_CODE_END     #
#                            -D_SLEEP_CODE_SPACE_START=(_CODE_END-7)           #
#                            -D_SLEEP_CODE_SPACE_END=(_CODE_END)               #
#                            -Z(CODE)SLEEP_CODE=_SLEEP_CODE_SPACE_START-_SLEEP #
#                            _CODE_SPACE_END                                   #
#                            -Z(CODE)BANK_RELAYS,RCODE,DIFUNCT,CODE_N,NEAR_COD #
#                            E=_CODE_START-_CODE_END                           #
#                            -P(CODE)CODE_C=_CODE_START-_CODE_END              #
#                            -P(CONST)XDATA_ROM_C=0x8000-0xFFFF                #
#                            -P(CODE)XDATA_ROM_C_FLASH=0x18000-0x1FFFF         #
#                            -QXDATA_ROM_C=XDATA_ROM_C_FLASH                   #
#                            -P(CODE)BANKED_CODE=_CODE_START-_CODE_END,[(_CODE #
#                            BANK_START+_FIRST_BANK_ADDR)-(_CODEBANK_END+_FIRS #
#                            T_BANK_ADDR)]*_NR_OF_BANKS+10000                  #
#                            -P(CODE)FAR_CODE_C,FAR_CODE_N,FAR_CODE=[_FAR_CODE #
#                            _START-_FAR_CODE_END]/10000                       #
#                            -P(CODE)HUGE_CODE_C=_FAR_CODE_START-_FAR_CODE_END #
#                            -Z(CODE)CHECKSUM#_CODE_END                        #
#                            -Z(XDATA)EXT_STACK+_EXTENDED_STACK_SIZE=_EXTENDED #
#                            _STACK_START                                      #
#                            -Z(XDATA)PSTACK+_PDATA_STACK_SIZE=_PDATA_START-_P #
#                            DATA_END                                          #
#                            -Z(XDATA)XSTACK+_XDATA_STACK_SIZE=_XDATA_START-_X #
#                            DATA_END                                          #
#                            -Z(XDATA)PDATA_Z,PDATA_I=_PDATA_START-_PDATA_END  #
#                            -P(XDATA)PDATA_N=_PDATA_START-_PDATA_END          #
#                            -Z(XDATA)IXDATA_Z,IXDATA_I=_IXDATA_START-_IXDATA_ #
#                            END                                               #
#                            -P(XDATA)IXDATA_N=_IXDATA_START-_IXDATA_END       #
#                            -Z(XDATA)XDATA_Z,XDATA_I=_XDATA_START-_XDATA_END  #
#                            -P(XDATA)XDATA_N=_XDATA_START-_XDATA_END          #
#                            -Z(XDATA)XDATA_HEAP+_XDATA_HEAP_SIZE=_XDATA_START #
#                            -_XDATA_END                                       #
#                            -Z(XDATA)FAR_Z=[_FAR_DATA_START-_FAR_DATA_END]/10 #
#                            000                                               #
#                            -Z(XDATA)FAR_I=[_FAR_DATA_START-_FAR_DATA_END]/10 #
#                            000                                               #
#                            -Z(CODE)FAR_ID=[_FAR_CODE_START-_FAR_CODE_END]/10 #
#                            000                                               #
#                            -Z(XDATA)FAR_HEAP+_FAR_HEAP_SIZE=[_FAR_DATA_START #
#                            -_FAR_DATA_END]/10000                             #
#                            -P(XDATA)FAR_N=[_FAR_DATA_START-_FAR_DATA_END]*_F #
#                            AR_DATA_NR_OF_BANKS+10000                         #
#                            -P(CONST)FAR_ROM_C=[_FAR_DATA_START-_FAR_DATA_END #
#                            ]*_FAR_DATA_NR_OF_BANKS+10000                     #
#                            -Z(XDATA)HUGE_Z,HUGE_I=_FAR_DATA_START-_FAR_DATA_ #
#                            END                                               #
#                            -P(XDATA)HUGE_N=_FAR_DATA_START-_FAR_DATA_END     #
#                            -Z(XDATA)HUGE_HEAP+_HUGE_HEAP_SIZE=_FAR_DATA_STAR #
#                            T-_FAR_DATA_END                                   #
#                            -Z(CONST)HUGE_ROM_C=_FAR_DATA_START-_FAR_DATA_END #
#                            -cx51 -D_BLENV_ADDRESS_SPACE_START=0x7E800        #
#                            -D_BLENV_ADDRESS_SPACE_END=0x7F7FF                #
#                            -Z(CODE)BLENV_ADDRESS_SPACE=_BLENV_ADDRESS_SPACE_ #
#                            START-_BLENV_ADDRESS_SPACE_END                    #
#                            -D_BANK0_START=0x00000 -D_BANK0_END=0x07FFF       #
#                            -D_BANK1_START=0x18000 -D_BANK1_END=0x1FFFF       #
#                            -D_BANK2_START=0x28000 -D_BANK2_END=0x2FFFF       #
#                            -D_BANK3_START=0x38000 -D_BANK3_END=0x3FFFF       #
#                            -D_BANK4_START=0x48000 -D_BANK4_END=0x4FFFF       #
#                            -D_BANK5_START=0x58000 -D_BANK5_END=0x5FFFF       #
#                            -D_BANK6_START=0x68000 -D_BANK6_END=0x6FFFF       #
#                            -D_BANK7_START=0x78000                            #
#                            -D_BANK7_END=(_BLENV_ADDRESS_SPACE_START-1)       #
#                            -P(CODE)BANK0=_BANK0_START-_BANK0_END             #
#                            -P(CODE)BANK1=_BANK1_START-_BANK1_END             #
#                            -P(CODE)BANK2=_BANK2_START-_BANK2_END             #
#                            -P(CODE)BANK3=_BANK3_START-_BANK3_END             #
#                            -P(CODE)BANK4=_BANK4_START-_BANK4_END             #
#                            -P(CODE)BANK5=_BANK5_START-_BANK5_END             #
#                            -P(CODE)BANK6=_BANK6_START-_BANK6_END             #
#                            -P(CODE)BANK7=_BANK7_START-_BANK7_END             #
#                            -M(CODE)[(_CODEBANK_START+_FIRST_BANK_ADDR)-(_COD #
#                            EBANK_END+_FIRST_BANK_ADDR)]*_NR_OF_BANKS+0x10000 #
#                            =0x8000                                           #
#                            -ww69=i                                           #
#                            -D_FLASH_LOCK_BITS_START=((_NR_OF_BANKS*_FIRST_BA #
#                            NK_ADDR)+0xFFF0)                                  #
#                            -D_FLASH_LOCK_BITS_END=((_NR_OF_BANKS*_FIRST_BANK #
#                            _ADDR)+0xFFFF)                                    #
#                            -Z(CODE)FLASH_LOCK_BITS=_FLASH_LOCK_BITS_START-_F #
#                            LASH_LOCK_BITS_END                                #
#                            -U(CODE)0x0000=(CODE)_FLASH_LOCK_BITS_START-_FLAS #
#                            H_LOCK_BITS_END)                                  #
#                            -D_NR_OF_VIRTUAL_REGISTERS=8 -D?PBANK=0x93        #
#                            -e?BCALL_FF=?BCALL -e?BRET_FF=?BRET               #
#                            -e?BDISPATCH_FF=?BDISPATCH                        #
#                            -e_large_write=_formatted_write                   #
#                            -e_large_read=_formatted_read -rt                 #
#                            "-Ointel-extended=C:\Users\MON\Desktop\IAR_TPMS\I #
#                            AR Systems\SDK\BLE-CC254x-1.4.0\Projects\ble\BAT_ #
#                            MON\BAT_MON.hex"                                  #
#                            -s __program_start                                #
#                            "C:\Users\MON\Desktop\IAR_TPMS\IAR Systems\Embedd #
#                            ed Workbench 6.5\8051\LIB\CLIB\cl-pli-blxd-1e16x0 #
#                            1.r51"                                            #
#                            -D_IDATA_STACK_SIZE=0xC0 -D?ESP=0 -D?ESP_MASK=0   #
#                            -D_EXTENDED_STACK_START=0                         #
#                            -D_EXTENDED_STACK_SIZE=0                          #
#                            -D_PDATA_STACK_SIZE=0x00                          #
#                            -D_XDATA_STACK_SIZE=0x280                         #
#                            -D_XDATA_HEAP_SIZE=0xFF -D_FAR_HEAP_SIZE=0xFFF    #
#                            -D_HUGE_HEAP_SIZE=0xFFF                           #
#                            -D_FAR22_HEAP_SIZE=0xFFF                          #
#                                                                              #
#                           Copyright (C) 1987-2013 IAR Systems AB.            #
################################################################################





                ****************************************
                *                                      *
                *           CROSS REFERENCE            *
                *                                      *
                ****************************************

       Program entry at : CODE      0000011A  Relocatable, from module : CSTARTUP




                ****************************************
                *                                      *
                *            RUNTIME MODEL             *
                *                                      *
                ****************************************

  __SystemLibrary          = CLib
  __calling_convention     = xdata_reentrant
  __code_model             = banked
  __core                   = plain
  __data_model             = large
  __dptr_size              = 16
  __extended_stack         = disabled
  __location_for_constants = data
  __number_of_dptrs        = 1
  __rt_version             = 1

                ****************************************
                *                                      *
                *    AUTOMATIC SYMBOL REDIRECTIONS     *
                *                                      *
                ****************************************

                  There are no automatic symbol redirections.



                ****************************************
                *                                      *
                *              MODULE MAP              *
                *                                      *
                ****************************************


  DEFINED ABSOLUTE ENTRIES
    *************************************************************************

  DEFINED ABSOLUTE ENTRIES
  PROGRAM MODULE, NAME : ?ABS_ENTRY_MOD

Absolute parts
           ENTRY                   ADDRESS         REF BY
           =====                   =======         ======
           _FAR22_HEAP_SIZE        00000FFF 
           _HUGE_HEAP_SIZE         00000FFF 
           _FAR_HEAP_SIZE          00000FFF 
           _XDATA_HEAP_SIZE        000000FF 
           _XDATA_STACK_SIZE       00000280 
           _PDATA_STACK_SIZE       00000000 
           _EXTENDED_STACK_SIZE    00000000 
           _EXTENDED_STACK_START   00000000 
           ?ESP_MASK               00000000 
           ?ESP                    00000000 
           _IDATA_STACK_SIZE       000000C0 
           ?PBANK                  00000093 
           _NR_OF_VIRTUAL_REGISTERS
                                   00000008 
           _FLASH_LOCK_BITS_END    0003FFFF 
           _FLASH_LOCK_BITS_START
                                   0003FFF0 
           _BANK7_END              0003E7FF 
           _BANK7_START            00038000 
           _BANK6_END              00037FFF 
           _BANK6_START            00030000 
           _BANK5_END              0002FFFF 
           _BANK5_START            00028000 
           _BANK4_END              00027FFF 
           _BANK4_START            00020000 
           _BANK3_END              0001FFFF 
           _BANK3_START            00018000 
           _BANK2_END              00017FFF 
           _BANK2_START            00010000 
           _BANK1_END              0000FFFF 
           _BANK1_START            00008000 
           _BANK0_END              00007FFF 
           _BANK0_START            00000000 
           _BLENV_ADDRESS_SPACE_END
                                   0003F7FF 
           _BLENV_ADDRESS_SPACE_START
                                   0003E800 
           _SLEEP_CODE_SPACE_END   00007FFF 
           _SLEEP_CODE_SPACE_START
                                   00007FF8 
           _FAR_CODE_END           00007FFF 
           _FAR_CODE_START         00000000 
           _FAR_DATA_END           00FFFFFF 
           _FAR_DATA_START         00010001 
           _FAR_DATA_NR_OF_BANKS   0000000E 
           ?VB                     00000020        ?BANKED_ENTER_XDATA (?BANKED_ENTER_XDATA)
                                                   ?BANKED_LEAVE_XDATA (?BANKED_LEAVE_XDATA)
                                                   ?FUNC_ENTER_XDATA (?FUNC_ENTER_XDATA)
                                                   ?FUNC_LEAVE_XDATA (?FUNC_LEAVE_XDATA)
                                                   ?INTERRUPT_ENTER_XSP (?INTERRUPT_ENTER_XSP)
                                                   ?INTERRUPT_LEAVE_XSP (?INTERRUPT_LEAVE_XSP)
           _BREG_START             00000000 
           ?PBANK_NUMBER           0000001E 
           _REGISTER_BANK_START    00000000 
           ?REGISTER_BANK          00000000        Segment part 6 (CSTARTUP)
           _NEAR_CODE_END          00007FFF 
           _FIRST_BANK_ADDR        00010000 
           _CODE_END               00007FFF 
           _CODE_START             00000000 
           _XDATA_END              00001EFF 
           _XDATA_START            00000001 
           _IXDATA_END             00001EFF 
           _IXDATA_START           00000001 
           _PDATA_END              00001EFF 
           _PDATA_START            00001E00 
           _IDATA_END              000000FF 
           ?CBANK                  0000009F        ?RESET_CODE_BANK (CSTARTUP)
                                                   Segment part 0 (?BANKED_CODE_SUPPORT)
           ?CBANK_MASK             000000FF 
           _CODEBANK_START         00008000 
           _CODEBANK_END           0000FFFF 
           _NR_OF_BANKS            00000007 
    *************************************************************************

  FILE NAME : C:\Users\MON\Desktop\IAR_TPMS\IAR Systems\SDK\BLE-CC254x-1.4.0\Projects\ble\BAT_MON\CC2541DB\CC2541\Obj\BAT_MON.r51
  PROGRAM MODULE, NAME : BAT_MON

  SEGMENTS IN THE MODULE
  ======================
SFR_AN
  Relative segment, address: DATA 00000080 - 00000080 (0x1 bytes), align: 0
  Segment part 1. ROOT.       Intra module refs:   BAT_MON_Init
                                                   BAT_MON_ProcessEvent
                                                   HalKeyRead (hal_key)
                                                   LL_PowerOffReq (ll_sleep)
                                                   LL_PowerOnReq (ll_sleep)
           ENTRY                   ADDRESS         REF BY
           =====                   =======         ======
           _A_P0                   00000080 
           LOCAL                   ADDRESS         
           =====                   =======         
           P0                      00000080 
    -------------------------------------------------------------------------
SFR_AN
  Relative segment, address: DATA 000000B4 - 000000B4 (0x1 bytes), align: 0
  Segment part 2. ROOT.       Intra module refs:   AdcRead
                                                   HalAdcRead (hal_adc)
                                                   LL_ENC_GenerateTrueRandNum (ll_enc)
           ENTRY                   ADDRESS         REF BY
           =====                   =======         ======
           ADCCON1                 000000B4 
    -------------------------------------------------------------------------
SFR_AN
  Relative segment, address: DATA 000000B6 - 000000B6 (0x1 bytes), align: 0
  Segment part 3. ROOT.       Intra module refs:   AdcRead
                                                   HalAdcRead (hal_adc)
           ENTRY                   ADDRESS         REF BY
           =====                   =======         ======
           ADCCON3                 000000B6 
    -------------------------------------------------------------------------
SFR_AN
  Relative segment, address: DATA 000000BA - 000000BA (0x1 bytes), align: 0
  Segment part 4. ROOT.       Intra module refs:   AdcRead
                                                   HalAdcRead (hal_adc)
           ENTRY                   ADDRESS         REF BY
           =====                   =======         ======
           ADCL                    000000BA 
    -------------------------------------------------------------------------
SFR_AN
  Relative segment, address: DATA 000000BB - 000000BB (0x1 bytes), align: 0
  Segment part 5. ROOT.       Intra module refs:   AdcRead
                                                   HalAdcRead (hal_adc)
           ENTRY                   ADDRESS         REF BY
           =====                   =======         ======
           ADCH                    000000BB 
    -------------------------------------------------------------------------
SFR_AN
  Relative segment, address: DATA 000000F2 - 000000F2 (0x1 bytes), align: 0
  Segment part 6. ROOT.       Intra module refs:   AdcRead
                                                   HalAdcRead (hal_adc)
           ENTRY                   ADDRESS         REF BY
           =====                   =======         ======
           ADCCFG                  000000F2 
    -------------------------------------------------------------------------
SFR_AN
  Relative segment, address: DATA 000000F3 - 000000F3 (0x1 bytes), align: 0
  Segment part 7. ROOT.       Intra module refs:   BAT_MON_Init
           ENTRY                   ADDRESS         REF BY
           =====                   =======         ======
           P0SEL                   000000F3 
    -------------------------------------------------------------------------
SFR_AN
  Relative segment, address: DATA 000000FD - 000000FD (0x1 bytes), align: 0
  Segment part 8. ROOT.       Intra module refs:   BAT_MON_Init
           ENTRY                   ADDRESS         REF BY
           =====                   =======         ======
           P0DIR                   000000FD 
    -------------------------------------------------------------------------
XDATA_Z
  Relative segment, address: XDATA 00000281 - 00000281 (0x1 bytes), align: 0
  Segment part 14.            Intra module refs:   AdcRead
                                                   BAT_MON_Init
           LOCAL                   ADDRESS         
           =====                   =======         
           adcRef                  00000281 
    -------------------------------------------------------------------------
XDATA_Z
  Relative segment, address: XDATA 00000282 - 00000283 (0x2 bytes), align: 0
  Segment part 16.            Intra module refs:   BAT_MON_Init
                                                   BAT_MON_ProcessEvent
           ENTRY                   ADDRESS         REF BY
           =====                   =======         ======
           bdcount                 00000282 
    -------------------------------------------------------------------------
XDATA_Z
  Relative segment, address: XDATA 00000284 - 00000284 (0x1 bytes), align: 0
  Segment part 17.            Intra module refs:   BAT_MON_Init
                                                   BAT_MON_ProcessEvent
           LOCAL                   ADDRESS         
           =====                   =======         
           BAT_MON_TaskID          00000284 
    -------------------------------------------------------------------------
XDATA_I
  Relative segment, address: XDATA 00000428 - 00000438 (0x11 bytes), align: 0
  Segment part 18.            Intra module refs:   Segment part 39
           ENTRY                   ADDRESS         REF BY
           =====                   =======         ======
           hexval                  00000428 
    -------------------------------------------------------------------------
XDATA_I
  Relative segment, address: XDATA 00000439 - 00000449 (0x11 bytes), align: 0
  Segment part 20.            Intra module refs:   BAT_MON_Init
           ENTRY                   ADDRESS         REF BY
           =====                   =======         ======
           scanRspData1            00000439 
    -------------------------------------------------------------------------
XDATA_I
  Relative segment, address: XDATA 0000044A - 0000044F (0x6 bytes), align: 0
  Segment part 24.            Intra module refs:   BAT_MON_Init
           ENTRY                   ADDRESS         REF BY
           =====                   =======         ======
           baddr1                  0000044A 
    -------------------------------------------------------------------------
XDATA_I
  Relative segment, address: XDATA 00000450 - 0000046B (0x1c bytes), align: 0
  Segment part 26.            Intra module refs:   BAT_MON_Init
                                                   BAT_MON_ProcessEvent
           ENTRY                   ADDRESS         REF BY
           =====                   =======         ======
           aData1                  00000450 
    -------------------------------------------------------------------------
XDATA_Z
  Relative segment, address: XDATA 00000285 - 00000285 (0x1 bytes), align: 0
  Segment part 28.            Intra module refs:   BAT_MON_ProcessEvent
           ENTRY                   ADDRESS         REF BY
           =====                   =======         ======
           LedBlink                00000285 
    -------------------------------------------------------------------------
XDATA_Z
  Relative segment, address: XDATA 00000286 - 00000289 (0x4 bytes), align: 0
  Segment part 29.            Intra module refs:   BAT_MON_ProcessEvent
           LOCAL                   ADDRESS         
           =====                   =======         
           BAT_MON_BroadcasterCBs
                                   00000286 
    -------------------------------------------------------------------------
<BANKED_CODE,CODE_C> 1 (was BANKED_CODE)
  Relative segment, address: CODE 000049CD - 00004A01 (0x35 bytes), align: 0
  Segment part 31.            Intra module refs:   WaitUs::?relay
           ENTRY                   ADDRESS         REF BY
           =====                   =======         ======
           WaitUs                  000049CD 
               XSTACK = 0000000C ( 00000000 )
    -------------------------------------------------------------------------
<BANKED_CODE,CODE_C> 1 (was BANKED_CODE)
  Relative segment, address: CODE 00004A02 - 00004AC6 (0xc5 bytes), align: 0
  Segment part 33.            Intra module refs:   AdcRead::?relay
           ENTRY                   ADDRESS         REF BY
           =====                   =======         ======
           AdcRead                 00004A02 
               calls direct
               XSTACK = 00000011 ( 0000000C )
    -------------------------------------------------------------------------
<BANKED_CODE,CODE_C> 1 (was BANKED_CODE)
  Relative segment, address: CODE 00004AC7 - 00004ACB (0x5 bytes), align: 0
  Segment part 35.            Intra module refs:   AdcRead
                                                   BAT_MON_Init
           LOCAL                   ADDRESS         
           =====                   =======         
           ?Subroutine0            00004AC7 
    -------------------------------------------------------------------------
<BANKED_CODE,CODE_C> 1 (was BANKED_CODE)
  Relative segment, address: CODE 00004ACC - 00004C18 (0x14d bytes), align: 0
  Segment part 36.            Intra module refs:   BAT_MON_Init::?relay
           ENTRY                   ADDRESS         REF BY
           =====                   =======         ======
           BAT_MON_Init            00004ACC 
               calls direct
               XSTACK = 00000000 ( 00000011 )
    -------------------------------------------------------------------------
<BANKED_CODE,CODE_C> 1 (was BANKED_CODE)
  Relative segment, address: CODE 00004C19 - 00004C19 (0x1 bytes), align: 0
  Segment part 38.            Intra module refs:   BAT_MON_Init
           LOCAL                   ADDRESS         
           =====                   =======         
           ?Subroutine1            00004C19 
    -------------------------------------------------------------------------
<BANKED_CODE,CODE_C> 1 (was BANKED_CODE)
  Relative segment, address: CODE 00004C1A - 00004C28 (0xf bytes), align: 0
  Segment part 39.            Intra module refs:   ?Subroutine1
                                                   BAT_MON_Init
    -------------------------------------------------------------------------
<BANKED_CODE,CODE_C> 1 (was BANKED_CODE)
  Relative segment, address: CODE 00004C29 - 00004CDC (0xb4 bytes), align: 0
  Segment part 40.            Intra module refs:   BAT_MON_ProcessEvent::?relay
           ENTRY                   ADDRESS         REF BY
           =====                   =======         ======
           BAT_MON_ProcessEvent    00004C29 
               calls direct
               XSTACK = 00000000 ( 0000000E )
    -------------------------------------------------------------------------
XDATA_ID
  Relative segment, address: CODE 0000014B - 0000015B (0x11 bytes), align: 0
  Segment part 19.            Intra module refs:   hexval
    -------------------------------------------------------------------------
XDATA_ID
  Relative segment, address: CODE 0000015C - 0000016C (0x11 bytes), align: 0
  Segment part 21.            Intra module refs:   scanRspData1
    -------------------------------------------------------------------------
XDATA_ID
  Relative segment, address: CODE 0000016D - 00000172 (0x6 bytes), align: 0
  Segment part 25.            Intra module refs:   baddr1
    -------------------------------------------------------------------------
XDATA_ID
  Relative segment, address: CODE 00000173 - 0000018E (0x1c bytes), align: 0
  Segment part 27.            Intra module refs:   aData1
    -------------------------------------------------------------------------
<XDATA_ROM_C> 1 (was XDATA_ROM_C)
  Relative segment, address: CONST 0000801C - 0000801F (0x4 bytes), align: 0
  Segment part 30.            Intra module refs:   BAT_MON_ProcessEvent
                                                   gapWriteAdvEnableStatus (gap_peridevmgr)
           ENTRY                   ADDRESS         REF BY
           =====                   =======         ======
           __Constant_3e8          0000801C 
    -------------------------------------------------------------------------
BANK_RELAYS
  Relative segment, address: CODE 00000232 - 00000237 (0x6 bytes), align: 0
  Segment part 32.            Intra module refs:   AdcRead
           ENTRY                   ADDRESS         REF BY
           =====                   =======         ======
           WaitUs::?relay          00000232 
    -------------------------------------------------------------------------
BANK_RELAYS
  Relative segment, address: CODE 00000238 - 0000023D (0x6 bytes), align: 0
  Segment part 34.            Intra module refs:   BAT_MON_Init
                                                   BAT_MON_ProcessEvent
           ENTRY                   ADDRESS         REF BY
           =====                   =======         ======
           AdcRead::?relay         00000238 
    -------------------------------------------------------------------------
BANK_RELAYS
  Relative segment, address: CODE 0000023E - 00000243 (0x6 bytes), align: 0
  Segment part 37.
           ENTRY                   ADDRESS         REF BY
           =====                   =======         ======
           BAT_MON_Init::?relay    0000023E        osalInitTasks (OSAL_BAT_MON)
    -------------------------------------------------------------------------
BANK_RELAYS
  Relative segment, address: CODE 00000244 - 00000249 (0x6 bytes), align: 0
  Segment part 41.
           ENTRY                   ADDRESS         REF BY
           =====                   =======         ======
           BAT_MON_ProcessEvent::?relay
                                   00000244        tasksArr (OSAL_BAT_MON)
    -------------------------------------------------------------------------
<XDATA_ROM_C_FLASH> 1 (was XDATA_ROM_C_FLASH)
  Relative segment, address: CODE 0000801C - 0000801F (0x4 bytes), align: 0
  Segment part 42.            Intra module refs:   __Constant_3e8

    *************************************************************************

  FILE NAME : C:\Users\MON\Desktop\IAR_TPMS\IAR Systems\SDK\BLE-CC254x-1.4.0\Projects\ble\BAT_MON\CC2541DB\CC2541\Obj\BAT_MON_Main.r51
  PROGRAM MODULE, NAME : BAT_MON_Main

  SEGMENTS IN THE MODULE
  ======================
<BANKED_CODE,CODE_C> 1 (was BANKED_CODE)
  Relative segment, address: CODE 00006634 - 00006643 (0x10 bytes), align: 0
  Segment part 6.
           ENTRY                   ADDRESS         REF BY
           =====                   =======         ======
           main                    00006634        ?call_main (?cmain)
               calls direct

    *************************************************************************

  FILE NAME : C:\Users\MON\Desktop\IAR_TPMS\IAR Systems\SDK\BLE-CC254x-1.4.0\Projects\ble\Libraries\CC2541DB\bin\CC2541_BLE_bcast.lib
  LIBRARY MODULE, NAME : gap_configmgr

  SEGMENTS IN THE MODULE
  ======================
XDATA_I
  Relative segment, address: XDATA 0000046C - 0000046C (0x1 bytes), align: 0
  Segment part 6.             Intra module refs:   GAP_ParamsInit
                                                   gapProcessRandomAddrComplete
                                                   gapSendDeviceInitDoneEvent
           ENTRY                   ADDRESS         REF BY
           =====                   =======         ======
           gapAppTaskID            0000046C 
    -------------------------------------------------------------------------
XDATA_Z
  Relative segment, address: XDATA 0000028A - 0000028A (0x1 bytes), align: 0
  Segment part 8.             Intra module refs:   GAP_ParamsInit
           ENTRY                   ADDRESS         REF BY
           =====                   =======         ======
           gapProfileRole          0000028A        GAP_MakeDiscoverable (gap_peridevmgr)
                                                   GAP_PeriDevMgrInit (gap_peridevmgr)
                                                   GAP_UpdateAdvertisingData (gap_peridevmgr)
                                                   gapProcessAdvertisingEvt (gap_peridevmgr)
    -------------------------------------------------------------------------
XDATA_Z
  Relative segment, address: XDATA 0000028B - 0000028B (0x1 bytes), align: 0
  Segment part 9.             Intra module refs:   gapProcessRandomAddrComplete
           ENTRY                   ADDRESS         REF BY
           =====                   =======         ======
           gapDeviceAddrMode       0000028B        GAP_MakeDiscoverable (gap_peridevmgr)
                                                   gapSetAdvParams (gap_peridevmgr)
    -------------------------------------------------------------------------
XDATA_Z
  Relative segment, address: XDATA 0000028C - 0000028D (0x2 bytes), align: 0
  Segment part 10.
           ENTRY                   ADDRESS         REF BY
           =====                   =======         ======
           gapPrivateAddrChangeTimeout
                                   0000028C        GAP_EndDiscoverable (gap_peridevmgr)
                                                   GAP_MakeDiscoverable (gap_peridevmgr)
    -------------------------------------------------------------------------
XDATA_Z
  Relative segment, address: XDATA 0000028E - 0000028E (0x1 bytes), align: 0
  Segment part 11.            Intra module refs:   gapProcessRandomAddrComplete
           ENTRY                   ADDRESS         REF BY
           =====                   =======         ======
           gapAutoAdvPrivateAddrChange
                                   0000028E        gapProcessAdvertisingEvt (gap_peridevmgr)
                                                   gapWriteAdvEnableStatus (gap_peridevmgr)
    -------------------------------------------------------------------------
XDATA_Z
  Relative segment, address: XDATA 0000028F - 0000029E (0x10 bytes), align: 0
  Segment part 12.            Intra module refs:   GAP_ParamsInit
                                                   gapReadBD_ADDRStatus
                                                   gapReadBufSizeCmdStatus
                                                   gapSendDeviceInitDoneEvent
    -------------------------------------------------------------------------
XDATA_I
  Relative segment, address: XDATA 0000046D - 000004BA (0x4e bytes), align: 0
  Segment part 13.            Intra module refs:   Segment part 22
    -------------------------------------------------------------------------
XDATA_Z
  Relative segment, address: XDATA 0000029F - 000002A4 (0x6 bytes), align: 0
  Segment part 15.            Intra module refs:   gapProcessRandomAddrComplete
    -------------------------------------------------------------------------
<BANKED_CODE,CODE_C> 1 (was BANKED_CODE)
  Relative segment, address: CODE 00004FC7 - 00004FEE (0x28 bytes), align: 0
  Segment part 18.            Intra module refs:   GAP_SetParamValue::?relay
           ENTRY                   ADDRESS         REF BY
           =====                   =======         ======
           GAP_SetParamValue       00004FC7 
               ISTACK = 00000000 ( 00000002 )
    -------------------------------------------------------------------------
<BANKED_CODE,CODE_C> 1 (was BANKED_CODE)
  Relative segment, address: CODE 00004FEF - 0000500A (0x1c bytes), align: 0
  Segment part 20.            Intra module refs:   GAP_GetParamValue::?relay
           ENTRY                   ADDRESS         REF BY
           =====                   =======         ======
           GAP_GetParamValue       00004FEF 
               XSTACK = 00000014 ( 00000000 )
               ISTACK = 00000000 ( 00000002 )
    -------------------------------------------------------------------------
<BANKED_CODE,CODE_C> 1 (was BANKED_CODE)
  Relative segment, address: CODE 0000500B - 0000501C (0x12 bytes), align: 0
  Segment part 22.            Intra module refs:   GAP_GetParamValue
                                                   GAP_SetParamValue
    -------------------------------------------------------------------------
<BANKED_CODE,CODE_C> 1 (was BANKED_CODE)
  Relative segment, address: CODE 0000501D - 0000504E (0x32 bytes), align: 0
  Segment part 23.            Intra module refs:   GAP_ParamsInit::?relay
           ENTRY                   ADDRESS         REF BY
           =====                   =======         ======
           GAP_ParamsInit          0000501D 
               calls direct
               XSTACK = 00000000 ( 00000009 )
    -------------------------------------------------------------------------
<BANKED_CODE,CODE_C> 1 (was BANKED_CODE)
  Relative segment, address: CODE 0000504F - 00005053 (0x5 bytes), align: 0
  Segment part 25.            Intra module refs:   GAP_ParamsInit
                                                   gapReadBufSizeCmdStatus
    -------------------------------------------------------------------------
<BANKED_CODE,CODE_C> 1 (was BANKED_CODE)
  Relative segment, address: CODE 00005054 - 00005099 (0x46 bytes), align: 0
  Segment part 30.            Intra module refs:   gapReadBD_ADDRStatus::?relay
           ENTRY                   ADDRESS         REF BY
           =====                   =======         ======
           gapReadBD_ADDRStatus    00005054 
               calls direct
               XSTACK = 00000000 ( 0000000C )
    -------------------------------------------------------------------------
<BANKED_CODE,CODE_C> 1 (was BANKED_CODE)
  Relative segment, address: CODE 0000509A - 0000509E (0x5 bytes), align: 0
  Segment part 32.            Intra module refs:   gapReadBD_ADDRStatus
    -------------------------------------------------------------------------
<BANKED_CODE,CODE_C> 1 (was BANKED_CODE)
  Relative segment, address: CODE 0000509F - 000050E9 (0x4b bytes), align: 0
  Segment part 33.            Intra module refs:   gapReadBufSizeCmdStatus::?relay
           ENTRY                   ADDRESS         REF BY
           =====                   =======         ======
           gapReadBufSizeCmdStatus
                                   0000509F 
               calls direct
               XSTACK = 00000000 ( 00000009 )
    -------------------------------------------------------------------------
<BANKED_CODE,CODE_C> 1 (was BANKED_CODE)
  Relative segment, address: CODE 000050EA - 0000511C (0x33 bytes), align: 0
  Segment part 37.            Intra module refs:   gapAddAddrAdj::?relay
           ENTRY                   ADDRESS         REF BY
           =====                   =======         ======
           gapAddAddrAdj           000050EA 
               XSTACK = 0000000A ( 00000000 )
               ISTACK = 00000000 ( 00000002 )
    -------------------------------------------------------------------------
<BANKED_CODE,CODE_C> 1 (was BANKED_CODE)
  Relative segment, address: CODE 0000511D - 00005123 (0x7 bytes), align: 0
  Segment part 40.            Intra module refs:   GAP_GetParamValue
                                                   GAP_SetParamValue
                                                   gapAddAddrAdj
    -------------------------------------------------------------------------
<BANKED_CODE,CODE_C> 1 (was BANKED_CODE)
  Relative segment, address: CODE 00005124 - 00005129 (0x6 bytes), align: 0
  Segment part 42.            Intra module refs:   GAP_GetParamValue
    -------------------------------------------------------------------------
<BANKED_CODE,CODE_C> 1 (was BANKED_CODE)
  Relative segment, address: CODE 0000512A - 000051C8 (0x9f bytes), align: 0
  Segment part 45.            Intra module refs:   gapProcessRandomAddrComplete::?relay
           ENTRY                   ADDRESS         REF BY
           =====                   =======         ======
           gapProcessRandomAddrComplete
                                   0000512A 
               calls direct
               XSTACK = 00000000 ( 00000010 )
               ISTACK = 00000000 ( 00000001 )
    -------------------------------------------------------------------------
<BANKED_CODE,CODE_C> 1 (was BANKED_CODE)
  Relative segment, address: CODE 000051C9 - 000051CD (0x5 bytes), align: 0
  Segment part 47.            Intra module refs:   gapProcessRandomAddrComplete
                                                   gapSendDeviceInitDoneEvent
    -------------------------------------------------------------------------
<BANKED_CODE,CODE_C> 1 (was BANKED_CODE)
  Relative segment, address: CODE 000051CE - 000051CE (0x1 bytes), align: 0
  Segment part 48.            Intra module refs:   gapProcessRandomAddrComplete
                                                   gapReadBufSizeCmdStatus
    -------------------------------------------------------------------------
<BANKED_CODE,CODE_C> 1 (was BANKED_CODE)
  Relative segment, address: CODE 000051CF - 000051D4 (0x6 bytes), align: 0
  Segment part 49.            Intra module refs:   Segment part 48
                                                   gapProcessRandomAddrComplete
                                                   gapSendDeviceInitDoneEvent
    -------------------------------------------------------------------------
<BANKED_CODE,CODE_C> 1 (was BANKED_CODE)
  Relative segment, address: CODE 000051D5 - 000051DE (0xa bytes), align: 0
  Segment part 50.            Intra module refs:   gapProcessRandomAddrComplete
                                                   gapSendDeviceInitDoneEvent
    -------------------------------------------------------------------------
<BANKED_CODE,CODE_C> 1 (was BANKED_CODE)
  Relative segment, address: CODE 000051DF - 000051E6 (0x8 bytes), align: 0
  Segment part 51.            Intra module refs:   Segment part 50
    -------------------------------------------------------------------------
<BANKED_CODE,CODE_C> 1 (was BANKED_CODE)
  Relative segment, address: CODE 000051E7 - 00005264 (0x7e bytes), align: 0
  Segment part 67.            Intra module refs:   gapSendDeviceInitDoneEvent::?relay
           LOCAL                   ADDRESS         
           =====                   =======         
           gapSendDeviceInitDoneEvent
                                   000051E7 
               calls direct
               XSTACK = 0000000A ( 0000000E )
               ISTACK = 00000000 ( 00000001 )
    -------------------------------------------------------------------------
<BANKED_CODE,CODE_C> 1 (was BANKED_CODE)
  Relative segment, address: CODE 00005265 - 0000526D (0x9 bytes), align: 0
  Segment part 71.            Intra module refs:   gapReadBufSizeCmdStatus
    -------------------------------------------------------------------------
XDATA_ID
  Relative segment, address: CODE 0000018F - 0000018F (0x1 bytes), align: 0
  Segment part 7.             Intra module refs:   gapAppTaskID
    -------------------------------------------------------------------------
XDATA_ID
  Relative segment, address: CODE 00000190 - 000001DD (0x4e bytes), align: 0
  Segment part 14.            Intra module refs:   Segment part 13
    -------------------------------------------------------------------------
<XDATA_ROM_C> 1 (was XDATA_ROM_C)
  Relative segment, address: CONST 00008018 - 0000801B (0x4 bytes), align: 0
  Segment part 16.            Intra module refs:   GAP_MakeDiscoverable (gap_peridevmgr)
                                                   gapProcessRandomAddrComplete
                                                   gapWriteAdvEnableStatus (gap_peridevmgr)
           ENTRY                   ADDRESS         REF BY
           =====                   =======         ======
           __Constant_ea60         00008018 
    -------------------------------------------------------------------------
BANK_RELAYS
  Relative segment, address: CODE 0000024A - 0000024F (0x6 bytes), align: 0
  Segment part 19.
           ENTRY                   ADDRESS         REF BY
           =====                   =======         ======
           GAP_SetParamValue::?relay
                                   0000024A        BAT_MON_Init (BAT_MON)
                                                   GAPRole_SetParameter (broadcaster)
    -------------------------------------------------------------------------
BANK_RELAYS
  Relative segment, address: CODE 00000250 - 00000255 (0x6 bytes), align: 0
  Segment part 21.
           ENTRY                   ADDRESS         REF BY
           =====                   =======         ======
           GAP_GetParamValue::?relay
                                   00000250        GAP_MakeDiscoverable (gap_peridevmgr)
                                                   gapSetAdvParams (gap_peridevmgr)
                                                   gapWriteAdvEnableStatus (gap_peridevmgr)
    -------------------------------------------------------------------------
BANK_RELAYS
  Relative segment, address: CODE 00000256 - 0000025B (0x6 bytes), align: 0
  Segment part 24.
           ENTRY                   ADDRESS         REF BY
           =====                   =======         ======
           GAP_ParamsInit::?relay
                                   00000256        GAP_DeviceInit (gap)
    -------------------------------------------------------------------------
BANK_RELAYS
  Relative segment, address: CODE 0000025C - 00000261 (0x6 bytes), align: 0
  Segment part 31.
           ENTRY                   ADDRESS         REF BY
           =====                   =======         ======
           gapReadBD_ADDRStatus::?relay
                                   0000025C        gapProcessHCICmdCompleteEvt (gap_simpletask)
    -------------------------------------------------------------------------
BANK_RELAYS
  Relative segment, address: CODE 00000262 - 00000267 (0x6 bytes), align: 0
  Segment part 34.
           ENTRY                   ADDRESS         REF BY
           =====                   =======         ======
           gapReadBufSizeCmdStatus::?relay
                                   00000262        gapProcessHCICmdCompleteEvt (gap_simpletask)
    -------------------------------------------------------------------------
BANK_RELAYS
  Relative segment, address: CODE 00000268 - 0000026D (0x6 bytes), align: 0
  Segment part 38.
           ENTRY                   ADDRESS         REF BY
           =====                   =======         ======
           gapAddAddrAdj::?relay   00000268        gapSetAdvParams (gap_peridevmgr)
    -------------------------------------------------------------------------
BANK_RELAYS
  Relative segment, address: CODE 0000026E - 00000273 (0x6 bytes), align: 0
  Segment part 46.
           ENTRY                   ADDRESS         REF BY
           =====                   =======         ======
           gapProcessRandomAddrComplete::?relay
                                   0000026E        gapProcessHCICmdCompleteEvt (gap_simpletask)
    -------------------------------------------------------------------------
BANK_RELAYS
  Relative segment, address: CODE 00000274 - 00000279 (0x6 bytes), align: 0
  Segment part 68.            Intra module refs:   gapReadBD_ADDRStatus
                                                   gapReadBufSizeCmdStatus
           LOCAL                   ADDRESS         
           =====                   =======         
           gapSendDeviceInitDoneEvent::?relay
                                   00000274 
    -------------------------------------------------------------------------
<XDATA_ROM_C_FLASH> 1 (was XDATA_ROM_C_FLASH)
  Relative segment, address: CODE 00008018 - 0000801B (0x4 bytes), align: 0
  Segment part 72.            Intra module refs:   __Constant_ea60

    -------------------------------------------------------------------------
  LIBRARY MODULE, NAME : gap_devmgr

  SEGMENTS IN THE MODULE
  ======================
XDATA_Z
  Relative segment, address: XDATA 000002A5 - 000002A6 (0x2 bytes), align: 0
  Segment part 7.
           ENTRY                   ADDRESS         REF BY
           =====                   =======         ======
           pGapAdvertState         000002A5        GAP_MakeDiscoverable (gap_peridevmgr)
                                                   Segment part 47 (gap_peridevmgr)
                                                   Segment part 49 (gap_peridevmgr)
                                                   Segment part 91 (gap_peridevmgr)
                                                   gapFreeAdvertState (gap_peridevmgr)
                                                   gapSetAdvParams (gap_peridevmgr)
    -------------------------------------------------------------------------
<BANKED_CODE,CODE_C> 1 (was BANKED_CODE)
  Relative segment, address: CODE 0000622C - 00006243 (0x18 bytes), align: 0
  Segment part 15.            Intra module refs:   gapValidADType::?relay
           ENTRY                   ADDRESS         REF BY
           =====                   =======         ======
           gapValidADType          0000622C 
               XSTACK = 00000012 ( 00000000 )
    -------------------------------------------------------------------------
<BANKED_CODE,CODE_C> 1 (was BANKED_CODE)
  Relative segment, address: CODE 00006244 - 000062DC (0x99 bytes), align: 0
  Segment part 17.            Intra module refs:   gapFindADType::?relay
           ENTRY                   ADDRESS         REF BY
           =====                   =======         ======
           gapFindADType           00006244 
               calls direct
               XSTACK = 00000002 ( 00000012 )
               ISTACK = 00000000 ( 00000001 )
    -------------------------------------------------------------------------
BANK_RELAYS
  Relative segment, address: CODE 0000027A - 0000027F (0x6 bytes), align: 0
  Segment part 16.            Intra module refs:   gapFindADType
           ENTRY                   ADDRESS         REF BY
           =====                   =======         ======
           gapValidADType::?relay
                                   0000027A 
    -------------------------------------------------------------------------
BANK_RELAYS
  Relative segment, address: CODE 00000280 - 00000285 (0x6 bytes), align: 0
  Segment part 18.
           ENTRY                   ADDRESS         REF BY
           =====                   =======         ======
           gapFindADType::?relay   00000280        isLimitedDiscoverableMode (gap_peridevmgr)

    -------------------------------------------------------------------------
  LIBRARY MODULE, NAME : gap_peridevmgr

  SEGMENTS IN THE MODULE
  ======================
XDATA_I
  Relative segment, address: XDATA 000004BB - 000004BB (0x1 bytes), align: 0
  Segment part 6.             Intra module refs:   GAP_UpdateAdvertisingData
                                                   gapWriteAdvDataStatus
    -------------------------------------------------------------------------
XDATA_Z
  Relative segment, address: XDATA 000002A7 - 000002A8 (0x2 bytes), align: 0
  Segment part 9.             Intra module refs:   GAP_MakeDiscoverable
                                                   GAP_PeriDevMgrInit
                                                   GAP_UpdateAdvertisingData
                                                   Segment part 35
                                                   Segment part 65
                                                   isLimitedDiscoverableMode
    -------------------------------------------------------------------------
XDATA_Z
  Relative segment, address: XDATA 000002A9 - 000002AA (0x2 bytes), align: 0
  Segment part 10.            Intra module refs:   GAP_PeriDevMgrInit
                                                   GAP_UpdateAdvertisingData
    -------------------------------------------------------------------------
XDATA_Z
  Relative segment, address: XDATA 000002AB - 000002AC (0x2 bytes), align: 0
  Segment part 11.            Intra module refs:   GAP_EndDiscoverable
                                                   gapProcessAdvertisingEvt
                                                   gapWriteAdvEnableStatus
    -------------------------------------------------------------------------
XDATA_I
  Relative segment, address: XDATA 000004BC - 000004C1 (0x6 bytes), align: 0
  Segment part 12.            Intra module refs:   GAP_PeriDevMgrInit
    -------------------------------------------------------------------------
<BANKED_CODE,CODE_C> 1 (was BANKED_CODE)
  Relative segment, address: CODE 0000244B - 0000251D (0xd3 bytes), align: 0
  Segment part 16.            Intra module refs:   GAP_MakeDiscoverable::?relay
           ENTRY                   ADDRESS         REF BY
           =====                   =======         ======
           GAP_MakeDiscoverable    0000244B 
               calls direct
               XSTACK = 00000000 ( 00000010 )
               ISTACK = 00000000 ( 00000001 )
    -------------------------------------------------------------------------
<BANKED_CODE,CODE_C> 1 (was BANKED_CODE)
  Relative segment, address: CODE 0000251E - 000025C6 (0xa9 bytes), align: 0
  Segment part 18.            Intra module refs:   GAP_UpdateAdvertisingData::?relay
           ENTRY                   ADDRESS         REF BY
           =====                   =======         ======
           GAP_UpdateAdvertisingData
                                   0000251E 
               calls direct
               XSTACK = 00000000 ( 00000014 )
               ISTACK = 00000000 ( 00000001 )
    -------------------------------------------------------------------------
<BANKED_CODE,CODE_C> 1 (was BANKED_CODE)
  Relative segment, address: CODE 000025C7 - 00002612 (0x4c bytes), align: 0
  Segment part 20.            Intra module refs:   GAP_EndDiscoverable::?relay
           ENTRY                   ADDRESS         REF BY
           =====                   =======         ======
           GAP_EndDiscoverable     000025C7 
               calls direct
               XSTACK = 0000000C ( 00000009 )
    -------------------------------------------------------------------------
<BANKED_CODE,CODE_C> 1 (was BANKED_CODE)
  Relative segment, address: CODE 00002613 - 00002619 (0x7 bytes), align: 0
  Segment part 31.            Intra module refs:   gapFreeAdvertState
    -------------------------------------------------------------------------
<BANKED_CODE,CODE_C> 1 (was BANKED_CODE)
  Relative segment, address: CODE 0000261A - 000026BB (0xa2 bytes), align: 0
  Segment part 32.            Intra module refs:   GAP_PeriDevMgrInit::?relay
           ENTRY                   ADDRESS         REF BY
           =====                   =======         ======
           GAP_PeriDevMgrInit      0000261A 
               calls direct
               XSTACK = 00000000 ( 00000009 )
    -------------------------------------------------------------------------
<BANKED_CODE,CODE_C> 1 (was BANKED_CODE)
  Relative segment, address: CODE 000026BC - 000026C0 (0x5 bytes), align: 0
  Segment part 34.            Intra module refs:   GAP_EndDiscoverable
                                                   GAP_PeriDevMgrInit
                                                   gapSetAdvParamsStatus
    -------------------------------------------------------------------------
<BANKED_CODE,CODE_C> 1 (was BANKED_CODE)
  Relative segment, address: CODE 000026C1 - 000026C3 (0x3 bytes), align: 0
  Segment part 35.            Intra module refs:   GAP_PeriDevMgrInit
    -------------------------------------------------------------------------
<BANKED_CODE,CODE_C> 1 (was BANKED_CODE)
  Relative segment, address: CODE 000026C4 - 000026C9 (0x6 bytes), align: 0
  Segment part 36.            Intra module refs:   GAP_MakeDiscoverable
                                                   GAP_PeriDevMgrInit
                                                   Segment part 35
    -------------------------------------------------------------------------
<BANKED_CODE,CODE_C> 1 (was BANKED_CODE)
  Relative segment, address: CODE 000026CA - 00002755 (0x8c bytes), align: 0
  Segment part 37.            Intra module refs:   gapPeriProcessHCICmdCompleteEvt::?relay
           LOCAL                   ADDRESS         
           =====                   =======         
           gapPeriProcessHCICmdCompleteEvt
                                   000026CA 
               calls direct, is indirectly called
               XSTACK = 00000000 ( 0000000A )
    -------------------------------------------------------------------------
<BANKED_CODE,CODE_C> 1 (was BANKED_CODE)
  Relative segment, address: CODE 00002756 - 00002834 (0xdf bytes), align: 0
  Segment part 39.            Intra module refs:   gapSetAdvParams::?relay
           ENTRY                   ADDRESS         REF BY
           =====                   =======         ======
           gapSetAdvParams         00002756 
               calls direct, is indirectly called
               XSTACK = 0000000C ( 00000014 )
    -------------------------------------------------------------------------
<BANKED_CODE,CODE_C> 1 (was BANKED_CODE)
  Relative segment, address: CODE 00002835 - 00002841 (0xd bytes), align: 0
  Segment part 41.            Intra module refs:   gapSetAdvParams
    -------------------------------------------------------------------------
<BANKED_CODE,CODE_C> 1 (was BANKED_CODE)
  Relative segment, address: CODE 00002842 - 00002870 (0x2f bytes), align: 0
  Segment part 42.            Intra module refs:   gapSetAdvParamsStatus::?relay
           ENTRY                   ADDRESS         REF BY
           =====                   =======         ======
           gapSetAdvParamsStatus   00002842 
               calls direct
               XSTACK = 0000000A ( 00000009 )
    -------------------------------------------------------------------------
<BANKED_CODE,CODE_C> 1 (was BANKED_CODE)
  Relative segment, address: CODE 00002871 - 00002964 (0xf4 bytes), align: 0
  Segment part 44.            Intra module refs:   gapWriteAdvEnableStatus::?relay
           ENTRY                   ADDRESS         REF BY
           =====                   =======         ======
           gapWriteAdvEnableStatus
                                   00002871 
               calls direct
               XSTACK = 0000000A ( 00000018 )
               ISTACK = 00000000 ( 00000001 )
    -------------------------------------------------------------------------
<BANKED_CODE,CODE_C> 1 (was BANKED_CODE)
  Relative segment, address: CODE 00002965 - 00002965 (0x1 bytes), align: 0
  Segment part 46.            Intra module refs:   GAP_EndDiscoverable
                                                   GAP_MakeDiscoverable
    -------------------------------------------------------------------------
<BANKED_CODE,CODE_C> 1 (was BANKED_CODE)
  Relative segment, address: CODE 00002966 - 0000296B (0x6 bytes), align: 0
  Segment part 47.            Intra module refs:   Segment part 46
                                                   gapSetAdvParams
                                                   gapWriteAdvEnableStatus
    -------------------------------------------------------------------------
<BANKED_CODE,CODE_C> 1 (was BANKED_CODE)
  Relative segment, address: CODE 0000296C - 00002970 (0x5 bytes), align: 0
  Segment part 48.            Intra module refs:   Segment part 47
                                                   gapSetAdvParams
                                                   gapSetAdvParamsStatus
                                                   gapWriteAdvEnableStatus
    -------------------------------------------------------------------------
<BANKED_CODE,CODE_C> 1 (was BANKED_CODE)
  Relative segment, address: CODE 00002971 - 00002974 (0x4 bytes), align: 0
  Segment part 49.            Intra module refs:   gapSendMakeDiscEvent
                                                   gapWriteAdvEnableStatus
    -------------------------------------------------------------------------
<BANKED_CODE,CODE_C> 1 (was BANKED_CODE)
  Relative segment, address: CODE 00002975 - 0000297D (0x9 bytes), align: 0
  Segment part 50.            Intra module refs:   Segment part 49
                                                   gapPeriProcessHCICmdCompleteEvt
    -------------------------------------------------------------------------
<BANKED_CODE,CODE_C> 1 (was BANKED_CODE)
  Relative segment, address: CODE 0000297E - 00002983 (0x6 bytes), align: 0
  Segment part 51.            Intra module refs:   GAP_MakeDiscoverable
                                                   Segment part 48
                                                   Segment part 50
                                                   Segment part 88
    -------------------------------------------------------------------------
<BANKED_CODE,CODE_C> 1 (was BANKED_CODE)
  Relative segment, address: CODE 00002984 - 000029BE (0x3b bytes), align: 0
  Segment part 52.            Intra module refs:   gapWriteAdvDataStatus::?relay
           ENTRY                   ADDRESS         REF BY
           =====                   =======         ======
           gapWriteAdvDataStatus   00002984 
               calls direct
               XSTACK = 0000000A ( 0000000A )
               ISTACK = 00000000 ( 00000001 )
    -------------------------------------------------------------------------
<BANKED_CODE,CODE_C> 1 (was BANKED_CODE)
  Relative segment, address: CODE 000029BF - 000029C3 (0x5 bytes), align: 0
  Segment part 54.            Intra module refs:   gapPeriProcessHCICmdCompleteEvt
                                                   gapWriteAdvDataStatus
                                                   isLimitedDiscoverableMode
    -------------------------------------------------------------------------
<BANKED_CODE,CODE_C> 1 (was BANKED_CODE)
  Relative segment, address: CODE 000029C4 - 000029CB (0x8 bytes), align: 0
  Segment part 55.            Intra module refs:   gapSendMakeDiscEvent
                                                   gapWriteAdvDataStatus
                                                   gapWriteAdvEnableStatus
    -------------------------------------------------------------------------
<BANKED_CODE,CODE_C> 1 (was BANKED_CODE)
  Relative segment, address: CODE 000029CC - 00002A8C (0xc1 bytes), align: 0
  Segment part 56.            Intra module refs:   gapProcessAdvertisingEvt::?relay
           LOCAL                   ADDRESS         
           =====                   =======         
           gapProcessAdvertisingEvt
                                   000029CC 
               calls direct, is indirectly called
               XSTACK = 00000000 ( 00000010 )
    -------------------------------------------------------------------------
<BANKED_CODE,CODE_C> 1 (was BANKED_CODE)
  Relative segment, address: CODE 00002A8D - 00002A91 (0x5 bytes), align: 0
  Segment part 60.            Intra module refs:   GAP_MakeDiscoverable
                                                   gapProcessAdvertisingEvt
                                                   gapSendMakeDiscEvent
    -------------------------------------------------------------------------
<BANKED_CODE,CODE_C> 1 (was BANKED_CODE)
  Relative segment, address: CODE 00002A92 - 00002A94 (0x3 bytes), align: 0
  Segment part 65.            Intra module refs:   GAP_PeriDevMgrInit
    -------------------------------------------------------------------------
<BANKED_CODE,CODE_C> 1 (was BANKED_CODE)
  Relative segment, address: CODE 00002A95 - 00002A9A (0x6 bytes), align: 0
  Segment part 66.            Intra module refs:   GAP_PeriDevMgrInit
                                                   Segment part 65
                                                   gapFreeAdvertState
    -------------------------------------------------------------------------
<BANKED_CODE,CODE_C> 1 (was BANKED_CODE)
  Relative segment, address: CODE 00002A9B - 00002AA0 (0x6 bytes), align: 0
  Segment part 72.            Intra module refs:   Segment part 92
                                                   gapPeriProcessHCICmdCompleteEvt
    -------------------------------------------------------------------------
<BANKED_CODE,CODE_C> 1 (was BANKED_CODE)
  Relative segment, address: CODE 00002AA1 - 00002ADC (0x3c bytes), align: 0
  Segment part 80.            Intra module refs:   gapSendMakeDiscEvent::?relay
           LOCAL                   ADDRESS         
           =====                   =======         
           gapSendMakeDiscEvent    00002AA1 
               calls direct
               XSTACK = 00000014 ( 0000000C )
               ISTACK = 00000000 ( 00000001 )
    -------------------------------------------------------------------------
<BANKED_CODE,CODE_C> 1 (was BANKED_CODE)
  Relative segment, address: CODE 00002ADD - 00002AF8 (0x1c bytes), align: 0
  Segment part 82.            Intra module refs:   gapFreeAdvertState::?relay
           LOCAL                   ADDRESS         
           =====                   =======         
           gapFreeAdvertState      00002ADD 
               calls direct
               XSTACK = 00000014 ( 00000000 )
               ISTACK = 00000000 ( 00000002 )
    -------------------------------------------------------------------------
<BANKED_CODE,CODE_C> 1 (was BANKED_CODE)
  Relative segment, address: CODE 00002AF9 - 00002B54 (0x5c bytes), align: 0
  Segment part 84.            Intra module refs:   isLimitedDiscoverableMode::?relay
           LOCAL                   ADDRESS         
           =====                   =======         
           isLimitedDiscoverableMode
                                   00002AF9 
               calls direct
               XSTACK = 00000014 ( 0000000D )
    -------------------------------------------------------------------------
<BANKED_CODE,CODE_C> 1 (was BANKED_CODE)
  Relative segment, address: CODE 00002B55 - 00002B56 (0x2 bytes), align: 0
  Segment part 86.            Intra module refs:   gapPeriProcessHCICmdCompleteEvt
    -------------------------------------------------------------------------
<BANKED_CODE,CODE_C> 1 (was BANKED_CODE)
  Relative segment, address: CODE 00002B57 - 00002B59 (0x3 bytes), align: 0
  Segment part 87.            Intra module refs:   Segment part 86
                                                   isLimitedDiscoverableMode
    -------------------------------------------------------------------------
<BANKED_CODE,CODE_C> 1 (was BANKED_CODE)
  Relative segment, address: CODE 00002B5A - 00002B5E (0x5 bytes), align: 0
  Segment part 88.            Intra module refs:   GAP_EndDiscoverable
                                                   GAP_MakeDiscoverable
                                                   Segment part 87
                                                   gapProcessAdvertisingEvt
    -------------------------------------------------------------------------
<BANKED_CODE,CODE_C> 1 (was BANKED_CODE)
  Relative segment, address: CODE 00002B5F - 00002B60 (0x2 bytes), align: 0
  Segment part 89.            Intra module refs:   GAP_MakeDiscoverable
                                                   gapSendMakeDiscEvent
    -------------------------------------------------------------------------
<BANKED_CODE,CODE_C> 1 (was BANKED_CODE)
  Relative segment, address: CODE 00002B61 - 00002B64 (0x4 bytes), align: 0
  Segment part 90.            Intra module refs:   Segment part 89
                                                   gapWriteAdvEnableStatus
    -------------------------------------------------------------------------
<BANKED_CODE,CODE_C> 1 (was BANKED_CODE)
  Relative segment, address: CODE 00002B65 - 00002B67 (0x3 bytes), align: 0
  Segment part 91.            Intra module refs:   GAP_EndDiscoverable
                                                   GAP_MakeDiscoverable
                                                   Segment part 90
                                                   gapFreeAdvertState
                                                   gapProcessAdvertisingEvt
                                                   gapSetAdvParams
                                                   gapSetAdvParamsStatus
    -------------------------------------------------------------------------
<BANKED_CODE,CODE_C> 1 (was BANKED_CODE)
  Relative segment, address: CODE 00002B68 - 00002B6D (0x6 bytes), align: 0
  Segment part 92.            Intra module refs:   GAP_MakeDiscoverable
                                                   GAP_PeriDevMgrInit
                                                   GAP_UpdateAdvertisingData
                                                   Segment part 91
                                                   gapProcessAdvertisingEvt
                                                   isLimitedDiscoverableMode
    -------------------------------------------------------------------------
XDATA_ID
  Relative segment, address: CODE 000001DE - 000001DE (0x1 bytes), align: 0
  Segment part 7.             Intra module refs:   Segment part 6
    -------------------------------------------------------------------------
XDATA_ID
  Relative segment, address: CODE 000001DF - 000001E4 (0x6 bytes), align: 0
  Segment part 13.            Intra module refs:   Segment part 12
    -------------------------------------------------------------------------
BANK_RELAYS
  Relative segment, address: CODE 00000286 - 0000028B (0x6 bytes), align: 0
  Segment part 17.
           ENTRY                   ADDRESS         REF BY
           =====                   =======         ======
           GAP_MakeDiscoverable::?relay
                                   00000286        GAPRole_ProcessEvent (broadcaster)
    -------------------------------------------------------------------------
BANK_RELAYS
  Relative segment, address: CODE 0000028C - 00000291 (0x6 bytes), align: 0
  Segment part 19.
           ENTRY                   ADDRESS         REF BY
           =====                   =======         ======
           GAP_UpdateAdvertisingData::?relay
                                   0000028C        BAT_MON_ProcessEvent (BAT_MON)
                                                   gapRole_ProcessGAPMsg (broadcaster)
    -------------------------------------------------------------------------
BANK_RELAYS
  Relative segment, address: CODE 00000292 - 00000297 (0x6 bytes), align: 0
  Segment part 21.            Intra module refs:   gapProcessAdvertisingEvt
           ENTRY                   ADDRESS         REF BY
           =====                   =======         ======
           GAP_EndDiscoverable::?relay
                                   00000292        GAPRole_SetParameter (broadcaster)
    -------------------------------------------------------------------------
BANK_RELAYS
  Relative segment, address: CODE 00000298 - 0000029D (0x6 bytes), align: 0
  Segment part 33.
           ENTRY                   ADDRESS         REF BY
           =====                   =======         ======
           GAP_PeriDevMgrInit::?relay
                                   00000298        GAP_DeviceInit (gap)
    -------------------------------------------------------------------------
BANK_RELAYS
  Relative segment, address: CODE 0000029E - 000002A3 (0x6 bytes), align: 0
  Segment part 38.            Intra module refs:   Segment part 13
           LOCAL                   ADDRESS         
           =====                   =======         
           gapPeriProcessHCICmdCompleteEvt::?relay
                                   0000029E 
    -------------------------------------------------------------------------
BANK_RELAYS
  Relative segment, address: CODE 000002A4 - 000002A9 (0x6 bytes), align: 0
  Segment part 40.            Intra module refs:   GAP_MakeDiscoverable
                                                   Segment part 13
           ENTRY                   ADDRESS         REF BY
           =====                   =======         ======
           gapSetAdvParams::?relay
                                   000002A4 
    -------------------------------------------------------------------------
BANK_RELAYS
  Relative segment, address: CODE 000002AA - 000002AF (0x6 bytes), align: 0
  Segment part 43.            Intra module refs:   gapPeriProcessHCICmdCompleteEvt
           ENTRY                   ADDRESS         REF BY
           =====                   =======         ======
           gapSetAdvParamsStatus::?relay
                                   000002AA 
    -------------------------------------------------------------------------
BANK_RELAYS
  Relative segment, address: CODE 000002B0 - 000002B5 (0x6 bytes), align: 0
  Segment part 45.            Intra module refs:   gapPeriProcessHCICmdCompleteEvt
           ENTRY                   ADDRESS         REF BY
           =====                   =======         ======
           gapWriteAdvEnableStatus::?relay
                                   000002B0 
    -------------------------------------------------------------------------
BANK_RELAYS
  Relative segment, address: CODE 000002B6 - 000002BB (0x6 bytes), align: 0
  Segment part 53.            Intra module refs:   gapPeriProcessHCICmdCompleteEvt
           ENTRY                   ADDRESS         REF BY
           =====                   =======         ======
           gapWriteAdvDataStatus::?relay
                                   000002B6 
    -------------------------------------------------------------------------
BANK_RELAYS
  Relative segment, address: CODE 000002BC - 000002C1 (0x6 bytes), align: 0
  Segment part 57.            Intra module refs:   Segment part 13
           LOCAL                   ADDRESS         
           =====                   =======         
           gapProcessAdvertisingEvt::?relay
                                   000002BC 
    -------------------------------------------------------------------------
BANK_RELAYS
  Relative segment, address: CODE 000002C2 - 000002C7 (0x6 bytes), align: 0
  Segment part 81.            Intra module refs:   gapSetAdvParamsStatus
                                                   gapWriteAdvEnableStatus
           LOCAL                   ADDRESS         
           =====                   =======         
           gapSendMakeDiscEvent::?relay
                                   000002C2 
    -------------------------------------------------------------------------
BANK_RELAYS
  Relative segment, address: CODE 000002C8 - 000002CD (0x6 bytes), align: 0
  Segment part 83.            Intra module refs:   GAP_MakeDiscoverable
                                                   gapProcessAdvertisingEvt
                                                   gapSendMakeDiscEvent
                                                   gapWriteAdvEnableStatus
           LOCAL                   ADDRESS         
           =====                   =======         
           gapFreeAdvertState::?relay
                                   000002C8 
    -------------------------------------------------------------------------
BANK_RELAYS
  Relative segment, address: CODE 000002CE - 000002D3 (0x6 bytes), align: 0
  Segment part 85.            Intra module refs:   gapSetAdvParams
                                                   gapWriteAdvEnableStatus
           LOCAL                   ADDRESS         
           =====                   =======         
           isLimitedDiscoverableMode::?relay
                                   000002CE 

    -------------------------------------------------------------------------
  LIBRARY MODULE, NAME : gap_simpletask

  SEGMENTS IN THE MODULE
  ======================
XDATA_Z
  Relative segment, address: XDATA 000002AD - 000002AD (0x1 bytes), align: 0
  Segment part 6.             Intra module refs:   GAP_Init
                                                   GAP_ProcessEvent
           ENTRY                   ADDRESS         REF BY
           =====                   =======         ======
           gapTaskID               000002AD        GAP_EndDiscoverable (gap_peridevmgr)
                                                   GAP_MakeDiscoverable (gap_peridevmgr)
                                                   gapProcessAdvertisingEvt (gap_peridevmgr)
                                                   gapProcessRandomAddrComplete (gap_configmgr)
                                                   gapWriteAdvEnableStatus (gap_peridevmgr)
    -------------------------------------------------------------------------
XDATA_I
  Relative segment, address: XDATA 000004C2 - 000004C2 (0x1 bytes), align: 0
  Segment part 7.             Intra module refs:   GAP_ProcessEvent
                                                   GAP_RegisterForHCIMsgs
           ENTRY                   ADDRESS         REF BY
           =====                   =======         ======
           gapUnwantedTaskID       000004C2 
    -------------------------------------------------------------------------
XDATA_Z
  Relative segment, address: XDATA 000002AE - 000002AF (0x2 bytes), align: 0
  Segment part 9.             Intra module refs:   GAP_ProcessEvent
                                                   gapProcessHCICmdCompleteEvt
                                                   gapRegisterPeripheral
           ENTRY                   ADDRESS         REF BY
           =====                   =======         ======
           pfnPeripheralCBs        000002AE        gapProcessRandomAddrComplete (gap_configmgr)
    -------------------------------------------------------------------------
XDATA_Z
  Relative segment, address: XDATA 000002B0 - 000002B1 (0x2 bytes), align: 0
  Segment part 10.            Intra module refs:   Segment part 26
    -------------------------------------------------------------------------
<BANKED_CODE,CODE_C> 1 (was BANKED_CODE)
  Relative segment, address: CODE 00005B49 - 00005B53 (0xb bytes), align: 0
  Segment part 11.            Intra module refs:   GAP_RegisterForHCIMsgs::?relay
           ENTRY                   ADDRESS         REF BY
           =====                   =======         ======
           GAP_RegisterForHCIMsgs
                                   00005B49 
               ISTACK = 00000000 ( 00000002 )
    -------------------------------------------------------------------------
<BANKED_CODE,CODE_C> 1 (was BANKED_CODE)
  Relative segment, address: CODE 00005B54 - 00005B65 (0x12 bytes), align: 0
  Segment part 13.            Intra module refs:   GAP_Init::?relay
           ENTRY                   ADDRESS         REF BY
           =====                   =======         ======
           GAP_Init                00005B54 
               calls direct
               XSTACK = 00000000 ( 00000009 )
    -------------------------------------------------------------------------
<BANKED_CODE,CODE_C> 1 (was BANKED_CODE)
  Relative segment, address: CODE 00005B66 - 00005C30 (0xcb bytes), align: 0
  Segment part 15.            Intra module refs:   GAP_ProcessEvent::?relay
           ENTRY                   ADDRESS         REF BY
           =====                   =======         ======
           GAP_ProcessEvent        00005B66 
               calls direct
               XSTACK = 00000000 ( 0000000C )
    -------------------------------------------------------------------------
<BANKED_CODE,CODE_C> 1 (was BANKED_CODE)
  Relative segment, address: CODE 00005C31 - 00005C35 (0x5 bytes), align: 0
  Segment part 17.            Intra module refs:   GAP_ProcessEvent
    -------------------------------------------------------------------------
<BANKED_CODE,CODE_C> 1 (was BANKED_CODE)
  Relative segment, address: CODE 00005C36 - 00005C3D (0x8 bytes), align: 0
  Segment part 18.            Intra module refs:   Segment part 17
                                                   gapProcessHCICmdCompleteEvt
    -------------------------------------------------------------------------
<BANKED_CODE,CODE_C> 1 (was BANKED_CODE)
  Relative segment, address: CODE 00005C3E - 00005C42 (0x5 bytes), align: 0
  Segment part 19.            Intra module refs:   GAP_NumActiveConnections::?relay
           ENTRY                   ADDRESS         REF BY
           =====                   =======         ======
           GAP_NumActiveConnections
                                   00005C3E 
    -------------------------------------------------------------------------
<BANKED_CODE,CODE_C> 1 (was BANKED_CODE)
  Relative segment, address: CODE 00005C43 - 00005CFD (0xbb bytes), align: 0
  Segment part 21.            Intra module refs:   gapProcessHCICmdCompleteEvt::?relay
           LOCAL                   ADDRESS         
           =====                   =======         
           gapProcessHCICmdCompleteEvt
                                   00005C43 
               calls direct
               XSTACK = 0000000C ( 0000000B )
    -------------------------------------------------------------------------
<BANKED_CODE,CODE_C> 1 (was BANKED_CODE)
  Relative segment, address: CODE 00005CFE - 00005D07 (0xa bytes), align: 0
  Segment part 23.            Intra module refs:   Segment part 18
                                                   gapProcessHCICmdCompleteEvt
    -------------------------------------------------------------------------
<BANKED_CODE,CODE_C> 1 (was BANKED_CODE)
  Relative segment, address: CODE 00005D08 - 00005D0D (0x6 bytes), align: 0
  Segment part 24.            Intra module refs:   Segment part 17
                                                   Segment part 25
                                                   gapProcessHCICmdCompleteEvt
    -------------------------------------------------------------------------
<BANKED_CODE,CODE_C> 1 (was BANKED_CODE)
  Relative segment, address: CODE 00005D0E - 00005D1E (0x11 bytes), align: 0
  Segment part 25.            Intra module refs:   gapProcessHCICmdCompleteEvt
    -------------------------------------------------------------------------
<BANKED_CODE,CODE_C> 1 (was BANKED_CODE)
  Relative segment, address: CODE 00005D1F - 00005D21 (0x3 bytes), align: 0
  Segment part 26.            Intra module refs:   GAP_ProcessEvent
                                                   gapProcessHCICmdCompleteEvt
    -------------------------------------------------------------------------
<BANKED_CODE,CODE_C> 1 (was BANKED_CODE)
  Relative segment, address: CODE 00005D22 - 00005D29 (0x8 bytes), align: 0
  Segment part 27.            Intra module refs:   GAP_ProcessEvent
                                                   Segment part 26
                                                   gapProcessHCICmdCompleteEvt
    -------------------------------------------------------------------------
<BANKED_CODE,CODE_C> 1 (was BANKED_CODE)
  Relative segment, address: CODE 00005D2A - 00005D2D (0x4 bytes), align: 0
  Segment part 30.            Intra module refs:   gapRegisterPeripheral
    -------------------------------------------------------------------------
<BANKED_CODE,CODE_C> 1 (was BANKED_CODE)
  Relative segment, address: CODE 00005D2E - 00005D35 (0x8 bytes), align: 0
  Segment part 31.            Intra module refs:   GAP_RegisterForHCIMsgs
                                                   Segment part 30
    -------------------------------------------------------------------------
<BANKED_CODE,CODE_C> 1 (was BANKED_CODE)
  Relative segment, address: CODE 00005D36 - 00005D3E (0x9 bytes), align: 0
  Segment part 32.            Intra module refs:   gapRegisterPeripheral::?relay
           ENTRY                   ADDRESS         REF BY
           =====                   =======         ======
           gapRegisterPeripheral   00005D36 
               ISTACK = 00000000 ( 00000002 )
    -------------------------------------------------------------------------
XDATA_ID
  Relative segment, address: CODE 000001E5 - 000001E5 (0x1 bytes), align: 0
  Segment part 8.             Intra module refs:   gapUnwantedTaskID
    -------------------------------------------------------------------------
BANK_RELAYS
  Relative segment, address: CODE 000002D4 - 000002D9 (0x6 bytes), align: 0
  Segment part 12.
           ENTRY                   ADDRESS         REF BY
           =====                   =======         ======
           GAP_RegisterForHCIMsgs::?relay
                                   000002D4        GAPRole_Init (broadcaster)
    -------------------------------------------------------------------------
BANK_RELAYS
  Relative segment, address: CODE 000002DA - 000002DF (0x6 bytes), align: 0
  Segment part 14.
           ENTRY                   ADDRESS         REF BY
           =====                   =======         ======
           GAP_Init::?relay        000002DA        osalInitTasks (OSAL_BAT_MON)
    -------------------------------------------------------------------------
BANK_RELAYS
  Relative segment, address: CODE 000002E0 - 000002E5 (0x6 bytes), align: 0
  Segment part 16.
           ENTRY                   ADDRESS         REF BY
           =====                   =======         ======
           GAP_ProcessEvent::?relay
                                   000002E0        tasksArr (OSAL_BAT_MON)
    -------------------------------------------------------------------------
BANK_RELAYS
  Relative segment, address: CODE 000002E6 - 000002EB (0x6 bytes), align: 0
  Segment part 20.
           ENTRY                   ADDRESS         REF BY
           =====                   =======         ======
           GAP_NumActiveConnections::?relay
                                   000002E6        GAP_MakeDiscoverable (gap_peridevmgr)
                                                   gapSetAdvParams (gap_peridevmgr)
    -------------------------------------------------------------------------
BANK_RELAYS
  Relative segment, address: CODE 000002EC - 000002F1 (0x6 bytes), align: 0
  Segment part 22.            Intra module refs:   GAP_ProcessEvent
           LOCAL                   ADDRESS         
           =====                   =======         
           gapProcessHCICmdCompleteEvt::?relay
                                   000002EC 
    -------------------------------------------------------------------------
BANK_RELAYS
  Relative segment, address: CODE 000002F2 - 000002F7 (0x6 bytes), align: 0
  Segment part 33.
           ENTRY                   ADDRESS         REF BY
           =====                   =======         ======
           gapRegisterPeripheral::?relay
                                   000002F2        GAP_PeriDevMgrInit (gap_peridevmgr)

    -------------------------------------------------------------------------
  LIBRARY MODULE, NAME : hci

  SEGMENTS IN THE MODULE
  ======================
XDATA_Z
  Relative segment, address: XDATA 000002B2 - 000002B2 (0x1 bytes), align: 0
  Segment part 9.
           ENTRY                   ADDRESS         REF BY
           =====                   =======         ======
           hciPTMenabled           000002B2        HCI_CommandCompleteEvent (hci_event)
                                                   HCI_Init (hci_tl)
    -------------------------------------------------------------------------
XDATA_Z
  Relative segment, address: XDATA 000002B3 - 000002B3 (0x1 bytes), align: 0
  Segment part 12.
           ENTRY                   ADDRESS         REF BY
           =====                   =======         ======
           hciCtrlCmdToken         000002B3        Segment part 35 (hci_event)
    -------------------------------------------------------------------------
<BANKED_CODE,CODE_C> 1 (was BANKED_CODE)
  Relative segment, address: CODE 0000526E - 00005275 (0x8 bytes), align: 0
  Segment part 30.            Intra module refs:   Segment part 118
                                                   Segment part 45
    -------------------------------------------------------------------------
<BANKED_CODE,CODE_C> 1 (was BANKED_CODE)
  Relative segment, address: CODE 00005276 - 0000529D (0x28 bytes), align: 0
  Segment part 34.            Intra module refs:   HCI_ReadBDADDRCmd::?relay
           ENTRY                   ADDRESS         REF BY
           =====                   =======         ======
           HCI_ReadBDADDRCmd       00005276 
               calls direct
               XSTACK = 00000000 ( 00000007 )
               ISTACK = 00000000 ( 00000003 )
    -------------------------------------------------------------------------
<BANKED_CODE,CODE_C> 1 (was BANKED_CODE)
  Relative segment, address: CODE 0000529E - 000052CD (0x30 bytes), align: 0
  Segment part 42.            Intra module refs:   HCI_LE_ReadBufSizeCmd::?relay
           ENTRY                   ADDRESS         REF BY
           =====                   =======         ======
           HCI_LE_ReadBufSizeCmd   0000529E 
               calls direct
               XSTACK = 00000000 ( 00000004 )
               ISTACK = 00000000 ( 00000002 )
    -------------------------------------------------------------------------
<BANKED_CODE,CODE_C> 1 (was BANKED_CODE)
  Relative segment, address: CODE 000052CE - 000052D4 (0x7 bytes), align: 0
  Segment part 44.            Intra module refs:   HCI_LE_ReadBufSizeCmd
    -------------------------------------------------------------------------
<BANKED_CODE,CODE_C> 1 (was BANKED_CODE)
  Relative segment, address: CODE 000052D5 - 000052DA (0x6 bytes), align: 0
  Segment part 45.            Intra module refs:   HCI_LE_ReadBufSizeCmd
    -------------------------------------------------------------------------
<BANKED_CODE,CODE_C> 1 (was BANKED_CODE)
  Relative segment, address: CODE 000052DB - 0000534F (0x75 bytes), align: 0
  Segment part 50.            Intra module refs:   HCI_LE_SetAdvParamCmd::?relay
           ENTRY                   ADDRESS         REF BY
           =====                   =======         ======
           HCI_LE_SetAdvParamCmd   000052DB 
               calls direct
               XSTACK = 00000006 ( 00000013 )
               ISTACK = 00000000 ( 00000001 )
    -------------------------------------------------------------------------
<BANKED_CODE,CODE_C> 1 (was BANKED_CODE)
  Relative segment, address: CODE 00005350 - 00005364 (0x15 bytes), align: 0
  Segment part 52.            Intra module refs:   HCI_LE_SetAdvDataCmd::?relay
           ENTRY                   ADDRESS         REF BY
           =====                   =======         ======
           HCI_LE_SetAdvDataCmd    00005350 
               calls direct
               XSTACK = 00000000 ( 0000000A )
               ISTACK = 00000000 ( 00000001 )
    -------------------------------------------------------------------------
<BANKED_CODE,CODE_C> 1 (was BANKED_CODE)
  Relative segment, address: CODE 00005365 - 00005379 (0x15 bytes), align: 0
  Segment part 54.            Intra module refs:   HCI_LE_SetScanRspDataCmd::?relay
           ENTRY                   ADDRESS         REF BY
           =====                   =======         ======
           HCI_LE_SetScanRspDataCmd
                                   00005365 
               calls direct
               XSTACK = 00000000 ( 0000000A )
               ISTACK = 00000000 ( 00000001 )
    -------------------------------------------------------------------------
<BANKED_CODE,CODE_C> 1 (was BANKED_CODE)
  Relative segment, address: CODE 0000537A - 0000538E (0x15 bytes), align: 0
  Segment part 56.            Intra module refs:   HCI_LE_SetAdvEnableCmd::?relay
           ENTRY                   ADDRESS         REF BY
           =====                   =======         ======
           HCI_LE_SetAdvEnableCmd
                                   0000537A 
               calls direct
               XSTACK = 00000000 ( 0000000A )
               ISTACK = 00000000 ( 00000001 )
    -------------------------------------------------------------------------
<BANKED_CODE,CODE_C> 1 (was BANKED_CODE)
  Relative segment, address: CODE 0000538F - 0000539B (0xd bytes), align: 0
  Segment part 61.            Intra module refs:   HCI_ReadBDADDRCmd
    -------------------------------------------------------------------------
<BANKED_CODE,CODE_C> 1 (was BANKED_CODE)
  Relative segment, address: CODE 0000539C - 000053A2 (0x7 bytes), align: 0
  Segment part 66.            Intra module refs:   HCI_LE_SetAdvDataCmd
                                                   HCI_LE_SetAdvEnableCmd
                                                   HCI_LE_SetAdvParamCmd
                                                   HCI_LE_SetScanRspDataCmd
    -------------------------------------------------------------------------
<BANKED_CODE,CODE_C> 1 (was BANKED_CODE)
  Relative segment, address: CODE 000053A3 - 000053AA (0x8 bytes), align: 0
  Segment part 67.            Intra module refs:   Segment part 66
    -------------------------------------------------------------------------
<BANKED_CODE,CODE_C> 1 (was BANKED_CODE)
  Relative segment, address: CODE 000053AB - 000053B2 (0x8 bytes), align: 0
  Segment part 74.            Intra module refs:   LL_RandCback
    -------------------------------------------------------------------------
<BANKED_CODE,CODE_C> 1 (was BANKED_CODE)
  Relative segment, address: CODE 000053B3 - 000053B4 (0x2 bytes), align: 0
  Segment part 86.            Intra module refs:   HCI_EXT_SetBDADDRCmd
    -------------------------------------------------------------------------
<BANKED_CODE,CODE_C> 1 (was BANKED_CODE)
  Relative segment, address: CODE 000053B5 - 000053B9 (0x5 bytes), align: 0
  Segment part 87.            Intra module refs:   Segment part 150
                                                   Segment part 86
    -------------------------------------------------------------------------
<BANKED_CODE,CODE_C> 1 (was BANKED_CODE)
  Relative segment, address: CODE 000053BA - 000053C1 (0x8 bytes), align: 0
  Segment part 94.            Intra module refs:   Segment part 30
    -------------------------------------------------------------------------
<BANKED_CODE,CODE_C> 1 (was BANKED_CODE)
  Relative segment, address: CODE 000053C2 - 000053CA (0x9 bytes), align: 0
  Segment part 98.            Intra module refs:   HCI_LE_SetAdvDataCmd
                                                   HCI_LE_SetAdvEnableCmd
                                                   HCI_LE_SetScanRspDataCmd
    -------------------------------------------------------------------------
<BANKED_CODE,CODE_C> 1 (was BANKED_CODE)
  Relative segment, address: CODE 000053CB - 000053CD (0x3 bytes), align: 0
  Segment part 99.            Intra module refs:   Segment part 98
    -------------------------------------------------------------------------
<BANKED_CODE,CODE_C> 1 (was BANKED_CODE)
  Relative segment, address: CODE 000053CE - 000053D2 (0x5 bytes), align: 0
  Segment part 100.           Intra module refs:   Segment part 99
    -------------------------------------------------------------------------
<BANKED_CODE,CODE_C> 1 (was BANKED_CODE)
  Relative segment, address: CODE 000053D3 - 000053D5 (0x3 bytes), align: 0
  Segment part 109.           Intra module refs:   HCI_ReadBDADDRCmd
                                                   Segment part 44
                                                   Segment part 87
    -------------------------------------------------------------------------
<BANKED_CODE,CODE_C> 1 (was BANKED_CODE)
  Relative segment, address: CODE 000053D6 - 000053DC (0x7 bytes), align: 0
  Segment part 110.           Intra module refs:   Segment part 109
    -------------------------------------------------------------------------
<BANKED_CODE,CODE_C> 1 (was BANKED_CODE)
  Relative segment, address: CODE 000053DD - 000053DD (0x1 bytes), align: 0
  Segment part 117.           Intra module refs:   HCI_EXT_SetBDADDRCmd
    -------------------------------------------------------------------------
<BANKED_CODE,CODE_C> 1 (was BANKED_CODE)
  Relative segment, address: CODE 000053DE - 000053E3 (0x6 bytes), align: 0
  Segment part 118.           Intra module refs:   LL_EXT_ExtendRfRangeCback
                                                   LL_EXT_SetRxGainCback
                                                   LL_EXT_SetTxPowerCback
                                                   Segment part 117
    -------------------------------------------------------------------------
<BANKED_CODE,CODE_C> 1 (was BANKED_CODE)
  Relative segment, address: CODE 000053E4 - 00005420 (0x3d bytes), align: 0
  Segment part 121.           Intra module refs:   HCI_EXT_SetBDADDRCmd::?relay
           ENTRY                   ADDRESS         REF BY
           =====                   =======         ======
           HCI_EXT_SetBDADDRCmd    000053E4 
               calls direct
               XSTACK = 00000000 ( 00000003 )
               ISTACK = 00000000 ( 00000003 )
    -------------------------------------------------------------------------
<BANKED_CODE,CODE_C> 1 (was BANKED_CODE)
  Relative segment, address: CODE 00005421 - 00005469 (0x49 bytes), align: 0
  Segment part 146.           Intra module refs:   LL_RandCback::?relay
           ENTRY                   ADDRESS         REF BY
           =====                   =======         ======
           LL_RandCback            00005421 
               calls direct
               XSTACK = 00000000 ( 00000015 )
    -------------------------------------------------------------------------
<BANKED_CODE,CODE_C> 1 (was BANKED_CODE)
  Relative segment, address: CODE 0000546A - 0000548B (0x22 bytes), align: 0
  Segment part 148.           Intra module refs:   LL_EXT_SetRxGainCback::?relay
           ENTRY                   ADDRESS         REF BY
           =====                   =======         ======
           LL_EXT_SetRxGainCback   0000546A 
               calls direct
               XSTACK = 00000000 ( 00000003 )
               ISTACK = 00000000 ( 00000002 )
    -------------------------------------------------------------------------
<BANKED_CODE,CODE_C> 1 (was BANKED_CODE)
  Relative segment, address: CODE 0000548C - 00005493 (0x8 bytes), align: 0
  Segment part 150.           Intra module refs:   LL_EXT_ExtendRfRangeCback
                                                   LL_EXT_SetRxGainCback
                                                   LL_EXT_SetTxPowerCback
    -------------------------------------------------------------------------
<BANKED_CODE,CODE_C> 1 (was BANKED_CODE)
  Relative segment, address: CODE 00005494 - 000054B8 (0x25 bytes), align: 0
  Segment part 151.           Intra module refs:   LL_EXT_SetTxPowerCback::?relay
           ENTRY                   ADDRESS         REF BY
           =====                   =======         ======
           LL_EXT_SetTxPowerCback
                                   00005494 
               calls direct
               XSTACK = 00000000 ( 00000003 )
               ISTACK = 00000000 ( 00000002 )
    -------------------------------------------------------------------------
<BANKED_CODE,CODE_C> 1 (was BANKED_CODE)
  Relative segment, address: CODE 000054B9 - 000054E0 (0x28 bytes), align: 0
  Segment part 155.           Intra module refs:   LL_EXT_ExtendRfRangeCback::?relay
           ENTRY                   ADDRESS         REF BY
           =====                   =======         ======
           LL_EXT_ExtendRfRangeCback
                                   000054B9 
               calls direct
               XSTACK = 00000000 ( 00000003 )
               ISTACK = 00000000 ( 00000002 )
    -------------------------------------------------------------------------
BANK_RELAYS
  Relative segment, address: CODE 000002F8 - 000002FD (0x6 bytes), align: 0
  Segment part 35.
           ENTRY                   ADDRESS         REF BY
           =====                   =======         ======
           HCI_ReadBDADDRCmd::?relay
                                   000002F8        GAP_ParamsInit (gap_configmgr)
    -------------------------------------------------------------------------
BANK_RELAYS
  Relative segment, address: CODE 000002FE - 00000303 (0x6 bytes), align: 0
  Segment part 43.
           ENTRY                   ADDRESS         REF BY
           =====                   =======         ======
           HCI_LE_ReadBufSizeCmd::?relay
                                   000002FE        gapReadBD_ADDRStatus (gap_configmgr)
    -------------------------------------------------------------------------
BANK_RELAYS
  Relative segment, address: CODE 00000304 - 00000309 (0x6 bytes), align: 0
  Segment part 51.
           ENTRY                   ADDRESS         REF BY
           =====                   =======         ======
           HCI_LE_SetAdvParamCmd::?relay
                                   00000304        gapSetAdvParams (gap_peridevmgr)
    -------------------------------------------------------------------------
BANK_RELAYS
  Relative segment, address: CODE 0000030A - 0000030F (0x6 bytes), align: 0
  Segment part 53.
           ENTRY                   ADDRESS         REF BY
           =====                   =======         ======
           HCI_LE_SetAdvDataCmd::?relay
                                   0000030A        GAP_UpdateAdvertisingData (gap_peridevmgr)
    -------------------------------------------------------------------------
BANK_RELAYS
  Relative segment, address: CODE 00000310 - 00000315 (0x6 bytes), align: 0
  Segment part 55.
           ENTRY                   ADDRESS         REF BY
           =====                   =======         ======
           HCI_LE_SetScanRspDataCmd::?relay
                                   00000310        GAP_UpdateAdvertisingData (gap_peridevmgr)
    -------------------------------------------------------------------------
BANK_RELAYS
  Relative segment, address: CODE 00000316 - 0000031B (0x6 bytes), align: 0
  Segment part 57.
           ENTRY                   ADDRESS         REF BY
           =====                   =======         ======
           HCI_LE_SetAdvEnableCmd::?relay
                                   00000316        GAP_EndDiscoverable (gap_peridevmgr)
                                                   gapSetAdvParamsStatus (gap_peridevmgr)
    -------------------------------------------------------------------------
BANK_RELAYS
  Relative segment, address: CODE 0000031C - 00000321 (0x6 bytes), align: 0
  Segment part 122.
           ENTRY                   ADDRESS         REF BY
           =====                   =======         ======
           HCI_EXT_SetBDADDRCmd::?relay
                                   0000031C        BAT_MON_Init (BAT_MON)
    -------------------------------------------------------------------------
BANK_RELAYS
  Relative segment, address: CODE 00000322 - 00000327 (0x6 bytes), align: 0
  Segment part 147.
           ENTRY                   ADDRESS         REF BY
           =====                   =======         ======
           LL_RandCback::?relay    00000322        llProcessPostRfOps (ll_common)
    -------------------------------------------------------------------------
BANK_RELAYS
  Relative segment, address: CODE 00000328 - 0000032D (0x6 bytes), align: 0
  Segment part 149.
           ENTRY                   ADDRESS         REF BY
           =====                   =======         ======
           LL_EXT_SetRxGainCback::?relay
                                   00000328        llProcessPostRfOps (ll_common)
    -------------------------------------------------------------------------
BANK_RELAYS
  Relative segment, address: CODE 0000032E - 00000333 (0x6 bytes), align: 0
  Segment part 152.
           ENTRY                   ADDRESS         REF BY
           =====                   =======         ======
           LL_EXT_SetTxPowerCback::?relay
                                   0000032E        llProcessPostRfOps (ll_common)
    -------------------------------------------------------------------------
BANK_RELAYS
  Relative segment, address: CODE 00000334 - 00000339 (0x6 bytes), align: 0
  Segment part 156.
           ENTRY                   ADDRESS         REF BY
           =====                   =======         ======
           LL_EXT_ExtendRfRangeCback::?relay
                                   00000334        llProcessPostRfOps (ll_common)

    -------------------------------------------------------------------------
  LIBRARY MODULE, NAME : hci_event

  SEGMENTS IN THE MODULE
  ======================
XDATA_Z
  Relative segment, address: XDATA 000002B4 - 000002B4 (0x1 bytes), align: 0
  Segment part 6.             Intra module refs:   hciInitEventMasks
           ENTRY                   ADDRESS         REF BY
           =====                   =======         ======
           bleEvtMask              000002B4 
    -------------------------------------------------------------------------
XDATA_Z
  Relative segment, address: XDATA 000002B5 - 000002BC (0x8 bytes), align: 0
  Segment part 7.             Intra module refs:   hciInitEventMasks
           ENTRY                   ADDRESS         REF BY
           =====                   =======         ======
           pHciEvtMask             000002B5 
    -------------------------------------------------------------------------
<BANKED_CODE,CODE_C> 1 (was BANKED_CODE)
  Relative segment, address: CODE 00004CDD - 00004CFE (0x22 bytes), align: 0
  Segment part 8.             Intra module refs:   hciInitEventMasks::?relay
           ENTRY                   ADDRESS         REF BY
           =====                   =======         ======
           hciInitEventMasks       00004CDD 
               ISTACK = 00000000 ( 00000002 )
    -------------------------------------------------------------------------
<BANKED_CODE,CODE_C> 1 (was BANKED_CODE)
  Relative segment, address: CODE 00004CFF - 00004D05 (0x7 bytes), align: 0
  Segment part 10.            Intra module refs:   hciInitEventMasks
    -------------------------------------------------------------------------
<BANKED_CODE,CODE_C> 1 (was BANKED_CODE)
  Relative segment, address: CODE 00004D06 - 00004D0A (0x5 bytes), align: 0
  Segment part 13.            Intra module refs:   HCI_VendorSpecifcCommandCompleteEvent
    -------------------------------------------------------------------------
<BANKED_CODE,CODE_C> 1 (was BANKED_CODE)
  Relative segment, address: CODE 00004D0B - 00004D0F (0x5 bytes), align: 0
  Segment part 16.            Intra module refs:   HCI_CommandCompleteEvent
    -------------------------------------------------------------------------
<BANKED_CODE,CODE_C> 1 (was BANKED_CODE)
  Relative segment, address: CODE 00004D10 - 00004DEF (0xe0 bytes), align: 0
  Segment part 22.            Intra module refs:   HCI_CommandCompleteEvent::?relay
           ENTRY                   ADDRESS         REF BY
           =====                   =======         ======
           HCI_CommandCompleteEvent
                                   00004D10 
               calls direct
               XSTACK = 00000003 ( 00000014 )
               ISTACK = 00000000 ( 00000001 )
    -------------------------------------------------------------------------
<BANKED_CODE,CODE_C> 1 (was BANKED_CODE)
  Relative segment, address: CODE 00004DF0 - 00004E0E (0x1f bytes), align: 0
  Segment part 24.            Intra module refs:   HCI_VendorSpecifcCommandCompleteEvent::?relay
           ENTRY                   ADDRESS         REF BY
           =====                   =======         ======
           HCI_VendorSpecifcCommandCompleteEvent
                                   00004DF0 
               calls direct
               XSTACK = 00000000 ( 0000000C )
    -------------------------------------------------------------------------
<BANKED_CODE,CODE_C> 1 (was BANKED_CODE)
  Relative segment, address: CODE 00004E0F - 00004E14 (0x6 bytes), align: 0
  Segment part 35.            Intra module refs:   HCI_CommandCompleteEvent
                                                   HCI_SendCommandCompleteEvent
    -------------------------------------------------------------------------
<BANKED_CODE,CODE_C> 1 (was BANKED_CODE)
  Relative segment, address: CODE 00004E15 - 00004F36 (0x122 bytes), align: 0
  Segment part 36.            Intra module refs:   HCI_SendCommandCompleteEvent::?relay
           ENTRY                   ADDRESS         REF BY
           =====                   =======         ======
           HCI_SendCommandCompleteEvent
                                   00004E15 
               calls direct
               XSTACK = 00000014 ( 00000010 )
               ISTACK = 00000000 ( 00000001 )
    -------------------------------------------------------------------------
<BANKED_CODE,CODE_C> 1 (was BANKED_CODE)
  Relative segment, address: CODE 00004F37 - 00004F3B (0x5 bytes), align: 0
  Segment part 38.            Intra module refs:   HCI_SendCommandCompleteEvent
    -------------------------------------------------------------------------
<BANKED_CODE,CODE_C> 1 (was BANKED_CODE)
  Relative segment, address: CODE 00004F3C - 00004F3F (0x4 bytes), align: 0
  Segment part 39.            Intra module refs:   HCI_SendCommandCompleteEvent
    -------------------------------------------------------------------------
<BANKED_CODE,CODE_C> 1 (was BANKED_CODE)
  Relative segment, address: CODE 00004F40 - 00004F44 (0x5 bytes), align: 0
  Segment part 40.            Intra module refs:   Segment part 39
                                                   Segment part 42
    -------------------------------------------------------------------------
<BANKED_CODE,CODE_C> 1 (was BANKED_CODE)
  Relative segment, address: CODE 00004F45 - 00004F4F (0xb bytes), align: 0
  Segment part 41.            Intra module refs:   Segment part 40
    -------------------------------------------------------------------------
<BANKED_CODE,CODE_C> 1 (was BANKED_CODE)
  Relative segment, address: CODE 00004F50 - 00004F54 (0x5 bytes), align: 0
  Segment part 42.            Intra module refs:   HCI_SendCommandCompleteEvent
    -------------------------------------------------------------------------
<BANKED_CODE,CODE_C> 1 (was BANKED_CODE)
  Relative segment, address: CODE 00004F55 - 00004F57 (0x3 bytes), align: 0
  Segment part 43.            Intra module refs:   HCI_SendCommandCompleteEvent
    -------------------------------------------------------------------------
<BANKED_CODE,CODE_C> 1 (was BANKED_CODE)
  Relative segment, address: CODE 00004F58 - 00004F5E (0x7 bytes), align: 0
  Segment part 44.            Intra module refs:   Segment part 43
    -------------------------------------------------------------------------
<BANKED_CODE,CODE_C> 1 (was BANKED_CODE)
  Relative segment, address: CODE 00004F5F - 00004F63 (0x5 bytes), align: 0
  Segment part 45.            Intra module refs:   HCI_SendCommandCompleteEvent
    -------------------------------------------------------------------------
<BANKED_CODE,CODE_C> 1 (was BANKED_CODE)
  Relative segment, address: CODE 00004F64 - 00004F6A (0x7 bytes), align: 0
  Segment part 46.            Intra module refs:   HCI_SendCommandCompleteEvent
    -------------------------------------------------------------------------
<BANKED_CODE,CODE_C> 1 (was BANKED_CODE)
  Relative segment, address: CODE 00004F6B - 00004F6E (0x4 bytes), align: 0
  Segment part 49.            Intra module refs:   HCI_SendCommandCompleteEvent
    -------------------------------------------------------------------------
<BANKED_CODE,CODE_C> 1 (was BANKED_CODE)
  Relative segment, address: CODE 00004F6F - 00004F74 (0x6 bytes), align: 0
  Segment part 50.            Intra module refs:   Segment part 49
    -------------------------------------------------------------------------
<BANKED_CODE,CODE_C> 1 (was BANKED_CODE)
  Relative segment, address: CODE 00004F75 - 00004F84 (0x10 bytes), align: 0
  Segment part 51.            Intra module refs:   HCI_SendCommandCompleteEvent
    -------------------------------------------------------------------------
<BANKED_CODE,CODE_C> 1 (was BANKED_CODE)
  Relative segment, address: CODE 00004F85 - 00004F90 (0xc bytes), align: 0
  Segment part 52.            Intra module refs:   HCI_CommandCompleteEvent
                                                   Segment part 51
    -------------------------------------------------------------------------
<BANKED_CODE,CODE_C> 1 (was BANKED_CODE)
  Relative segment, address: CODE 00004F91 - 00004F94 (0x4 bytes), align: 0
  Segment part 53.            Intra module refs:   Segment part 45
                                                   Segment part 51
    -------------------------------------------------------------------------
<BANKED_CODE,CODE_C> 1 (was BANKED_CODE)
  Relative segment, address: CODE 00004F95 - 00004F9D (0x9 bytes), align: 0
  Segment part 54.            Intra module refs:   Segment part 53
                                                   Segment part 55
    -------------------------------------------------------------------------
<BANKED_CODE,CODE_C> 1 (was BANKED_CODE)
  Relative segment, address: CODE 00004F9E - 00004FA6 (0x9 bytes), align: 0
  Segment part 55.            Intra module refs:   Segment part 46
                                                   Segment part 51
    -------------------------------------------------------------------------
<BANKED_CODE,CODE_C> 1 (was BANKED_CODE)
  Relative segment, address: CODE 00004FA7 - 00004FAC (0x6 bytes), align: 0
  Segment part 68.            Intra module refs:   HCI_SendCommandCompleteEvent
    -------------------------------------------------------------------------
<BANKED_CODE,CODE_C> 1 (was BANKED_CODE)
  Relative segment, address: CODE 00004FAD - 00004FB1 (0x5 bytes), align: 0
  Segment part 83.            Intra module refs:   Segment part 54
    -------------------------------------------------------------------------
<BANKED_CODE,CODE_C> 1 (was BANKED_CODE)
  Relative segment, address: CODE 00004FB2 - 00004FB3 (0x2 bytes), align: 0
  Segment part 102.           Intra module refs:   HCI_CommandCompleteEvent
    -------------------------------------------------------------------------
<BANKED_CODE,CODE_C> 1 (was BANKED_CODE)
  Relative segment, address: CODE 00004FB4 - 00004FB4 (0x1 bytes), align: 0
  Segment part 103.           Intra module refs:   Segment part 102
    -------------------------------------------------------------------------
<BANKED_CODE,CODE_C> 1 (was BANKED_CODE)
  Relative segment, address: CODE 00004FB5 - 00004FB6 (0x2 bytes), align: 0
  Segment part 104.           Intra module refs:   Segment part 103
    -------------------------------------------------------------------------
<BANKED_CODE,CODE_C> 1 (was BANKED_CODE)
  Relative segment, address: CODE 00004FB7 - 00004FBC (0x6 bytes), align: 0
  Segment part 105.           Intra module refs:   Segment part 104
    -------------------------------------------------------------------------
<BANKED_CODE,CODE_C> 1 (was BANKED_CODE)
  Relative segment, address: CODE 00004FBD - 00004FBE (0x2 bytes), align: 0
  Segment part 110.           Intra module refs:   HCI_SendCommandCompleteEvent
    -------------------------------------------------------------------------
<BANKED_CODE,CODE_C> 1 (was BANKED_CODE)
  Relative segment, address: CODE 00004FBF - 00004FC1 (0x3 bytes), align: 0
  Segment part 111.           Intra module refs:   Segment part 110
    -------------------------------------------------------------------------
<BANKED_CODE,CODE_C> 1 (was BANKED_CODE)
  Relative segment, address: CODE 00004FC2 - 00004FC6 (0x5 bytes), align: 0
  Segment part 112.           Intra module refs:   Segment part 111
    -------------------------------------------------------------------------
BANK_RELAYS
  Relative segment, address: CODE 0000033A - 0000033F (0x6 bytes), align: 0
  Segment part 9.
           ENTRY                   ADDRESS         REF BY
           =====                   =======         ======
           hciInitEventMasks::?relay
                                   0000033A        HCI_Init (hci_tl)
    -------------------------------------------------------------------------
BANK_RELAYS
  Relative segment, address: CODE 00000340 - 00000345 (0x6 bytes), align: 0
  Segment part 23.
           ENTRY                   ADDRESS         REF BY
           =====                   =======         ======
           HCI_CommandCompleteEvent::?relay
                                   00000340        HCI_LE_ReadBufSizeCmd (hci)
                                                   HCI_LE_SetAdvParamCmd (hci)
                                                   HCI_ReadBDADDRCmd (hci)
                                                   LL_RandCback (hci)
                                                   Segment part 98 (hci)
    -------------------------------------------------------------------------
BANK_RELAYS
  Relative segment, address: CODE 00000346 - 0000034B (0x6 bytes), align: 0
  Segment part 25.
           ENTRY                   ADDRESS         REF BY
           =====                   =======         ======
           HCI_VendorSpecifcCommandCompleteEvent::?relay
                                   00000346        HCI_EXT_SetBDADDRCmd (hci)
                                                   Segment part 150 (hci)
    -------------------------------------------------------------------------
BANK_RELAYS
  Relative segment, address: CODE 0000034C - 00000351 (0x6 bytes), align: 0
  Segment part 37.            Intra module refs:   HCI_CommandCompleteEvent
                                                   HCI_VendorSpecifcCommandCompleteEvent
           ENTRY                   ADDRESS         REF BY
           =====                   =======         ======
           HCI_SendCommandCompleteEvent::?relay
                                   0000034C 

    -------------------------------------------------------------------------
  LIBRARY MODULE, NAME : ll

  SEGMENTS IN THE MODULE
  ======================
SFR_AN
  Relative segment, address: DATA 0000008D - 0000008D (0x1 bytes), align: 0
  Segment part 1. ROOT.
           ENTRY                   ADDRESS         REF BY
           =====                   =======         ======
           P1IEN                   0000008D 
    -------------------------------------------------------------------------
SFR_AN
  Relative segment, address: DATA 000000AE - 000000AE (0x1 bytes), align: 0
  Segment part 7. ROOT.
           ENTRY                   ADDRESS         REF BY
           =====                   =======         ======
           PMUX                    000000AE 
    -------------------------------------------------------------------------
SFR_AN
  Relative segment, address: DATA 000000C9 - 000000C9 (0x1 bytes), align: 0
  Segment part 9. ROOT.       Intra module refs:   LL_ProcessEvent
           ENTRY                   ADDRESS         REF BY
           =====                   =======         ======
           WDCTL                   000000C9 
    -------------------------------------------------------------------------
SFR_AN
  Relative segment, address: DATA 000000D9 - 000000D9 (0x1 bytes), align: 0
  Segment part 10. ROOT.      Intra module refs:   llDiscoverableAdvEvt_TaskEndOk (ll_advEndCauses)
                                                   llNonConnAdvEvt_TaskEndOk (ll_advEndCauses)
                                                   llSetupNonConnectableAdvEvt (ll_common)
                                                   llSetupScannableAdvEvt (ll_common)
           ENTRY                   ADDRESS         REF BY
           =====                   =======         ======
           RFD                     000000D9 
    -------------------------------------------------------------------------
SFR_AN
  Relative segment, address: DATA 000000E1 - 000000E1 (0x1 bytes), align: 0
  Segment part 11. ROOT.      Intra module refs:   LL_ENC_GenerateTrueRandNum (ll_enc)
                                                   LL_PowerOnReq (ll_sleep)
                                                   LL_Reset
                                                   LL_SetAdvControl
                                                   llAdvEvt_TaskAbort (ll_advEndCauses)
                                                   llDiscoverableAdvEvt_TaskEndOk (ll_advEndCauses)
                                                   llNonConnAdvEvt_TaskEndOk (ll_advEndCauses)
                                                   llScheduleTask (ll_scheduler)
                                                   llSetupAdv (ll_common)
                                                   llSetupNonConnectableAdvEvt (ll_common)
                                                   llSetupScannableAdvEvt (ll_common)
           ENTRY                   ADDRESS         REF BY
           =====                   =======         ======
           RFST                    000000E1 
    -------------------------------------------------------------------------
SFR_AN
  Relative segment, address: DATA 000000F2 - 000000F2 (0x1 bytes), align: 0
  Segment part 12. ROOT.
           ENTRY                   ADDRESS         REF BY
           =====                   =======         ======
           APCFG                   000000F2 
    -------------------------------------------------------------------------
XDATA_Z
  Relative segment, address: XDATA 000002BD - 000002C2 (0x6 bytes), align: 0
  Segment part 24.            Intra module refs:   LL_EXT_SetBDADDR
                                                   LL_Init
                                                   LL_ReadBDADDR
                                                   LL_SetAdvParam
           ENTRY                   ADDRESS         REF BY
           =====                   =======         ======
           ownPublicAddr           000002BD 
    -------------------------------------------------------------------------
XDATA_Z
  Relative segment, address: XDATA 000002C3 - 000002C8 (0x6 bytes), align: 0
  Segment part 25.            Intra module refs:   LL_Init
                                                   LL_SetAdvParam
           ENTRY                   ADDRESS         REF BY
           =====                   =======         ======
           ownRandomAddr           000002C3 
    -------------------------------------------------------------------------
XDATA_Z
  Relative segment, address: XDATA 000002C9 - 000002CE (0x6 bytes), align: 0
  Segment part 26.            Intra module refs:   LL_EXT_SetBDADDR
                                                   LL_Init
           ENTRY                   ADDRESS         REF BY
           =====                   =======         ======
           ownSavedPublicAddr      000002C9 
    -------------------------------------------------------------------------
XDATA_Z
  Relative segment, address: XDATA 000002CF - 000002CF (0x1 bytes), align: 0
  Segment part 27.            Intra module refs:   LL_Init
                                                   LL_ProcessEvent
                                                   LL_SetAdvControl
           ENTRY                   ADDRESS         REF BY
           =====                   =======         ======
           LL_TaskID               000002CF        LL_PowerOnReq (ll_sleep)
                                                   RF_NormalIsr (ll_isr)
                                                   llScheduleTask (ll_scheduler)
                                                   llT2OVFC1_ISR (ll_isr)
    -------------------------------------------------------------------------
XDATA_Z
  Relative segment, address: XDATA 000002D0 - 000002D0 (0x1 bytes), align: 0
  Segment part 28.            Intra module refs:   LL_EXT_SetBDADDR
                                                   LL_Reset
                                                   LL_SetAdvControl
           ENTRY                   ADDRESS         REF BY
           =====                   =======         ======
           llState                 000002D0        LL_TimeToNextRfEvent (ll_sleep)
                                                   RF_NormalIsr (ll_isr)
                                                   llFreeTask (ll_scheduler)
                                                   llScheduler (ll_scheduler)
                                                   llSetupNonConnectableAdvEvt (ll_common)
                                                   llSetupScannableAdvEvt (ll_common)
                                                   llT2OVFC1_ISR (ll_isr)
    -------------------------------------------------------------------------
XDATA_Z
  Relative segment, address: XDATA 000002D1 - 000002D1 (0x1 bytes), align: 0
  Segment part 29.            Intra module refs:   LL_ProcessEvent
           ENTRY                   ADDRESS         REF BY
           =====                   =======         ======
           taskEndCause            000002D1        RF_NormalIsr (ll_isr)
    -------------------------------------------------------------------------
XDATA_Z
  Relative segment, address: XDATA 000002D2 - 000002D3 (0x2 bytes), align: 0
  Segment part 30.            Intra module refs:   LL_Reset
           ENTRY                   ADDRESS         REF BY
           =====                   =======         ======
           postRfOperations        000002D2        llProcessPostRfOps (ll_common)
    -------------------------------------------------------------------------
XDATA_Z
  Relative segment, address: XDATA 000002D4 - 000002D4 (0x1 bytes), align: 0
  Segment part 31.
           ENTRY                   ADDRESS         REF BY
           =====                   =======         ======
           rssiCorrection          000002D4        llExtendRfRange (ll_common)
                                                   llProcessPostRfOps (ll_common)
                                                   llRfInit (ll_common)
    -------------------------------------------------------------------------
XDATA_Z
  Relative segment, address: XDATA 000002D5 - 000002D5 (0x1 bytes), align: 0
  Segment part 32.            Intra module refs:   LL_Reset
           ENTRY                   ADDRESS         REF BY
           =====                   =======         ======
           clkDivOnHalt            000002D5        llT2OVFC1_ISR (ll_isr)
    -------------------------------------------------------------------------
XDATA_Z
  Relative segment, address: XDATA 000002D6 - 000002D6 (0x1 bytes), align: 0
  Segment part 33.            Intra module refs:   LL_ProcessEvent
                                                   LL_Reset
                                                   LL_SetAdvControl
           ENTRY                   ADDRESS         REF BY
           =====                   =======         ======
           nvInUse                 000002D6        llScheduleTask (ll_scheduler)
                                                   llT2OVFC1_ISR (ll_isr)
    -------------------------------------------------------------------------
XDATA_Z
  Relative segment, address: XDATA 000002D7 - 000002DF (0x9 bytes), align: 0
  Segment part 35.
           ENTRY                   ADDRESS         REF BY
           =====                   =======         ======
           deviceFeatureSet        000002D7        llInitFeatureSet (ll_common)
    -------------------------------------------------------------------------
XDATA_Z
  Relative segment, address: XDATA 000002E0 - 000002E0 (0x1 bytes), align: 0
  Segment part 36.            Intra module refs:   LL_Reset
           ENTRY                   ADDRESS         REF BY
           =====                   =======         ======
           maxTxPwrForDTM          000002E0 
    -------------------------------------------------------------------------
XDATA_Z
  Relative segment, address: XDATA 000002E1 - 000002E5 (0x5 bytes), align: 0
  Segment part 37.            Intra module refs:   LL_Init
           ENTRY                   ADDRESS         REF BY
           =====                   =======         ======
           verInfo                 000002E1 
    -------------------------------------------------------------------------
XDATA_Z
  Relative segment, address: XDATA 000002E6 - 000002E7 (0x2 bytes), align: 0
  Segment part 39.            Intra module refs:   LL_Init
           ENTRY                   ADDRESS         REF BY
           =====                   =======         ======
           buildInfo               000002E6 
    -------------------------------------------------------------------------
XDATA_Z
  Relative segment, address: XDATA 000002E8 - 0000033C (0x55 bytes), align: 0
  Segment part 40.            Intra module refs:   LL_Init
                                                   LL_Reset
                                                   LL_SetAdvControl
                                                   LL_SetAdvData
                                                   LL_SetAdvParam
                                                   LL_SetScanRspData
           ENTRY                   ADDRESS         REF BY
           =====                   =======         ======
           advInfo                 000002E8        llAdvEvt_TaskAbort (ll_advEndCauses)
                                                   llDiscoverableAdvEvt_TaskEndOk (ll_advEndCauses)
                                                   llNonConnAdvEvt_TaskEndOk (ll_advEndCauses)
                                                   llSetupAdv (ll_common)
                                                   llSetupNonConnectableAdvEvt (ll_common)
                                                   llSetupScannableAdvEvt (ll_common)
                                                   llStartAdvSetup (ll_common)
    -------------------------------------------------------------------------
XDATA_Z
  Relative segment, address: XDATA 0000033D - 0000033E (0x2 bytes), align: 0
  Segment part 41.            Intra module refs:   LL_Init
           ENTRY                   ADDRESS         REF BY
           =====                   =======         ======
           dcdcData                0000033D        LL_PowerOffReq (ll_sleep)
                                                   LL_PowerOnReq (ll_sleep)
    -------------------------------------------------------------------------
XDATA_Z
  Relative segment, address: XDATA 0000033F - 0000033F (0x1 bytes), align: 0
  Segment part 42.            Intra module refs:   LL_Init
           ENTRY                   ADDRESS         REF BY
           =====                   =======         ======
           extendRfRange           0000033F        LL_PowerOffReq (ll_sleep)
                                                   LL_PowerOnReq (ll_sleep)
                                                   llExtendRfRange (ll_common)
                                                   llProcessPostRfOps (ll_common)
                                                   llRfInit (ll_common)
    -------------------------------------------------------------------------
XDATA_Z
  Relative segment, address: XDATA 00000340 - 00000340 (0x1 bytes), align: 0
  Segment part 43.            Intra module refs:   LL_Reset
           ENTRY                   ADDRESS         REF BY
           =====                   =======         ======
           rxFifoFlowCtrl          00000340 
    -------------------------------------------------------------------------
XDATA_Z
  Relative segment, address: XDATA 00000341 - 00000341 (0x1 bytes), align: 0
  Segment part 44.            Intra module refs:   LL_Init
           ENTRY                   ADDRESS         REF BY
           =====                   =======         ======
           haltDuringRf            00000341        llScheduleTask (ll_scheduler)
                                                   llT2OVFC1_ISR (ll_isr)
    -------------------------------------------------------------------------
XDATA_Z
  Relative segment, address: XDATA 00000342 - 00000343 (0x2 bytes), align: 0
  Segment part 45.            Intra module refs:   LL_Init
                                                   LL_ProcessEvent
           ENTRY                   ADDRESS         REF BY
           =====                   =======         ======
           sleepDelay              00000342 
    -------------------------------------------------------------------------
XDATA_I
  Relative segment, address: XDATA 000004C3 - 000004D0 (0xe bytes), align: 0
  Segment part 46.            Intra module refs:   LL_ProcessEvent
           ENTRY                   ADDRESS         REF BY
           =====                   =======         ======
           taskEndCauses           000004C3        llSetupNonConnectableAdvEvt (ll_common)
                                                   llSetupScannableAdvEvt (ll_common)
    -------------------------------------------------------------------------
XDATA_I
  Relative segment, address: XDATA 000004D1 - 000004DC (0xc bytes), align: 0
  Segment part 48.            Intra module refs:   LL_ProcessEvent
           ENTRY                   ADDRESS         REF BY
           =====                   =======         ======
           taskErrorEndCauses      000004D1        llSetupNonConnectableAdvEvt (ll_common)
                                                   llSetupScannableAdvEvt (ll_common)
    -------------------------------------------------------------------------
XDATA_Z
  Relative segment, address: XDATA 00000344 - 00000344 (0x1 bytes), align: 0
  Segment part 51.            Intra module refs:   LL_Init
           ENTRY                   ADDRESS         REF BY
           =====                   =======         ======
           trngCounter             00000344        RF_NormalIsr (ll_isr)
    -------------------------------------------------------------------------
IDATA_Z
  Relative segment, address: IDATA 0000001D - 0000001E (0x2 bytes), align: 0
  Segment part 52. ROOT.      Intra module refs:   LL_Init
           ENTRY                   ADDRESS         REF BY
           =====                   =======         ======
           myPC                    0000001D        RF_NormalIsr (ll_isr)
    -------------------------------------------------------------------------
<BANKED_CODE,CODE_C> 1 (was BANKED_CODE)
  Relative segment, address: CODE 00001468 - 0000163C (0x1d5 bytes), align: 0
  Segment part 53.            Intra module refs:   LL_Init::?relay
           ENTRY                   ADDRESS         REF BY
           =====                   =======         ======
           LL_Init                 00001468 
               calls direct
               XSTACK = 00000000 ( 0000000E )
               ISTACK = 00000000 ( 00000001 )
    -------------------------------------------------------------------------
<BANKED_CODE,CODE_C> 1 (was BANKED_CODE)
  Relative segment, address: CODE 0000163D - 00001719 (0xdd bytes), align: 0
  Segment part 55.            Intra module refs:   LL_ProcessEvent::?relay
           ENTRY                   ADDRESS         REF BY
           =====                   =======         ======
           LL_ProcessEvent         0000163D 
               calls direct
               XSTACK = 00000000 ( 00000010 )
    -------------------------------------------------------------------------
<BANKED_CODE,CODE_C> 1 (was BANKED_CODE)
  Relative segment, address: CODE 0000171A - 000017BD (0xa4 bytes), align: 0
  Segment part 61.            Intra module refs:   LL_Reset::?relay
           ENTRY                   ADDRESS         REF BY
           =====                   =======         ======
           LL_Reset                0000171A 
               calls direct
               XSTACK = 0000000C ( 00000000 )
               ISTACK = 00000000 ( 00000002 )
    -------------------------------------------------------------------------
<BANKED_CODE,CODE_C> 1 (was BANKED_CODE)
  Relative segment, address: CODE 000017BE - 00001808 (0x4b bytes), align: 0
  Segment part 63.            Intra module refs:   LL_ReadBDADDR::?relay
           ENTRY                   ADDRESS         REF BY
           =====                   =======         ======
           LL_ReadBDADDR           000017BE 
               ISTACK = 00000000 ( 00000003 )
    -------------------------------------------------------------------------
<BANKED_CODE,CODE_C> 1 (was BANKED_CODE)
  Relative segment, address: CODE 00001809 - 0000180D (0x5 bytes), align: 0
  Segment part 81.            Intra module refs:   LL_Init
                                                   LL_ProcessEvent
    -------------------------------------------------------------------------
<BANKED_CODE,CODE_C> 1 (was BANKED_CODE)
  Relative segment, address: CODE 0000180E - 00001812 (0x5 bytes), align: 0
  Segment part 98.            Intra module refs:   LL_SetAdvParam
    -------------------------------------------------------------------------
<BANKED_CODE,CODE_C> 1 (was BANKED_CODE)
  Relative segment, address: CODE 00001813 - 00001817 (0x5 bytes), align: 0
  Segment part 101.           Intra module refs:   LL_SetAdvData
                                                   LL_SetScanRspData
    -------------------------------------------------------------------------
<BANKED_CODE,CODE_C> 1 (was BANKED_CODE)
  Relative segment, address: CODE 00001818 - 000019B7 (0x1a0 bytes), align: 0
  Segment part 102.           Intra module refs:   LL_SetAdvParam::?relay
           ENTRY                   ADDRESS         REF BY
           =====                   =======         ======
           LL_SetAdvParam          00001818 
               calls direct
               XSTACK = 00000006 ( 00000009 )
    -------------------------------------------------------------------------
<BANKED_CODE,CODE_C> 1 (was BANKED_CODE)
  Relative segment, address: CODE 000019B8 - 000019F8 (0x41 bytes), align: 0
  Segment part 104.           Intra module refs:   LL_SetAdvData::?relay
           ENTRY                   ADDRESS         REF BY
           =====                   =======         ======
           LL_SetAdvData           000019B8 
               calls direct
               XSTACK = 00000000 ( 0000000C )
    -------------------------------------------------------------------------
<BANKED_CODE,CODE_C> 1 (was BANKED_CODE)
  Relative segment, address: CODE 000019F9 - 00001B98 (0x1a0 bytes), align: 0
  Segment part 106.           Intra module refs:   LL_SetAdvControl::?relay
           ENTRY                   ADDRESS         REF BY
           =====                   =======         ======
           LL_SetAdvControl        000019F9 
               calls direct
               XSTACK = 00000000 ( 00000010 )
    -------------------------------------------------------------------------
<BANKED_CODE,CODE_C> 1 (was BANKED_CODE)
  Relative segment, address: CODE 00001B99 - 00001BD9 (0x41 bytes), align: 0
  Segment part 110.           Intra module refs:   LL_SetScanRspData::?relay
           ENTRY                   ADDRESS         REF BY
           =====                   =======         ======
           LL_SetScanRspData       00001B99 
               calls direct
               XSTACK = 00000000 ( 0000000C )
    -------------------------------------------------------------------------
<BANKED_CODE,CODE_C> 1 (was BANKED_CODE)
  Relative segment, address: CODE 00001BDA - 00001BDA (0x1 bytes), align: 0
  Segment part 121.           Intra module refs:   LL_ReadBDADDR
    -------------------------------------------------------------------------
<BANKED_CODE,CODE_C> 1 (was BANKED_CODE)
  Relative segment, address: CODE 00001BDB - 00001BDC (0x2 bytes), align: 0
  Segment part 122.           Intra module refs:   Segment part 121
    -------------------------------------------------------------------------
<BANKED_CODE,CODE_C> 1 (was BANKED_CODE)
  Relative segment, address: CODE 00001BDD - 00001BE3 (0x7 bytes), align: 0
  Segment part 123.           Intra module refs:   LL_EXT_SetBDADDR
                                                   LL_Reset
                                                   Segment part 122
    -------------------------------------------------------------------------
<BANKED_CODE,CODE_C> 1 (was BANKED_CODE)
  Relative segment, address: CODE 00001BE4 - 00001CDD (0xfa bytes), align: 0
  Segment part 136.           Intra module refs:   LL_EXT_SetBDADDR::?relay
           ENTRY                   ADDRESS         REF BY
           =====                   =======         ======
           LL_EXT_SetBDADDR        00001BE4 
               ISTACK = 00000000 ( 00000002 )
    -------------------------------------------------------------------------
XDATA_ID
  Relative segment, address: CODE 000001E6 - 000001F3 (0xe bytes), align: 0
  Segment part 47.            Intra module refs:   taskEndCauses
    -------------------------------------------------------------------------
XDATA_ID
  Relative segment, address: CODE 000001F4 - 000001FF (0xc bytes), align: 0
  Segment part 49.            Intra module refs:   taskErrorEndCauses
    -------------------------------------------------------------------------
BANK_RELAYS
  Relative segment, address: CODE 00000352 - 00000357 (0x6 bytes), align: 0
  Segment part 54.
           ENTRY                   ADDRESS         REF BY
           =====                   =======         ======
           LL_Init::?relay         00000352        osalInitTasks (OSAL_BAT_MON)
    -------------------------------------------------------------------------
BANK_RELAYS
  Relative segment, address: CODE 00000358 - 0000035D (0x6 bytes), align: 0
  Segment part 56.
           ENTRY                   ADDRESS         REF BY
           =====                   =======         ======
           LL_ProcessEvent::?relay
                                   00000358        tasksArr (OSAL_BAT_MON)
    -------------------------------------------------------------------------
BANK_RELAYS
  Relative segment, address: CODE 0000035E - 00000363 (0x6 bytes), align: 0
  Segment part 62.            Intra module refs:   LL_Init
           ENTRY                   ADDRESS         REF BY
           =====                   =======         ======
           LL_Reset::?relay        0000035E 
    -------------------------------------------------------------------------
BANK_RELAYS
  Relative segment, address: CODE 00000364 - 00000369 (0x6 bytes), align: 0
  Segment part 64.
           ENTRY                   ADDRESS         REF BY
           =====                   =======         ======
           LL_ReadBDADDR::?relay   00000364        HCI_ReadBDADDRCmd (hci)
    -------------------------------------------------------------------------
BANK_RELAYS
  Relative segment, address: CODE 0000036A - 0000036F (0x6 bytes), align: 0
  Segment part 103.
           ENTRY                   ADDRESS         REF BY
           =====                   =======         ======
           LL_SetAdvParam::?relay
                                   0000036A        HCI_LE_SetAdvParamCmd (hci)
    -------------------------------------------------------------------------
BANK_RELAYS
  Relative segment, address: CODE 00000370 - 00000375 (0x6 bytes), align: 0
  Segment part 105.
           ENTRY                   ADDRESS         REF BY
           =====                   =======         ======
           LL_SetAdvData::?relay   00000370        HCI_LE_SetAdvDataCmd (hci)
    -------------------------------------------------------------------------
BANK_RELAYS
  Relative segment, address: CODE 00000376 - 0000037B (0x6 bytes), align: 0
  Segment part 107.
           ENTRY                   ADDRESS         REF BY
           =====                   =======         ======
           LL_SetAdvControl::?relay
                                   00000376        HCI_LE_SetAdvEnableCmd (hci)
    -------------------------------------------------------------------------
BANK_RELAYS
  Relative segment, address: CODE 0000037C - 00000381 (0x6 bytes), align: 0
  Segment part 111.
           ENTRY                   ADDRESS         REF BY
           =====                   =======         ======
           LL_SetScanRspData::?relay
                                   0000037C        HCI_LE_SetScanRspDataCmd (hci)
    -------------------------------------------------------------------------
BANK_RELAYS
  Relative segment, address: CODE 00000382 - 00000387 (0x6 bytes), align: 0
  Segment part 137.
           ENTRY                   ADDRESS         REF BY
           =====                   =======         ======
           LL_EXT_SetBDADDR::?relay
                                   00000382        HCI_EXT_SetBDADDRCmd (hci)

    -------------------------------------------------------------------------
  LIBRARY MODULE, NAME : ll_advEndCauses

  SEGMENTS IN THE MODULE
  ======================
<BANKED_CODE,CODE_C> 1 (was BANKED_CODE)
  Relative segment, address: CODE 00004670 - 00004832 (0x1c3 bytes), align: 0
  Segment part 9.             Intra module refs:   llDiscoverableAdvEvt_TaskEndOk::?relay
           ENTRY                   ADDRESS         REF BY
           =====                   =======         ======
           llDiscoverableAdvEvt_TaskEndOk
                                   00004670 
               calls direct
               XSTACK = 00000000 ( 00000010 )
    -------------------------------------------------------------------------
<BANKED_CODE,CODE_C> 1 (was BANKED_CODE)
  Relative segment, address: CODE 00004833 - 0000483A (0x8 bytes), align: 0
  Segment part 11.            Intra module refs:   llDiscoverableAdvEvt_TaskEndOk
                                                   llNonConnAdvEvt_TaskEndOk
    -------------------------------------------------------------------------
<BANKED_CODE,CODE_C> 1 (was BANKED_CODE)
  Relative segment, address: CODE 0000483B - 000049A2 (0x168 bytes), align: 0
  Segment part 12.            Intra module refs:   llNonConnAdvEvt_TaskEndOk::?relay
           ENTRY                   ADDRESS         REF BY
           =====                   =======         ======
           llNonConnAdvEvt_TaskEndOk
                                   0000483B 
               calls direct
               XSTACK = 00000000 ( 00000010 )
    -------------------------------------------------------------------------
<BANKED_CODE,CODE_C> 1 (was BANKED_CODE)
  Relative segment, address: CODE 000049A3 - 000049CC (0x2a bytes), align: 0
  Segment part 14.            Intra module refs:   llAdvEvt_TaskAbort::?relay
           ENTRY                   ADDRESS         REF BY
           =====                   =======         ======
           llAdvEvt_TaskAbort      000049A3 
               calls direct
               ISTACK = 00000000 ( 00000002 )
    -------------------------------------------------------------------------
BANK_RELAYS
  Relative segment, address: CODE 00000388 - 0000038D (0x6 bytes), align: 0
  Segment part 10.
           ENTRY                   ADDRESS         REF BY
           =====                   =======         ======
           llDiscoverableAdvEvt_TaskEndOk::?relay
                                   00000388        llSetupScannableAdvEvt (ll_common)
    -------------------------------------------------------------------------
BANK_RELAYS
  Relative segment, address: CODE 0000038E - 00000393 (0x6 bytes), align: 0
  Segment part 13.
           ENTRY                   ADDRESS         REF BY
           =====                   =======         ======
           llNonConnAdvEvt_TaskEndOk::?relay
                                   0000038E        llSetupNonConnectableAdvEvt (ll_common)
    -------------------------------------------------------------------------
BANK_RELAYS
  Relative segment, address: CODE 00000394 - 00000399 (0x6 bytes), align: 0
  Segment part 15.
           ENTRY                   ADDRESS         REF BY
           =====                   =======         ======
           llAdvEvt_TaskAbort::?relay
                                   00000394        llSetupNonConnectableAdvEvt (ll_common)
                                                   llSetupScannableAdvEvt (ll_common)

    -------------------------------------------------------------------------
  LIBRARY MODULE, NAME : ll_common

  SEGMENTS IN THE MODULE
  ======================
SFR_AN
  Relative segment, address: DATA 00000088 - 00000088 (0x1 bytes), align: 0
  Segment part 1. ROOT.       Intra module refs:   llClearSetInts
           ENTRY                   ADDRESS         REF BY
           =====                   =======         ======
           _A_TCON                 00000088 
    -------------------------------------------------------------------------
SFR_AN
  Relative segment, address: DATA 0000009E - 0000009E (0x1 bytes), align: 0
  Segment part 6. ROOT.       Intra module refs:   LL_PowerOffReq (ll_sleep)
                                                   LL_PowerOnReq (ll_sleep)
                                                   llRfInit
                                                   llSetFreqTune
           ENTRY                   ADDRESS         REF BY
           =====                   =======         ======
           CLKCONSTA               0000009E 
    -------------------------------------------------------------------------
SFR_AN
  Relative segment, address: DATA 000000A9 - 000000A9 (0x1 bytes), align: 0
  Segment part 8. ROOT.       Intra module refs:   llClearSetInts
           ENTRY                   ADDRESS         REF BY
           =====                   =======         ======
           IP0                     000000A9 
    -------------------------------------------------------------------------
SFR_AN
  Relative segment, address: DATA 000000AF - 000000AF (0x1 bytes), align: 0
  Segment part 9. ROOT.
           ENTRY                   ADDRESS         REF BY
           =====                   =======         ======
           T1STAT                  000000AF 
    -------------------------------------------------------------------------
SFR_AN
  Relative segment, address: DATA 000000B9 - 000000B9 (0x1 bytes), align: 0
  Segment part 11. ROOT.      Intra module refs:   llClearSetInts
           ENTRY                   ADDRESS         REF BY
           =====                   =======         ======
           IP1                     000000B9 
    -------------------------------------------------------------------------
SFR_AN
  Relative segment, address: DATA 000000DA - 000000DA (0x1 bytes), align: 0
  Segment part 16. ROOT.
           ENTRY                   ADDRESS         REF BY
           =====                   =======         ======
           T1CC0L                  000000DA 
    -------------------------------------------------------------------------
SFR_AN
  Relative segment, address: DATA 000000DB - 000000DB (0x1 bytes), align: 0
  Segment part 17. ROOT.
           ENTRY                   ADDRESS         REF BY
           =====                   =======         ======
           T1CC0H                  000000DB 
    -------------------------------------------------------------------------
SFR_AN
  Relative segment, address: DATA 000000E2 - 000000E2 (0x1 bytes), align: 0
  Segment part 19. ROOT.
           ENTRY                   ADDRESS         REF BY
           =====                   =======         ======
           T1CNTL                  000000E2 
    -------------------------------------------------------------------------
SFR_AN
  Relative segment, address: DATA 000000E3 - 000000E3 (0x1 bytes), align: 0
  Segment part 20. ROOT.
           ENTRY                   ADDRESS         REF BY
           =====                   =======         ======
           T1CNTH                  000000E3 
    -------------------------------------------------------------------------
SFR_AN
  Relative segment, address: DATA 000000E4 - 000000E4 (0x1 bytes), align: 0
  Segment part 21. ROOT.
           ENTRY                   ADDRESS         REF BY
           =====                   =======         ======
           T1CTL                   000000E4 
    -------------------------------------------------------------------------
SFR_AN
  Relative segment, address: DATA 000000E5 - 000000E5 (0x1 bytes), align: 0
  Segment part 22. ROOT.
           ENTRY                   ADDRESS         REF BY
           =====                   =======         ======
           T1CCTL0                 000000E5 
    -------------------------------------------------------------------------
<BANKED_CODE,CODE_C> 1 (was BANKED_CODE)
  Relative segment, address: CODE 00001CDE - 00001D8B (0xae bytes), align: 0
  Segment part 33.            Intra module refs:   llRfInit::?relay
           ENTRY                   ADDRESS         REF BY
           =====                   =======         ======
           llRfInit                00001CDE 
               calls direct
               ISTACK = 00000000 ( 00000002 )
    -------------------------------------------------------------------------
<BANKED_CODE,CODE_C> 1 (was BANKED_CODE)
  Relative segment, address: CODE 00001D8C - 00001DB7 (0x2c bytes), align: 0
  Segment part 35.            Intra module refs:   llSetFreqTune::?relay
           ENTRY                   ADDRESS         REF BY
           =====                   =======         ======
           llSetFreqTune           00001D8C 
               ISTACK = 00000000 ( 00000002 )
    -------------------------------------------------------------------------
<BANKED_CODE,CODE_C> 1 (was BANKED_CODE)
  Relative segment, address: CODE 00001DB8 - 00001DFC (0x45 bytes), align: 0
  Segment part 37.            Intra module refs:   llClearSetInts::?relay
           ENTRY                   ADDRESS         REF BY
           =====                   =======         ======
           llClearSetInts          00001DB8 
               ISTACK = 00000000 ( 00000002 )
    -------------------------------------------------------------------------
<BANKED_CODE,CODE_C> 1 (was BANKED_CODE)
  Relative segment, address: CODE 00001DFD - 00001DFE (0x2 bytes), align: 0
  Segment part 39.            Intra module refs:   llStartAdvSetup
    -------------------------------------------------------------------------
<BANKED_CODE,CODE_C> 1 (was BANKED_CODE)
  Relative segment, address: CODE 00001DFF - 00001DFF (0x1 bytes), align: 0
  Segment part 40.            Intra module refs:   Segment part 39
                                                   llExtendRfRange
                                                   llInitFeatureSet
    -------------------------------------------------------------------------
<BANKED_CODE,CODE_C> 1 (was BANKED_CODE)
  Relative segment, address: CODE 00001E00 - 00001E06 (0x7 bytes), align: 0
  Segment part 41.            Intra module refs:   Segment part 40
                                                   llClearSetInts
                                                   llProcessPostRfOps
                                                   llRfInit
                                                   llSetFreqTune
                                                   llSetupAdv
    -------------------------------------------------------------------------
<BANKED_CODE,CODE_C> 1 (was BANKED_CODE)
  Relative segment, address: CODE 00001E07 - 00001F27 (0x121 bytes), align: 0
  Segment part 48.            Intra module refs:   llProcessPostRfOps::?relay
           ENTRY                   ADDRESS         REF BY
           =====                   =======         ======
           llProcessPostRfOps      00001E07 
               calls direct
               XSTACK = 00000000 ( 00000008 )
               ISTACK = 00000000 ( 00000002 )
    -------------------------------------------------------------------------
<BANKED_CODE,CODE_C> 1 (was BANKED_CODE)
  Relative segment, address: CODE 00001F28 - 000020B8 (0x191 bytes), align: 0
  Segment part 56.            Intra module refs:   llFindTxPowerSettings::?relay
           ENTRY                   ADDRESS         REF BY
           =====                   =======         ======
           llFindTxPowerSettings   00001F28 
               calls direct
               XSTACK = 00000000 ( 00000022 )
               ISTACK = 00000000 ( 00000002 )
    -------------------------------------------------------------------------
<BANKED_CODE,CODE_C> 1 (was BANKED_CODE)
  Relative segment, address: CODE 000020B9 - 000020BD (0x5 bytes), align: 0
  Segment part 58.            Intra module refs:   llFindTxPowerSettings
    -------------------------------------------------------------------------
<BANKED_CODE,CODE_C> 1 (was BANKED_CODE)
  Relative segment, address: CODE 000020BE - 00002132 (0x75 bytes), align: 0
  Segment part 59.            Intra module refs:   llExtendRfRange::?relay
           ENTRY                   ADDRESS         REF BY
           =====                   =======         ======
           llExtendRfRange         000020BE 
               XSTACK = 00000008 ( 00000000 )
               ISTACK = 00000000 ( 00000002 )
    -------------------------------------------------------------------------
<BANKED_CODE,CODE_C> 1 (was BANKED_CODE)
  Relative segment, address: CODE 00002133 - 0000219C (0x6a bytes), align: 0
  Segment part 65.            Intra module refs:   llSetupAdv::?relay
           ENTRY                   ADDRESS         REF BY
           =====                   =======         ======
           llSetupAdv              00002133 
               calls direct
               ISTACK = 00000000 ( 00000002 )
    -------------------------------------------------------------------------
<BANKED_CODE,CODE_C> 1 (was BANKED_CODE)
  Relative segment, address: CODE 0000219D - 000022A1 (0x105 bytes), align: 0
  Segment part 67.            Intra module refs:   llSetupNonConnectableAdvEvt::?relay
           ENTRY                   ADDRESS         REF BY
           =====                   =======         ======
           llSetupNonConnectableAdvEvt
                                   0000219D 
               XSTACK = 00000000 ( 00000009 )
    -------------------------------------------------------------------------
<BANKED_CODE,CODE_C> 1 (was BANKED_CODE)
  Relative segment, address: CODE 000022A2 - 00002401 (0x160 bytes), align: 0
  Segment part 69.            Intra module refs:   llSetupScannableAdvEvt::?relay
           ENTRY                   ADDRESS         REF BY
           =====                   =======         ======
           llSetupScannableAdvEvt
                                   000022A2 
               XSTACK = 00000000 ( 00000009 )
    -------------------------------------------------------------------------
<BANKED_CODE,CODE_C> 1 (was BANKED_CODE)
  Relative segment, address: CODE 00002402 - 0000241A (0x19 bytes), align: 0
  Segment part 75.            Intra module refs:   llStartAdvSetup::?relay
           ENTRY                   ADDRESS         REF BY
           =====                   =======         ======
           llStartAdvSetup         00002402 
               is indirectly called
               ISTACK = 00000000 ( 00000002 )
    -------------------------------------------------------------------------
<BANKED_CODE,CODE_C> 1 (was BANKED_CODE)
  Relative segment, address: CODE 0000241B - 0000241B (0x1 bytes), align: 0
  Segment part 87.            Intra module refs:   llSetupNonConnectableAdvEvt
                                                   llSetupScannableAdvEvt
    -------------------------------------------------------------------------
<BANKED_CODE,CODE_C> 1 (was BANKED_CODE)
  Relative segment, address: CODE 0000241C - 00002420 (0x5 bytes), align: 0
  Segment part 88.            Intra module refs:   Segment part 87
    -------------------------------------------------------------------------
<BANKED_CODE,CODE_C> 1 (was BANKED_CODE)
  Relative segment, address: CODE 00002421 - 0000244A (0x2a bytes), align: 0
  Segment part 120.           Intra module refs:   llInitFeatureSet::?relay
           ENTRY                   ADDRESS         REF BY
           =====                   =======         ======
           llInitFeatureSet        00002421 
               ISTACK = 00000000 ( 00000002 )
    -------------------------------------------------------------------------
BANK_RELAYS
  Relative segment, address: CODE 0000039A - 0000039F (0x6 bytes), align: 0
  Segment part 34.
           ENTRY                   ADDRESS         REF BY
           =====                   =======         ======
           llRfInit::?relay        0000039A        LL_ENC_GenerateTrueRandNum (ll_enc)
                                                   LL_Reset (ll)
    -------------------------------------------------------------------------
BANK_RELAYS
  Relative segment, address: CODE 000003A0 - 000003A5 (0x6 bytes), align: 0
  Segment part 36.
           ENTRY                   ADDRESS         REF BY
           =====                   =======         ======
           llSetFreqTune::?relay   000003A0        LL_PowerOnReq (ll_sleep)
    -------------------------------------------------------------------------
BANK_RELAYS
  Relative segment, address: CODE 000003A6 - 000003AB (0x6 bytes), align: 0
  Segment part 38.
           ENTRY                   ADDRESS         REF BY
           =====                   =======         ======
           llClearSetInts::?relay
                                   000003A6        LL_Reset (ll)
    -------------------------------------------------------------------------
BANK_RELAYS
  Relative segment, address: CODE 000003AC - 000003B1 (0x6 bytes), align: 0
  Segment part 49.
           ENTRY                   ADDRESS         REF BY
           =====                   =======         ======
           llProcessPostRfOps::?relay
                                   000003AC        RF_NormalIsr (ll_isr)
                                                   llScheduler (ll_scheduler)
    -------------------------------------------------------------------------
BANK_RELAYS
  Relative segment, address: CODE 000003B2 - 000003B7 (0x6 bytes), align: 0
  Segment part 57.
           ENTRY                   ADDRESS         REF BY
           =====                   =======         ======
           llFindTxPowerSettings::?relay
                                   000003B2        LL_Init (ll)
    -------------------------------------------------------------------------
BANK_RELAYS
  Relative segment, address: CODE 000003B8 - 000003BD (0x6 bytes), align: 0
  Segment part 60.            Intra module refs:   llProcessPostRfOps
           ENTRY                   ADDRESS         REF BY
           =====                   =======         ======
           llExtendRfRange::?relay
                                   000003B8        LL_PowerOnReq (ll_sleep)
    -------------------------------------------------------------------------
BANK_RELAYS
  Relative segment, address: CODE 000003BE - 000003C3 (0x6 bytes), align: 0
  Segment part 66.
           ENTRY                   ADDRESS         REF BY
           =====                   =======         ======
           llSetupAdv::?relay      000003BE        LL_SetAdvControl (ll)
                                                   llScheduler (ll_scheduler)
    -------------------------------------------------------------------------
BANK_RELAYS
  Relative segment, address: CODE 000003C4 - 000003C9 (0x6 bytes), align: 0
  Segment part 68.            Intra module refs:   llSetupAdv
           ENTRY                   ADDRESS         REF BY
           =====                   =======         ======
           llSetupNonConnectableAdvEvt::?relay
                                   000003C4 
    -------------------------------------------------------------------------
BANK_RELAYS
  Relative segment, address: CODE 000003CA - 000003CF (0x6 bytes), align: 0
  Segment part 70.            Intra module refs:   llSetupAdv
           ENTRY                   ADDRESS         REF BY
           =====                   =======         ======
           llSetupScannableAdvEvt::?relay
                                   000003CA 
    -------------------------------------------------------------------------
BANK_RELAYS
  Relative segment, address: CODE 000003D0 - 000003D5 (0x6 bytes), align: 0
  Segment part 76.            Intra module refs:   llSetupAdv
           ENTRY                   ADDRESS         REF BY
           =====                   =======         ======
           llStartAdvSetup::?relay
                                   000003D0        llDiscoverableAdvEvt_TaskEndOk (ll_advEndCauses)
                                                   llNonConnAdvEvt_TaskEndOk (ll_advEndCauses)
    -------------------------------------------------------------------------
BANK_RELAYS
  Relative segment, address: CODE 000003D6 - 000003DB (0x6 bytes), align: 0
  Segment part 121.
           ENTRY                   ADDRESS         REF BY
           =====                   =======         ======
           llInitFeatureSet::?relay
                                   000003D6        LL_Reset (ll)
    -------------------------------------------------------------------------
<XDATA_ROM_C> 1 (was XDATA_ROM_C)
  Relative segment, address: CONST 00008014 - 00008017 (0x4 bytes), align: 0
  Segment part 31.            Intra module refs:   llFindTxPowerSettings
    -------------------------------------------------------------------------
<XDATA_ROM_C> 1 (was XDATA_ROM_C)
  Relative segment, address: CONST 0000800C - 00008013 (0x8 bytes), align: 0
  Segment part 32.            Intra module refs:   llFindTxPowerSettings
    -------------------------------------------------------------------------
<XDATA_ROM_C_FLASH> 1 (was XDATA_ROM_C_FLASH)
  Relative segment, address: CODE 00008014 - 00008017 (0x4 bytes), align: 0
  Segment part 141.           Intra module refs:   Segment part 31
    -------------------------------------------------------------------------
<XDATA_ROM_C_FLASH> 1 (was XDATA_ROM_C_FLASH)
  Relative segment, address: CODE 0000800C - 00008013 (0x8 bytes), align: 0
  Segment part 142.           Intra module refs:   Segment part 32

    -------------------------------------------------------------------------
  LIBRARY MODULE, NAME : ll_constData

  SEGMENTS IN THE MODULE
  ======================
<BANKED_CODE,CODE_C> 1 (was CODE_C)
  Relative segment, address: CODE 00001464 - 00001467 (0x4 bytes), align: 2
  Segment part 6.
           ENTRY                   ADDRESS         REF BY
           =====                   =======         ======
           savedTxPowerSetting     00001464        llFindTxPowerSettings (ll_common)
                                                   llProcessPostRfOps (ll_common)
                                                   llRfInit (ll_common)
    -------------------------------------------------------------------------
<BANKED_CODE,CODE_C> 1 (was CODE_C)
  Relative segment, address: CODE 00001460 - 00001463 (0x4 bytes), align: 2
  Segment part 8.
           ENTRY                   ADDRESS         REF BY
           =====                   =======         ======
           ptmFreqTune             00001460        LL_PowerOnReq (ll_sleep)
                                                   llRfInit (ll_common)

    -------------------------------------------------------------------------
  LIBRARY MODULE, NAME : ll_enc

  SEGMENTS IN THE MODULE
  ======================
SFR_AN
  Relative segment, address: DATA 000000BC - 000000BC (0x1 bytes), align: 0
  Segment part 3. ROOT.       Intra module refs:   LL_ENC_GenerateTrueRandNum
           ENTRY                   ADDRESS         REF BY
           =====                   =======         ======
           RNDL                    000000BC 
    -------------------------------------------------------------------------
SFR_AN
  Relative segment, address: DATA 000000BD - 000000BD (0x1 bytes), align: 0
  Segment part 4. ROOT.       Intra module refs:   LL_ENC_GenerateTrueRandNum
           ENTRY                   ADDRESS         REF BY
           =====                   =======         ======
           RNDH                    000000BD 
    -------------------------------------------------------------------------
SFR_AN
  Relative segment, address: DATA 000000D7 - 000000D7 (0x1 bytes), align: 0
  Segment part 7. ROOT.
           ENTRY                   ADDRESS         REF BY
           =====                   =======         ======
           DMAREQ                  000000D7 
    -------------------------------------------------------------------------
<BANKED_CODE,CODE_C> 1 (was BANKED_CODE)
  Relative segment, address: CODE 00005D3F - 00005D4A (0xc bytes), align: 0
  Segment part 17.            Intra module refs:   LL_ENC_GeneratePseudoRandNum::?relay
           ENTRY                   ADDRESS         REF BY
           =====                   =======         ======
           LL_ENC_GeneratePseudoRandNum
                                   00005D3F 
               ISTACK = 00000000 ( 00000002 )
    -------------------------------------------------------------------------
<BANKED_CODE,CODE_C> 1 (was BANKED_CODE)
  Relative segment, address: CODE 00005D4B - 00005E23 (0xd9 bytes), align: 0
  Segment part 19.            Intra module refs:   LL_ENC_GenerateTrueRandNum::?relay
           ENTRY                   ADDRESS         REF BY
           =====                   =======         ======
           LL_ENC_GenerateTrueRandNum
                                   00005D4B 
               calls direct
               XSTACK = 00000000 ( 0000000B )
               ISTACK = 00000000 ( 00000001 )
    -------------------------------------------------------------------------
<BANKED_CODE,CODE_C> 1 (was BANKED_CODE)
  Relative segment, address: CODE 00005E24 - 00005E28 (0x5 bytes), align: 0
  Segment part 21.            Intra module refs:   LL_ENC_GenerateTrueRandNum
    -------------------------------------------------------------------------
<BANKED_CODE,CODE_C> 1 (was BANKED_CODE)
  Relative segment, address: CODE 00005E29 - 00005E29 (0x1 bytes), align: 0
  Segment part 26.            Intra module refs:   LL_ENC_InitAesDMA
    -------------------------------------------------------------------------
<BANKED_CODE,CODE_C> 1 (was BANKED_CODE)
  Relative segment, address: CODE 00005E2A - 00005E30 (0x7 bytes), align: 0
  Segment part 27.            Intra module refs:   LL_ENC_GeneratePseudoRandNum
                                                   Segment part 26
    -------------------------------------------------------------------------
<BANKED_CODE,CODE_C> 1 (was BANKED_CODE)
  Relative segment, address: CODE 00005E31 - 00005E67 (0x37 bytes), align: 0
  Segment part 28.            Intra module refs:   LL_ENC_InitAesDMA::?relay
           ENTRY                   ADDRESS         REF BY
           =====                   =======         ======
           LL_ENC_InitAesDMA       00005E31 
               ISTACK = 00000000 ( 00000002 )
    -------------------------------------------------------------------------
BANK_RELAYS
  Relative segment, address: CODE 000003DC - 000003E1 (0x6 bytes), align: 0
  Segment part 18.
           ENTRY                   ADDRESS         REF BY
           =====                   =======         ======
           LL_ENC_GeneratePseudoRandNum::?relay
                                   000003DC        llDiscoverableAdvEvt_TaskEndOk (ll_advEndCauses)
                                                   llNonConnAdvEvt_TaskEndOk (ll_advEndCauses)
    -------------------------------------------------------------------------
BANK_RELAYS
  Relative segment, address: CODE 000003E2 - 000003E7 (0x6 bytes), align: 0
  Segment part 20.
           ENTRY                   ADDRESS         REF BY
           =====                   =======         ======
           LL_ENC_GenerateTrueRandNum::?relay
                                   000003E2        LL_Init (ll)
                                                   llProcessPostRfOps (ll_common)
    -------------------------------------------------------------------------
BANK_RELAYS
  Relative segment, address: CODE 000003E8 - 000003ED (0x6 bytes), align: 0
  Segment part 29.
           ENTRY                   ADDRESS         REF BY
           =====                   =======         ======
           LL_ENC_InitAesDMA::?relay
                                   000003E8        LL_Init (ll)

    -------------------------------------------------------------------------
  LIBRARY MODULE, NAME : ll_errorEndCauses

  SEGMENTS IN THE MODULE
  ======================
<BANKED_CODE,CODE_C> 1 (was BANKED_CODE)
  Relative segment, address: CODE 00006650 - 00006652 (0x3 bytes), align: 0
  Segment part 6.             Intra module refs:   llUnexpectedEndCauseHandler::?relay
           ENTRY                   ADDRESS         REF BY
           =====                   =======         ======
           llUnexpectedEndCauseHandler
                                   00006650 
    -------------------------------------------------------------------------
BANK_RELAYS
  Relative segment, address: CODE 000003EE - 000003F3 (0x6 bytes), align: 0
  Segment part 7.
           ENTRY                   ADDRESS         REF BY
           =====                   =======         ======
           llUnexpectedEndCauseHandler::?relay
                                   000003EE        Segment part 47 (ll)
                                                   Segment part 49 (ll)
                                                   llSetupNonConnectableAdvEvt (ll_common)
                                                   llSetupScannableAdvEvt (ll_common)

    -------------------------------------------------------------------------
  PROGRAM MODULE, NAME : ll_halt

  SEGMENTS IN THE MODULE
  ======================
NEAR_CODE
  Relative segment, address: CODE 00000D78 - 00000D7E (0x7 bytes), align: 2
  Segment part 0.
           ENTRY                   ADDRESS         REF BY
           =====                   =======         ======
           HaltMcuUsingPhyFlag     00000D78        llT2OVFC1_ISR (ll_isr)
    -------------------------------------------------------------------------
DATA_Z
  Relative segment, address: DATA 0000001B - 0000001C (0x2 bytes), align: 0
  Segment part 1.             Intra module refs:   HaltMcuUsingPhyFlag
           ENTRY                   ADDRESS         REF BY
           =====                   =======         ======
           phyState                0000001B        LL_Reset (ll)
                                                   RF_NormalIsr (ll_isr)
                                                   llT2OVFC1_ISR (ll_isr)
           clkState                0000001C        llT2OVFC1_ISR (ll_isr)

    -------------------------------------------------------------------------
  PROGRAM MODULE, NAME : ll_isr

  SEGMENTS IN THE MODULE
  ======================
SFR_AN
  Relative segment, address: DATA 00000091 - 00000091 (0x1 bytes), align: 0
  Segment part 1. ROOT.       Intra module refs:   LL_SetAdvControl (ll)
                                                   RF_NormalIsr
                                                   llClearSetInts (ll_common)
                                                   llScheduleTask (ll_scheduler)
           ENTRY                   ADDRESS         REF BY
           =====                   =======         ======
           RFIRQF1                 00000091 
    -------------------------------------------------------------------------
SFR_AN
  Relative segment, address: DATA 0000009B - 0000009B (0x1 bytes), align: 0
  Segment part 2. ROOT.       Intra module refs:   RF_NormalIsr
                                                   llClearSetInts (ll_common)
           ENTRY                   ADDRESS         REF BY
           =====                   =======         ======
           S1CON                   0000009B 
    -------------------------------------------------------------------------
SFR_AN
  Relative segment, address: DATA 0000009F - 0000009F (0x1 bytes), align: 0
  Segment part 3. ROOT.       Intra module refs:   LL_Init (ll)
                                                   RF_NormalIsr
           ENTRY                   ADDRESS         REF BY
           =====                   =======         ======
           FMAP                    0000009F 
    -------------------------------------------------------------------------
SFR_AN
  Relative segment, address: DATA 000000A1 - 000000A1 (0x1 bytes), align: 0
  Segment part 4. ROOT.       Intra module refs:   T2_Isr
                                                   llDisableT2Ints (ll_timer2)
                                                   llDisableT2IntsEvts (ll_timer2)
                                                   llInitTimer2 (ll_timer2)
                                                   llSetT2C1Event1 (ll_timer2)
                                                   llSetT2LongC1Event1 (ll_timer2)
                                                   llSetT2LongC1Timeout (ll_timer2)
                                                   llSetT2OVFC2Event2 (ll_timer2)
           ENTRY                   ADDRESS         REF BY
           =====                   =======         ======
           T2IRQF                  000000A1 
    -------------------------------------------------------------------------
SFR_AN
  Relative segment, address: DATA 000000A7 - 000000A7 (0x1 bytes), align: 0
  Segment part 5. ROOT.       Intra module refs:   T2_Isr
                                                   llDisableT2Ints (ll_timer2)
                                                   llDisableT2IntsEvts (ll_timer2)
                                                   llInitTimer2 (ll_timer2)
                                                   llSetT2C1Event1 (ll_timer2)
                                                   llSetT2LongC1Event1 (ll_timer2)
                                                   llSetT2LongC1Timeout (ll_timer2)
                                                   llSetT2OVFC2Event2 (ll_timer2)
           ENTRY                   ADDRESS         REF BY
           =====                   =======         ======
           T2IRQM                  000000A7 
    -------------------------------------------------------------------------
SFR_AN
  Relative segment, address: DATA 000000A8 - 000000A8 (0x1 bytes), align: 0
  Segment part 6. ROOT.       Intra module refs:   HalFlashRead (hal_flash)
                                                   LL_Init (ll)
                                                   LL_ProcessEvent (ll)
                                                   LL_Reset (ll)
                                                   LL_SetAdvControl (ll)
                                                   Onboard_soft_reset (OnBoard)
                                                   RF_NormalIsr
                                                   halKeyPort0Isr (hal_key)
                                                   halKeyPort2Isr (hal_key)
                                                   halSetSleepMode (hal_sleep)
                                                   halSleep (hal_sleep)
                                                   halSleepSetTimer (hal_sleep)
                                                   halSleepTimerIsr (hal_sleep)
                                                   llClearSetInts (ll_common)
                                                   llDisableT2E1 (ll_timer2)
                                                   llDisableT2Ints (ll_timer2)
                                                   llDisableT2IntsEvts (ll_timer2)
                                                   llGetCurrentTime (ll_timer2)
                                                   llGetFullCTandST (ll_timer2)
                                                   llInitTimer2 (ll_timer2)
                                                   llSetT2C1Event1 (ll_timer2)
                                                   llSetT2LongC1Event1 (ll_timer2)
                                                   llSetT2LongC1Timeout (ll_timer2)
                                                   llSetT2OVFC2Event2 (ll_timer2)
                                                   llStartTimer2 (ll_timer2)
                                                   llStopTimer2 (ll_timer2)
                                                   llT2OVFC1_ISR
                                                   ll_McuPrecisionCount (ll_timer2)
                                                   osalTimerUpdate (OSAL_Timers)
                                                   osal_bm_free (osal_bufmgr)
                                                   osal_clear_event (OSAL)
                                                   osal_mem_alloc (OSAL_Memory)
                                                   osal_mem_free (OSAL_Memory)
                                                   osal_mem_kick (OSAL_Memory)
                                                   osal_msg_enqueue (OSAL)
                                                   osal_msg_extract (OSAL)
                                                   osal_msg_push (OSAL)
                                                   osal_msg_receive (OSAL)
                                                   osal_pwrmgr_powerconserve (OSAL_PwrMgr)
                                                   osal_run_system (OSAL)
                                                   osal_set_event (OSAL)
                                                   osal_start_reload_timer (OSAL_Timers)
                                                   osal_start_timerEx (OSAL_Timers)
                                                   osal_stop_timerEx (OSAL_Timers)
           ENTRY                   ADDRESS         REF BY
           =====                   =======         ======
           _A_IEN0                 000000A8 
    -------------------------------------------------------------------------
SFR_AN
  Relative segment, address: DATA 000000BE - 000000BE (0x1 bytes), align: 0
  Segment part 7. ROOT.       Intra module refs:   halSleep (hal_sleep)
                                                   llT2OVFC1_ISR
           ENTRY                   ADDRESS         REF BY
           =====                   =======         ======
           SLEEPCMD                000000BE 
    -------------------------------------------------------------------------
SFR_AN
  Relative segment, address: DATA 000000BF - 000000BF (0x1 bytes), align: 0
  Segment part 8. ROOT.       Intra module refs:   RF_ErrorIsr
                                                   llAdvEvt_TaskAbort (ll_advEndCauses)
                                                   llClearSetInts (ll_common)
           ENTRY                   ADDRESS         REF BY
           =====                   =======         ======
           RFERRF                  000000BF 
    -------------------------------------------------------------------------
SFR_AN
  Relative segment, address: DATA 000000C6 - 000000C6 (0x1 bytes), align: 0
  Segment part 9. ROOT.       Intra module refs:   LL_PowerOffReq (ll_sleep)
                                                   LL_PowerOnReq (ll_sleep)
                                                   llRfInit (ll_common)
                                                   llSetFreqTune (ll_common)
                                                   llT2OVFC1_ISR
           ENTRY                   ADDRESS         REF BY
           =====                   =======         ======
           CLKCONCMD               000000C6 
    -------------------------------------------------------------------------
SFR_AN
  Relative segment, address: DATA 000000E9 - 000000E9 (0x1 bytes), align: 0
  Segment part 10. ROOT.      Intra module refs:   RF_NormalIsr
                                                   llClearSetInts (ll_common)
           ENTRY                   ADDRESS         REF BY
           =====                   =======         ======
           RFIRQF0                 000000E9 
    -------------------------------------------------------------------------
NEAR_CODE
  Relative segment, address: CODE 00000D7F - 00000EA7 (0x129 bytes), align: 0
  Segment part 19.            Intra module refs:   RF_NormalIsr::??INTVEC 131
           ENTRY                   ADDRESS         REF BY
           =====                   =======         ======
           RF_NormalIsr            00000D7F 
               interrupt function
               calls direct
               ISTACK = 00000000 ( 00000011 )
    -------------------------------------------------------------------------
NEAR_CODE
  Relative segment, address: CODE 00000EA8 - 00000EB9 (0x12 bytes), align: 0
  Segment part 20.            Intra module refs:   RF_NormalIsr
                                                   T2_Isr
    -------------------------------------------------------------------------
NEAR_CODE
  Relative segment, address: CODE 00000EBA - 00000EBE (0x5 bytes), align: 0
  Segment part 21.            Intra module refs:   RF_ErrorIsr
                                                   Segment part 20
    -------------------------------------------------------------------------
NEAR_CODE
  Relative segment, address: CODE 00000EBF - 00000F31 (0x73 bytes), align: 0
  Segment part 22.            Intra module refs:   RF_ErrorIsr::??INTVEC 3
           ENTRY                   ADDRESS         REF BY
           =====                   =======         ======
           RF_ErrorIsr             00000EBF 
               interrupt function
               ISTACK = 00000000 ( 00000004 )
    -------------------------------------------------------------------------
NEAR_CODE
  Relative segment, address: CODE 00000F32 - 00000F96 (0x65 bytes), align: 0
  Segment part 23.            Intra module refs:   T2_Isr::??INTVEC 83
           ENTRY                   ADDRESS         REF BY
           =====                   =======         ======
           T2_Isr                  00000F32 
               interrupt function
               calls direct
               ISTACK = 00000000 ( 00000009 )
    -------------------------------------------------------------------------
NEAR_CODE
  Relative segment, address: CODE 00000F97 - 0000101A (0x84 bytes), align: 0
  Segment part 24.            Intra module refs:   T2_Isr
           ENTRY                   ADDRESS         REF BY
           =====                   =======         ======
           llT2OVFC1_ISR           00000F97 
               calls direct
               XSTACK = 00000000 ( 00000008 )
    -------------------------------------------------------------------------
INTVEC
  Common segment, address: CODE 00000000 - 00000005 (0x6 bytes), align: 0
  Segment part 11. ROOT.
           ENTRY                   ADDRESS         REF BY
           =====                   =======         ======
           RF_ErrorIsr::??INTVEC 3
                                   00000003 
    -------------------------------------------------------------------------
INTVEC
  Common segment, address: CODE 00000000 - 00000055 (0x56 bytes), align: 0
  Segment part 12. ROOT.
           ENTRY                   ADDRESS         REF BY
           =====                   =======         ======
           T2_Isr::??INTVEC 83     00000053 
    -------------------------------------------------------------------------
INTVEC
  Common segment, address: CODE 00000000 - 00000085 (0x86 bytes), align: 0
  Segment part 13. ROOT.
           ENTRY                   ADDRESS         REF BY
           =====                   =======         ======
           RF_NormalIsr::??INTVEC 131
                                   00000083 

    -------------------------------------------------------------------------
  LIBRARY MODULE, NAME : ll_scheduler

  SEGMENTS IN THE MODULE
  ======================
XDATA_Z
  Relative segment, address: XDATA 00000345 - 00000361 (0x1d bytes), align: 0
  Segment part 8.             Intra module refs:   llAllocTask
                                                   llFindNextSecTask
                                                   llFreeTask
                                                   llGetCurrentTask
                                                   llGetNumTasks
                                                   llGetTaskState
                                                   llScheduleTask
                                                   llScheduler
                                                   llSchedulerInit
    -------------------------------------------------------------------------
<BANKED_CODE,CODE_C> 1 (was BANKED_CODE)
  Relative segment, address: CODE 000030CC - 000030F0 (0x25 bytes), align: 0
  Segment part 9.             Intra module refs:   llSchedulerInit::?relay
           ENTRY                   ADDRESS         REF BY
           =====                   =======         ======
           llSchedulerInit         000030CC 
               ISTACK = 00000000 ( 00000002 )
    -------------------------------------------------------------------------
<BANKED_CODE,CODE_C> 1 (was BANKED_CODE)
  Relative segment, address: CODE 000030F1 - 00003203 (0x113 bytes), align: 0
  Segment part 11.            Intra module refs:   llScheduler::?relay
           ENTRY                   ADDRESS         REF BY
           =====                   =======         ======
           llScheduler             000030F1 
               calls direct
               XSTACK = 00000000 ( 00000014 )
    -------------------------------------------------------------------------
<BANKED_CODE,CODE_C> 1 (was BANKED_CODE)
  Relative segment, address: CODE 00003204 - 00003208 (0x5 bytes), align: 0
  Segment part 13.            Intra module refs:   llFindNextSecTask
                                                   llScheduleTask
                                                   llScheduler
    -------------------------------------------------------------------------
<BANKED_CODE,CODE_C> 1 (was BANKED_CODE)
  Relative segment, address: CODE 00003209 - 0000338B (0x183 bytes), align: 0
  Segment part 14.            Intra module refs:   llScheduleTask::?relay
           ENTRY                   ADDRESS         REF BY
           =====                   =======         ======
           llScheduleTask          00003209 
               calls direct
               XSTACK = 00000010 ( 00000014 )
    -------------------------------------------------------------------------
<BANKED_CODE,CODE_C> 1 (was BANKED_CODE)
  Relative segment, address: CODE 0000338C - 000034B0 (0x125 bytes), align: 0
  Segment part 18.            Intra module refs:   llFindNextSecTask::?relay
           ENTRY                   ADDRESS         REF BY
           =====                   =======         ======
           llFindNextSecTask       0000338C 
               calls direct
               XSTACK = 00000010 ( 00000014 )
    -------------------------------------------------------------------------
<BANKED_CODE,CODE_C> 1 (was BANKED_CODE)
  Relative segment, address: CODE 000034B1 - 00003521 (0x71 bytes), align: 0
  Segment part 20.            Intra module refs:   llAllocTask::?relay
           ENTRY                   ADDRESS         REF BY
           =====                   =======         ======
           llAllocTask             000034B1 
               calls direct
               XSTACK = 00000000 ( 00000009 )
    -------------------------------------------------------------------------
<BANKED_CODE,CODE_C> 1 (was BANKED_CODE)
  Relative segment, address: CODE 00003522 - 0000355E (0x3d bytes), align: 0
  Segment part 22.            Intra module refs:   llFreeTask::?relay
           ENTRY                   ADDRESS         REF BY
           =====                   =======         ======
           llFreeTask              00003522 
               ISTACK = 00000000 ( 00000002 )
    -------------------------------------------------------------------------
<BANKED_CODE,CODE_C> 1 (was BANKED_CODE)
  Relative segment, address: CODE 0000355F - 00003578 (0x1a bytes), align: 0
  Segment part 24.            Intra module refs:   llGetCurrentTask::?relay
           ENTRY                   ADDRESS         REF BY
           =====                   =======         ======
           llGetCurrentTask        0000355F 
               ISTACK = 00000000 ( 00000002 )
    -------------------------------------------------------------------------
<BANKED_CODE,CODE_C> 1 (was BANKED_CODE)
  Relative segment, address: CODE 00003579 - 0000357A (0x2 bytes), align: 0
  Segment part 26.            Intra module refs:   llGetNumTasks
    -------------------------------------------------------------------------
<BANKED_CODE,CODE_C> 1 (was BANKED_CODE)
  Relative segment, address: CODE 0000357B - 00003581 (0x7 bytes), align: 0
  Segment part 27.            Intra module refs:   Segment part 26
                                                   llFreeTask
                                                   llGetCurrentTask
                                                   llGetTaskState
                                                   llSchedulerInit
    -------------------------------------------------------------------------
<BANKED_CODE,CODE_C> 1 (was BANKED_CODE)
  Relative segment, address: CODE 00003582 - 00003597 (0x16 bytes), align: 0
  Segment part 28.            Intra module refs:   llGetTaskState::?relay
           ENTRY                   ADDRESS         REF BY
           =====                   =======         ======
           llGetTaskState          00003582 
               ISTACK = 00000000 ( 00000002 )
    -------------------------------------------------------------------------
<BANKED_CODE,CODE_C> 1 (was BANKED_CODE)
  Relative segment, address: CODE 00003598 - 000035A0 (0x9 bytes), align: 0
  Segment part 34.            Intra module refs:   llGetNumTasks::?relay
           ENTRY                   ADDRESS         REF BY
           =====                   =======         ======
           llGetNumTasks           00003598 
               ISTACK = 00000000 ( 00000002 )
    -------------------------------------------------------------------------
BANK_RELAYS
  Relative segment, address: CODE 000003F4 - 000003F9 (0x6 bytes), align: 0
  Segment part 10.
           ENTRY                   ADDRESS         REF BY
           =====                   =======         ======
           llSchedulerInit::?relay
                                   000003F4        LL_Reset (ll)
    -------------------------------------------------------------------------
BANK_RELAYS
  Relative segment, address: CODE 000003FA - 000003FF (0x6 bytes), align: 0
  Segment part 12.
           ENTRY                   ADDRESS         REF BY
           =====                   =======         ======
           llScheduler::?relay     000003FA        LL_SetAdvControl (ll)
                                                   Segment part 11 (ll_advEndCauses)
                                                   llAdvEvt_TaskAbort (ll_advEndCauses)
    -------------------------------------------------------------------------
BANK_RELAYS
  Relative segment, address: CODE 00000400 - 00000405 (0x6 bytes), align: 0
  Segment part 15.            Intra module refs:   llScheduler
           ENTRY                   ADDRESS         REF BY
           =====                   =======         ======
           llScheduleTask::?relay
                                   00000400 
    -------------------------------------------------------------------------
BANK_RELAYS
  Relative segment, address: CODE 00000406 - 0000040B (0x6 bytes), align: 0
  Segment part 19.            Intra module refs:   llScheduler
           ENTRY                   ADDRESS         REF BY
           =====                   =======         ======
           llFindNextSecTask::?relay
                                   00000406 
    -------------------------------------------------------------------------
BANK_RELAYS
  Relative segment, address: CODE 0000040C - 00000411 (0x6 bytes), align: 0
  Segment part 21.
           ENTRY                   ADDRESS         REF BY
           =====                   =======         ======
           llAllocTask::?relay     0000040C        LL_SetAdvControl (ll)
    -------------------------------------------------------------------------
BANK_RELAYS
  Relative segment, address: CODE 00000412 - 00000417 (0x6 bytes), align: 0
  Segment part 23.
           ENTRY                   ADDRESS         REF BY
           =====                   =======         ======
           llFreeTask::?relay      00000412        LL_SetAdvControl (ll)
                                                   llAdvEvt_TaskAbort (ll_advEndCauses)
    -------------------------------------------------------------------------
BANK_RELAYS
  Relative segment, address: CODE 00000418 - 0000041D (0x6 bytes), align: 0
  Segment part 25.
           ENTRY                   ADDRESS         REF BY
           =====                   =======         ======
           llGetCurrentTask::?relay
                                   00000418        LL_PowerOnReq (ll_sleep)
                                                   LL_TimeToNextRfEvent (ll_sleep)
                                                   llT2OVFC1_ISR (ll_isr)
    -------------------------------------------------------------------------
BANK_RELAYS
  Relative segment, address: CODE 0000041E - 00000423 (0x6 bytes), align: 0
  Segment part 29.
           ENTRY                   ADDRESS         REF BY
           =====                   =======         ======
           llGetTaskState::?relay
                                   0000041E        llAdvEvt_TaskAbort (ll_advEndCauses)
                                                   llDiscoverableAdvEvt_TaskEndOk (ll_advEndCauses)
                                                   llNonConnAdvEvt_TaskEndOk (ll_advEndCauses)
    -------------------------------------------------------------------------
BANK_RELAYS
  Relative segment, address: CODE 00000424 - 00000429 (0x6 bytes), align: 0
  Segment part 35.
           ENTRY                   ADDRESS         REF BY
           =====                   =======         ======
           llGetNumTasks::?relay   00000424        LL_SetAdvControl (ll)

    -------------------------------------------------------------------------
  LIBRARY MODULE, NAME : ll_sleep

  SEGMENTS IN THE MODULE
  ======================
NEAR_CODE
  Relative segment, address: CODE 0000101B - 000011D7 (0x1bd bytes), align: 0
  Segment part 14.
           ENTRY                   ADDRESS         REF BY
           =====                   =======         ======
           LL_TimeToNextRfEvent    0000101B        halSleep (hal_sleep)
               calls direct
               XSTACK = 00000000 ( 0000001F )
    -------------------------------------------------------------------------
NEAR_CODE
  Relative segment, address: CODE 000011D8 - 0000126B (0x94 bytes), align: 0
  Segment part 15.
           ENTRY                   ADDRESS         REF BY
           =====                   =======         ======
           LL_PowerOffReq          000011D8        halSleep (hal_sleep)
               calls direct
               XSTACK = 00000000 ( 00000009 )
    -------------------------------------------------------------------------
NEAR_CODE
  Relative segment, address: CODE 0000126C - 00001270 (0x5 bytes), align: 0
  Segment part 16.            Intra module refs:   LL_PowerOffReq
                                                   LL_PowerOnReq
    -------------------------------------------------------------------------
NEAR_CODE
  Relative segment, address: CODE 00001271 - 00001340 (0xd0 bytes), align: 0
  Segment part 17.
           ENTRY                   ADDRESS         REF BY
           =====                   =======         ======
           LL_PowerOnReq           00001271        halSleep (hal_sleep)
               calls direct
               XSTACK = 00000000 ( 00000009 )

    -------------------------------------------------------------------------
  LIBRARY MODULE, NAME : ll_timer2

  SEGMENTS IN THE MODULE
  ======================
SFR_AN
  Relative segment, address: DATA 00000094 - 00000094 (0x1 bytes), align: 0
  Segment part 1. ROOT.       Intra module refs:   llInitTimer2
                                                   llStartTimer2
                                                   llStopTimer2
           ENTRY                   ADDRESS         REF BY
           =====                   =======         ======
           T2CTRL                  00000094 
    -------------------------------------------------------------------------
SFR_AN
  Relative segment, address: DATA 0000009C - 0000009C (0x1 bytes), align: 0
  Segment part 5. ROOT.       Intra module refs:   llDisableT2E1
                                                   llDisableT2IntsEvts
                                                   llInitTimer2
                                                   llSetT2C1Event1
                                                   llSetT2LongC1Event1
                                                   llSetT2OVFC2Event2
           ENTRY                   ADDRESS         REF BY
           =====                   =======         ======
           T2CSPCFG                0000009C 
    -------------------------------------------------------------------------
SFR_AN
  Relative segment, address: DATA 000000A2 - 000000A2 (0x1 bytes), align: 0
  Segment part 7. ROOT.       Intra module refs:   llGetCurrentTime
                                                   llGetFullCTandST
                                                   llInitTimer2
                                                   llSetT2C1Event1
                                                   llSetT2LongC1Event1
                                                   llSetT2LongC1Timeout
                                                   ll_McuPrecisionCount
           ENTRY                   ADDRESS         REF BY
           =====                   =======         ======
           T2M0                    000000A2 
    -------------------------------------------------------------------------
SFR_AN
  Relative segment, address: DATA 000000A3 - 000000A3 (0x1 bytes), align: 0
  Segment part 8. ROOT.       Intra module refs:   llGetFullCTandST
                                                   llInitTimer2
                                                   llSetT2C1Event1
                                                   llSetT2LongC1Event1
                                                   llSetT2LongC1Timeout
           ENTRY                   ADDRESS         REF BY
           =====                   =======         ======
           T2M1                    000000A3 
    -------------------------------------------------------------------------
SFR_AN
  Relative segment, address: DATA 000000A4 - 000000A4 (0x1 bytes), align: 0
  Segment part 9. ROOT.       Intra module refs:   llGetCurrentTime
                                                   llGetFullCTandST
                                                   llInitTimer2
                                                   llSetT2LongC1Event1
                                                   llSetT2LongC1Timeout
                                                   llSetT2OVFC2Event2
                                                   ll_McuPrecisionCount
           ENTRY                   ADDRESS         REF BY
           =====                   =======         ======
           T2MOVF0                 000000A4 
    -------------------------------------------------------------------------
SFR_AN
  Relative segment, address: DATA 000000A5 - 000000A5 (0x1 bytes), align: 0
  Segment part 10. ROOT.      Intra module refs:   llGetCurrentTime
                                                   llGetFullCTandST
                                                   llInitTimer2
                                                   llSetT2LongC1Event1
                                                   llSetT2LongC1Timeout
                                                   llSetT2OVFC2Event2
                                                   ll_McuPrecisionCount
           ENTRY                   ADDRESS         REF BY
           =====                   =======         ======
           T2MOVF1                 000000A5 
    -------------------------------------------------------------------------
SFR_AN
  Relative segment, address: DATA 000000A6 - 000000A6 (0x1 bytes), align: 0
  Segment part 11. ROOT.      Intra module refs:   llGetCurrentTime
                                                   llGetFullCTandST
                                                   llInitTimer2
                                                   llSetT2LongC1Event1
                                                   llSetT2LongC1Timeout
                                                   llSetT2OVFC2Event2
           ENTRY                   ADDRESS         REF BY
           =====                   =======         ======
           T2MOVF2                 000000A6 
    -------------------------------------------------------------------------
SFR_AN
  Relative segment, address: DATA 000000C3 - 000000C3 (0x1 bytes), align: 0
  Segment part 14. ROOT.      Intra module refs:   llGetCurrentTime
                                                   llGetFullCTandST
                                                   llInitTimer2
                                                   llSetT2C1Event1
                                                   llSetT2LongC1Event1
                                                   llSetT2LongC1Timeout
                                                   llSetT2OVFC2Event2
                                                   ll_McuPrecisionCount
           ENTRY                   ADDRESS         REF BY
           =====                   =======         ======
           T2MSEL                  000000C3 
    -------------------------------------------------------------------------
<BANKED_CODE,CODE_C> 1 (was BANKED_CODE)
  Relative segment, address: CODE 000042D1 - 00004366 (0x96 bytes), align: 0
  Segment part 20.            Intra module refs:   llInitTimer2::?relay
           ENTRY                   ADDRESS         REF BY
           =====                   =======         ======
           llInitTimer2            000042D1 
    -------------------------------------------------------------------------
<BANKED_CODE,CODE_C> 1 (was BANKED_CODE)
  Relative segment, address: CODE 00004367 - 00004376 (0x10 bytes), align: 0
  Segment part 22.            Intra module refs:   llStopTimer2::?relay
           ENTRY                   ADDRESS         REF BY
           =====                   =======         ======
           llStopTimer2            00004367 
    -------------------------------------------------------------------------
<BANKED_CODE,CODE_C> 1 (was BANKED_CODE)
  Relative segment, address: CODE 00004377 - 0000437C (0x6 bytes), align: 0
  Segment part 24.            Intra module refs:   llStartTimer2
                                                   llStopTimer2
    -------------------------------------------------------------------------
<BANKED_CODE,CODE_C> 1 (was BANKED_CODE)
  Relative segment, address: CODE 0000437D - 0000438E (0x12 bytes), align: 0
  Segment part 25.            Intra module refs:   llStartTimer2::?relay
           ENTRY                   ADDRESS         REF BY
           =====                   =======         ======
           llStartTimer2           0000437D 
    -------------------------------------------------------------------------
<BANKED_CODE,CODE_C> 1 (was BANKED_CODE)
  Relative segment, address: CODE 0000438F - 00004398 (0xa bytes), align: 0
  Segment part 29.            Intra module refs:   llSetT2C1Event1
    -------------------------------------------------------------------------
<BANKED_CODE,CODE_C> 1 (was BANKED_CODE)
  Relative segment, address: CODE 00004399 - 000043D0 (0x38 bytes), align: 0
  Segment part 30.            Intra module refs:   llGetCurrentTime
    -------------------------------------------------------------------------
<BANKED_CODE,CODE_C> 1 (was BANKED_CODE)
  Relative segment, address: CODE 000043D1 - 000043D2 (0x2 bytes), align: 0
  Segment part 31.            Intra module refs:   Segment part 30
                                                   Segment part 45
    -------------------------------------------------------------------------
<BANKED_CODE,CODE_C> 1 (was BANKED_CODE)
  Relative segment, address: CODE 000043D3 - 000043D5 (0x3 bytes), align: 0
  Segment part 32.            Intra module refs:   Segment part 31
                                                   Segment part 37
    -------------------------------------------------------------------------
<BANKED_CODE,CODE_C> 1 (was BANKED_CODE)
  Relative segment, address: CODE 000043D6 - 000043DC (0x7 bytes), align: 0
  Segment part 33.            Intra module refs:   Segment part 32
                                                   Segment part 70
    -------------------------------------------------------------------------
<BANKED_CODE,CODE_C> 1 (was BANKED_CODE)
  Relative segment, address: CODE 000043DD - 000043EE (0x12 bytes), align: 0
  Segment part 36.            Intra module refs:   ll_McuPrecisionCount
    -------------------------------------------------------------------------
<BANKED_CODE,CODE_C> 1 (was BANKED_CODE)
  Relative segment, address: CODE 000043EF - 000043F2 (0x4 bytes), align: 0
  Segment part 37.            Intra module refs:   Segment part 29
                                                   Segment part 36
    -------------------------------------------------------------------------
<BANKED_CODE,CODE_C> 1 (was BANKED_CODE)
  Relative segment, address: CODE 000043F3 - 0000445D (0x6b bytes), align: 0
  Segment part 42.            Intra module refs:   llSetT2LongC1Timeout::?relay
           ENTRY                   ADDRESS         REF BY
           =====                   =======         ======
           llSetT2LongC1Timeout    000043F3 
               XSTACK = 00000002 ( 00000004 )
               ISTACK = 00000000 ( 00000002 )
    -------------------------------------------------------------------------
<BANKED_CODE,CODE_C> 1 (was BANKED_CODE)
  Relative segment, address: CODE 0000445E - 00004466 (0x9 bytes), align: 0
  Segment part 45.            Intra module refs:   llSetT2LongC1Event1
                                                   llSetT2LongC1Timeout
    -------------------------------------------------------------------------
<BANKED_CODE,CODE_C> 1 (was BANKED_CODE)
  Relative segment, address: CODE 00004467 - 000044A4 (0x3e bytes), align: 0
  Segment part 48.            Intra module refs:   llSetT2C1Event1::?relay
           ENTRY                   ADDRESS         REF BY
           =====                   =======         ======
           llSetT2C1Event1         00004467 
               XSTACK = 00000000 ( 00000002 )
               ISTACK = 00000000 ( 00000002 )
    -------------------------------------------------------------------------
<BANKED_CODE,CODE_C> 1 (was BANKED_CODE)
  Relative segment, address: CODE 000044A5 - 00004518 (0x74 bytes), align: 0
  Segment part 52.            Intra module refs:   llSetT2LongC1Event1::?relay
           ENTRY                   ADDRESS         REF BY
           =====                   =======         ======
           llSetT2LongC1Event1     000044A5 
               XSTACK = 00000002 ( 00000004 )
               ISTACK = 00000000 ( 00000002 )
    -------------------------------------------------------------------------
<BANKED_CODE,CODE_C> 1 (was BANKED_CODE)
  Relative segment, address: CODE 00004519 - 00004591 (0x79 bytes), align: 0
  Segment part 54.            Intra module refs:   llSetT2OVFC2Event2::?relay
           ENTRY                   ADDRESS         REF BY
           =====                   =======         ======
           llSetT2OVFC2Event2      00004519 
               XSTACK = 00000000 ( 00000010 )
    -------------------------------------------------------------------------
<BANKED_CODE,CODE_C> 1 (was BANKED_CODE)
  Relative segment, address: CODE 00004592 - 0000459A (0x9 bytes), align: 0
  Segment part 58.            Intra module refs:   llDisableT2Ints::?relay
           ENTRY                   ADDRESS         REF BY
           =====                   =======         ======
           llDisableT2Ints         00004592 
    -------------------------------------------------------------------------
<BANKED_CODE,CODE_C> 1 (was BANKED_CODE)
  Relative segment, address: CODE 0000459B - 000045A6 (0xc bytes), align: 0
  Segment part 60.            Intra module refs:   llDisableT2IntsEvts::?relay
           ENTRY                   ADDRESS         REF BY
           =====                   =======         ======
           llDisableT2IntsEvts     0000459B 
    -------------------------------------------------------------------------
<BANKED_CODE,CODE_C> 1 (was BANKED_CODE)
  Relative segment, address: CODE 000045A7 - 000045AF (0x9 bytes), align: 0
  Segment part 62.            Intra module refs:   llDisableT2E1::?relay
           ENTRY                   ADDRESS         REF BY
           =====                   =======         ======
           llDisableT2E1           000045A7 
    -------------------------------------------------------------------------
<BANKED_CODE,CODE_C> 1 (was BANKED_CODE)
  Relative segment, address: CODE 000045B0 - 000045B2 (0x3 bytes), align: 0
  Segment part 64.            Intra module refs:   llDisableT2Ints
                                                   llDisableT2IntsEvts
    -------------------------------------------------------------------------
<BANKED_CODE,CODE_C> 1 (was BANKED_CODE)
  Relative segment, address: CODE 000045B3 - 000045B6 (0x4 bytes), align: 0
  Segment part 65.            Intra module refs:   Segment part 64
                                                   llDisableT2E1
    -------------------------------------------------------------------------
<BANKED_CODE,CODE_C> 1 (was BANKED_CODE)
  Relative segment, address: CODE 000045B7 - 000045BB (0x5 bytes), align: 0
  Segment part 66.            Intra module refs:   Segment part 24
                                                   Segment part 65
    -------------------------------------------------------------------------
<BANKED_CODE,CODE_C> 1 (was BANKED_CODE)
  Relative segment, address: CODE 000045BC - 000045CA (0xf bytes), align: 0
  Segment part 70.            Intra module refs:   llGetFullCTandST
    -------------------------------------------------------------------------
<BANKED_CODE,CODE_C> 1 (was BANKED_CODE)
  Relative segment, address: CODE 000045CB - 000045E0 (0x16 bytes), align: 0
  Segment part 71.            Intra module refs:   llGetCurrentTime::?relay
           ENTRY                   ADDRESS         REF BY
           =====                   =======         ======
           llGetCurrentTime        000045CB 
               XSTACK = 00000000 ( 00000004 )
               ISTACK = 00000000 ( 00000003 )
    -------------------------------------------------------------------------
<BANKED_CODE,CODE_C> 1 (was BANKED_CODE)
  Relative segment, address: CODE 000045E1 - 0000463F (0x5f bytes), align: 0
  Segment part 77.            Intra module refs:   llGetFullCTandST::?relay
           ENTRY                   ADDRESS         REF BY
           =====                   =======         ======
           llGetFullCTandST        000045E1 
               ISTACK = 00000000 ( 00000003 )
    -------------------------------------------------------------------------
NEAR_CODE
  Relative segment, address: CODE 00001341 - 00001394 (0x54 bytes), align: 0
  Segment part 85.
           ENTRY                   ADDRESS         REF BY
           =====                   =======         ======
           ll24BitTimeCompare      00001341        llFindNextSecTask (ll_scheduler)
                                                   llScheduler (ll_scheduler)
               XSTACK = 00000004 ( 00000013 )
    -------------------------------------------------------------------------
NEAR_CODE
  Relative segment, address: CODE 00001395 - 00001399 (0x5 bytes), align: 0
  Segment part 86.            Intra module refs:   ll24BitTimeCompare
                                                   ll24BitTimeDelta
    -------------------------------------------------------------------------
NEAR_CODE
  Relative segment, address: CODE 0000139A - 000013EE (0x55 bytes), align: 0
  Segment part 87.
           ENTRY                   ADDRESS         REF BY
           =====                   =======         ======
           ll24BitTimeDelta        0000139A        llScheduleTask (ll_scheduler)
               XSTACK = 00000004 ( 00000013 )
    -------------------------------------------------------------------------
<BANKED_CODE,CODE_C> 1 (was BANKED_CODE)
  Relative segment, address: CODE 00004640 - 0000466F (0x30 bytes), align: 0
  Segment part 83.            Intra module refs:   ll_McuPrecisionCount::?relay
           ENTRY                   ADDRESS         REF BY
           =====                   =======         ======
           ll_McuPrecisionCount    00004640 
               XSTACK = 00000000 ( 00000002 )
               ISTACK = 00000000 ( 00000003 )
    -------------------------------------------------------------------------
BANK_RELAYS
  Relative segment, address: CODE 0000042A - 0000042F (0x6 bytes), align: 0
  Segment part 21.
           ENTRY                   ADDRESS         REF BY
           =====                   =======         ======
           llInitTimer2::?relay    0000042A        LL_Init (ll)
    -------------------------------------------------------------------------
BANK_RELAYS
  Relative segment, address: CODE 00000430 - 00000435 (0x6 bytes), align: 0
  Segment part 23.
           ENTRY                   ADDRESS         REF BY
           =====                   =======         ======
           llStopTimer2::?relay    00000430        LL_PowerOffReq (ll_sleep)
    -------------------------------------------------------------------------
BANK_RELAYS
  Relative segment, address: CODE 00000436 - 0000043B (0x6 bytes), align: 0
  Segment part 26.
           ENTRY                   ADDRESS         REF BY
           =====                   =======         ======
           llStartTimer2::?relay   00000436        LL_PowerOnReq (ll_sleep)
    -------------------------------------------------------------------------
BANK_RELAYS
  Relative segment, address: CODE 0000043C - 00000441 (0x6 bytes), align: 0
  Segment part 43.
           ENTRY                   ADDRESS         REF BY
           =====                   =======         ======
           llSetT2LongC1Timeout::?relay
                                   0000043C        llScheduleTask (ll_scheduler)
    -------------------------------------------------------------------------
BANK_RELAYS
  Relative segment, address: CODE 00000442 - 00000447 (0x6 bytes), align: 0
  Segment part 49.
           ENTRY                   ADDRESS         REF BY
           =====                   =======         ======
           llSetT2C1Event1::?relay
                                   00000442        llT2OVFC1_ISR (ll_isr)
    -------------------------------------------------------------------------
BANK_RELAYS
  Relative segment, address: CODE 00000448 - 0000044D (0x6 bytes), align: 0
  Segment part 53.
           ENTRY                   ADDRESS         REF BY
           =====                   =======         ======
           llSetT2LongC1Event1::?relay
                                   00000448        llScheduleTask (ll_scheduler)
    -------------------------------------------------------------------------
BANK_RELAYS
  Relative segment, address: CODE 0000044E - 00000453 (0x6 bytes), align: 0
  Segment part 55.
           ENTRY                   ADDRESS         REF BY
           =====                   =======         ======
           llSetT2OVFC2Event2::?relay
                                   0000044E        llScheduleTask (ll_scheduler)
    -------------------------------------------------------------------------
BANK_RELAYS
  Relative segment, address: CODE 00000454 - 00000459 (0x6 bytes), align: 0
  Segment part 59.
           ENTRY                   ADDRESS         REF BY
           =====                   =======         ======
           llDisableT2Ints::?relay
                                   00000454        RF_NormalIsr (ll_isr)
    -------------------------------------------------------------------------
BANK_RELAYS
  Relative segment, address: CODE 0000045A - 0000045F (0x6 bytes), align: 0
  Segment part 61.
           ENTRY                   ADDRESS         REF BY
           =====                   =======         ======
           llDisableT2IntsEvts::?relay
                                   0000045A        LL_Reset (ll)
                                                   LL_SetAdvControl (ll)
                                                   RF_NormalIsr (ll_isr)
    -------------------------------------------------------------------------
BANK_RELAYS
  Relative segment, address: CODE 00000460 - 00000465 (0x6 bytes), align: 0
  Segment part 63.
           ENTRY                   ADDRESS         REF BY
           =====                   =======         ======
           llDisableT2E1::?relay   00000460        RF_NormalIsr (ll_isr)
    -------------------------------------------------------------------------
BANK_RELAYS
  Relative segment, address: CODE 00000466 - 0000046B (0x6 bytes), align: 0
  Segment part 72.
           ENTRY                   ADDRESS         REF BY
           =====                   =======         ======
           llGetCurrentTime::?relay
                                   00000466        LL_SetAdvControl (ll)
                                                   llAllocTask (ll_scheduler)
                                                   llScheduleTask (ll_scheduler)
                                                   llScheduler (ll_scheduler)
    -------------------------------------------------------------------------
BANK_RELAYS
  Relative segment, address: CODE 0000046C - 00000471 (0x6 bytes), align: 0
  Segment part 78.
           ENTRY                   ADDRESS         REF BY
           =====                   =======         ======
           llGetFullCTandST::?relay
                                   0000046C        LL_TimeToNextRfEvent (ll_sleep)
    -------------------------------------------------------------------------
BANK_RELAYS
  Relative segment, address: CODE 00000472 - 00000477 (0x6 bytes), align: 0
  Segment part 84.
           ENTRY                   ADDRESS         REF BY
           =====                   =======         ======
           ll_McuPrecisionCount::?relay
                                   00000472        osalTimeUpdate (OSAL_ClockBLE)

    -------------------------------------------------------------------------
  LIBRARY MODULE, NAME : phy

  SEGMENTS IN THE MODULE
  ======================
XDATA_Z
  Relative segment, address: XDATA 00000362 - 00000362 (0x1 bytes), align: 0
  Segment part 11.            Intra module refs:   PHY_ClearWhitelist
           ENTRY                   ADDRESS         REF BY
           =====                   =======         ======
           numWLEntries            00000362 
    -------------------------------------------------------------------------
<BANKED_CODE,CODE_C> 1 (was BANKED_CODE)
  Relative segment, address: CODE 000054E1 - 000054ED (0xd bytes), align: 0
  Segment part 12.            Intra module refs:   PHY_Init::?relay
           ENTRY                   ADDRESS         REF BY
           =====                   =======         ======
           PHY_Init                000054E1 
               calls direct
               ISTACK = 00000000 ( 00000002 )
    -------------------------------------------------------------------------
<BANKED_CODE,CODE_C> 1 (was BANKED_CODE)
  Relative segment, address: CODE 000054EE - 00005507 (0x1a bytes), align: 0
  Segment part 18.            Intra module refs:   PHY_Reset::?relay
           ENTRY                   ADDRESS         REF BY
           =====                   =======         ======
           PHY_Reset               000054EE 
               ISTACK = 00000000 ( 00000002 )
    -------------------------------------------------------------------------
<BANKED_CODE,CODE_C> 1 (was BANKED_CODE)
  Relative segment, address: CODE 00005508 - 00005536 (0x2f bytes), align: 0
  Segment part 25.            Intra module refs:   PHY_ClearAllRegsAndFifos::?relay
           ENTRY                   ADDRESS         REF BY
           =====                   =======         ======
           PHY_ClearAllRegsAndFifos
                                   00005508 
               ISTACK = 00000000 ( 00000002 )
    -------------------------------------------------------------------------
<BANKED_CODE,CODE_C> 1 (was BANKED_CODE)
  Relative segment, address: CODE 00005537 - 0000553B (0x5 bytes), align: 0
  Segment part 27.            Intra module refs:   PHY_ClearAllRegsAndFifos
    -------------------------------------------------------------------------
<BANKED_CODE,CODE_C> 1 (was BANKED_CODE)
  Relative segment, address: CODE 0000553C - 00005546 (0xb bytes), align: 0
  Segment part 28.            Intra module refs:   Segment part 27
    -------------------------------------------------------------------------
<BANKED_CODE,CODE_C> 1 (was BANKED_CODE)
  Relative segment, address: CODE 00005547 - 00005584 (0x3e bytes), align: 0
  Segment part 33.            Intra module refs:   PHY_SetOwnAddr::?relay
           ENTRY                   ADDRESS         REF BY
           =====                   =======         ======
           PHY_SetOwnAddr          00005547 
               ISTACK = 00000000 ( 00000002 )
    -------------------------------------------------------------------------
<BANKED_CODE,CODE_C> 1 (was BANKED_CODE)
  Relative segment, address: CODE 00005585 - 0000558D (0x9 bytes), align: 0
  Segment part 37.            Intra module refs:   PHY_SetOwnAddr
    -------------------------------------------------------------------------
<BANKED_CODE,CODE_C> 1 (was BANKED_CODE)
  Relative segment, address: CODE 0000558E - 00005592 (0x5 bytes), align: 0
  Segment part 38.            Intra module refs:   PHY_SetOwnAddr
    -------------------------------------------------------------------------
<BANKED_CODE,CODE_C> 1 (was BANKED_CODE)
  Relative segment, address: CODE 00005593 - 00005597 (0x5 bytes), align: 0
  Segment part 39.            Intra module refs:   PHY_SetOwnAddr
    -------------------------------------------------------------------------
<BANKED_CODE,CODE_C> 1 (was BANKED_CODE)
  Relative segment, address: CODE 00005598 - 0000559D (0x6 bytes), align: 0
  Segment part 40.            Intra module refs:   PHY_SetOwnAddr
    -------------------------------------------------------------------------
<BANKED_CODE,CODE_C> 1 (was BANKED_CODE)
  Relative segment, address: CODE 0000559E - 000055A2 (0x5 bytes), align: 0
  Segment part 41.            Intra module refs:   Segment part 39
                                                   Segment part 40
    -------------------------------------------------------------------------
<BANKED_CODE,CODE_C> 1 (was BANKED_CODE)
  Relative segment, address: CODE 000055A3 - 000055AB (0x9 bytes), align: 0
  Segment part 42.            Intra module refs:   Segment part 38
                                                   Segment part 41
    -------------------------------------------------------------------------
<BANKED_CODE,CODE_C> 1 (was BANKED_CODE)
  Relative segment, address: CODE 000055AC - 000055B9 (0xe bytes), align: 0
  Segment part 43.            Intra module refs:   PHY_SetCRCInit::?relay
           ENTRY                   ADDRESS         REF BY
           =====                   =======         ======
           PHY_SetCRCInit          000055AC 
               XSTACK = 00000000 ( 00000010 )
    -------------------------------------------------------------------------
<BANKED_CODE,CODE_C> 1 (was BANKED_CODE)
  Relative segment, address: CODE 000055BA - 000055C0 (0x7 bytes), align: 0
  Segment part 45.            Intra module refs:   PHY_SetCRCInit
                                                   PHY_SetSyncWord
    -------------------------------------------------------------------------
<BANKED_CODE,CODE_C> 1 (was BANKED_CODE)
  Relative segment, address: CODE 000055C1 - 000055CB (0xb bytes), align: 0
  Segment part 46.            Intra module refs:   PHY_GetAdvChans::?relay
           ENTRY                   ADDRESS         REF BY
           =====                   =======         ======
           PHY_GetAdvChans         000055C1 
               ISTACK = 00000000 ( 00000002 )
    -------------------------------------------------------------------------
<BANKED_CODE,CODE_C> 1 (was BANKED_CODE)
  Relative segment, address: CODE 000055CC - 000055D8 (0xd bytes), align: 0
  Segment part 48.            Intra module refs:   PHY_SetAdvChans::?relay
           ENTRY                   ADDRESS         REF BY
           =====                   =======         ======
           PHY_SetAdvChans         000055CC 
               ISTACK = 00000000 ( 00000002 )
    -------------------------------------------------------------------------
<BANKED_CODE,CODE_C> 1 (was BANKED_CODE)
  Relative segment, address: CODE 000055D9 - 000055EF (0x17 bytes), align: 0
  Segment part 50.            Intra module refs:   PHY_SetEndConnection::?relay
           ENTRY                   ADDRESS         REF BY
           =====                   =======         ======
           PHY_SetEndConnection    000055D9 
               ISTACK = 00000000 ( 00000002 )
    -------------------------------------------------------------------------
<BANKED_CODE,CODE_C> 1 (was BANKED_CODE)
  Relative segment, address: CODE 000055F0 - 000055FD (0xe bytes), align: 0
  Segment part 52.            Intra module refs:   PHY_ConfigureMD::?relay
           ENTRY                   ADDRESS         REF BY
           =====                   =======         ======
           PHY_ConfigureMD         000055F0 
               ISTACK = 00000000 ( 00000002 )
    -------------------------------------------------------------------------
<BANKED_CODE,CODE_C> 1 (was BANKED_CODE)
  Relative segment, address: CODE 000055FE - 00005608 (0xb bytes), align: 0
  Segment part 60.            Intra module refs:   PHY_GetEndCause::?relay
           ENTRY                   ADDRESS         REF BY
           =====                   =======         ======
           PHY_GetEndCause         000055FE 
               ISTACK = 00000000 ( 00000002 )
    -------------------------------------------------------------------------
<BANKED_CODE,CODE_C> 1 (was BANKED_CODE)
  Relative segment, address: CODE 00005609 - 00005617 (0xf bytes), align: 0
  Segment part 70.            Intra module refs:   PHY_SetSyncWord::?relay
           ENTRY                   ADDRESS         REF BY
           =====                   =======         ======
           PHY_SetSyncWord         00005609 
               XSTACK = 00000000 ( 00000010 )
    -------------------------------------------------------------------------
<BANKED_CODE,CODE_C> 1 (was BANKED_CODE)
  Relative segment, address: CODE 00005618 - 00005630 (0x19 bytes), align: 0
  Segment part 74.            Intra module refs:   PHY_ClearWhitelist::?relay
           ENTRY                   ADDRESS         REF BY
           =====                   =======         ======
           PHY_ClearWhitelist      00005618 
               ISTACK = 00000000 ( 00000002 )
    -------------------------------------------------------------------------
<BANKED_CODE,CODE_C> 1 (was BANKED_CODE)
  Relative segment, address: CODE 00005631 - 00005634 (0x4 bytes), align: 0
  Segment part 86.            Intra module refs:   PHY_GetAdvChans
                                                   PHY_GetEndCause
    -------------------------------------------------------------------------
<BANKED_CODE,CODE_C> 1 (was BANKED_CODE)
  Relative segment, address: CODE 00005635 - 00005644 (0x10 bytes), align: 0
  Segment part 95.            Intra module refs:   PHY_SetAdvWlPolicy::?relay
           ENTRY                   ADDRESS         REF BY
           =====                   =======         ======
           PHY_SetAdvWlPolicy      00005635 
               ISTACK = 00000000 ( 00000002 )
    -------------------------------------------------------------------------
<BANKED_CODE,CODE_C> 1 (was BANKED_CODE)
  Relative segment, address: CODE 00005645 - 0000564F (0xb bytes), align: 0
  Segment part 108.           Intra module refs:   PHY_ClearBlacklist::?relay
           ENTRY                   ADDRESS         REF BY
           =====                   =======         ======
           PHY_ClearBlacklist      00005645 
               ISTACK = 00000000 ( 00000002 )
    -------------------------------------------------------------------------
<BANKED_CODE,CODE_C> 1 (was BANKED_CODE)
  Relative segment, address: CODE 00005650 - 00005654 (0x5 bytes), align: 0
  Segment part 118.           Intra module refs:   PHY_ClearSavedWhiteList
    -------------------------------------------------------------------------
<BANKED_CODE,CODE_C> 1 (was BANKED_CODE)
  Relative segment, address: CODE 00005655 - 0000565A (0x6 bytes), align: 0
  Segment part 119.           Intra module refs:   PHY_SetOwnAddr
                                                   Segment part 118
    -------------------------------------------------------------------------
<BANKED_CODE,CODE_C> 1 (was BANKED_CODE)
  Relative segment, address: CODE 0000565B - 00005670 (0x16 bytes), align: 0
  Segment part 121.           Intra module refs:   PHY_ClearSavedWhiteList::?relay
           ENTRY                   ADDRESS         REF BY
           =====                   =======         ======
           PHY_ClearSavedWhiteList
                                   0000565B 
               ISTACK = 00000000 ( 00000002 )
    -------------------------------------------------------------------------
<BANKED_CODE,CODE_C> 1 (was BANKED_CODE)
  Relative segment, address: CODE 00005671 - 00005676 (0x6 bytes), align: 0
  Segment part 123.           Intra module refs:   PHY_ClearSavedWhiteList
    -------------------------------------------------------------------------
<BANKED_CODE,CODE_C> 1 (was BANKED_CODE)
  Relative segment, address: CODE 00005677 - 00005681 (0xb bytes), align: 0
  Segment part 134.           Intra module refs:   PHY_ConfigureFifoDataProcessing::?relay
           ENTRY                   ADDRESS         REF BY
           =====                   =======         ======
           PHY_ConfigureFifoDataProcessing
                                   00005677 
               ISTACK = 00000000 ( 00000002 )
    -------------------------------------------------------------------------
<BANKED_CODE,CODE_C> 1 (was BANKED_CODE)
  Relative segment, address: CODE 00005682 - 00005696 (0x15 bytes), align: 0
  Segment part 136.           Intra module refs:   PHY_ConfigureAppendRfStatus::?relay
           ENTRY                   ADDRESS         REF BY
           =====                   =======         ======
           PHY_ConfigureAppendRfStatus
                                   00005682 
               ISTACK = 00000000 ( 00000002 )
    -------------------------------------------------------------------------
<BANKED_CODE,CODE_C> 1 (was BANKED_CODE)
  Relative segment, address: CODE 00005697 - 000056A1 (0xb bytes), align: 0
  Segment part 138.           Intra module refs:   PHY_SetFifoConfig::?relay
           ENTRY                   ADDRESS         REF BY
           =====                   =======         ======
           PHY_SetFifoConfig       00005697 
               ISTACK = 00000000 ( 00000002 )
    -------------------------------------------------------------------------
<BANKED_CODE,CODE_C> 1 (was BANKED_CODE)
  Relative segment, address: CODE 000056A2 - 000056AA (0x9 bytes), align: 0
  Segment part 150.           Intra module refs:   PHY_SetSyncWord
    -------------------------------------------------------------------------
<BANKED_CODE,CODE_C> 1 (was BANKED_CODE)
  Relative segment, address: CODE 000056AB - 0000570B (0x61 bytes), align: 0
  Segment part 151.           Intra module refs:   PHY_ConfigWhitener::?relay
           ENTRY                   ADDRESS         REF BY
           =====                   =======         ======
           PHY_ConfigWhitener      000056AB 
               ISTACK = 00000000 ( 00000002 )
    -------------------------------------------------------------------------
<BANKED_CODE,CODE_C> 1 (was BANKED_CODE)
  Relative segment, address: CODE 0000570C - 0000570D (0x2 bytes), align: 0
  Segment part 180.           Intra module refs:   PHY_ClearAllRegsAndFifos
    -------------------------------------------------------------------------
<BANKED_CODE,CODE_C> 1 (was BANKED_CODE)
  Relative segment, address: CODE 0000570E - 0000570E (0x1 bytes), align: 0
  Segment part 181.           Intra module refs:   Segment part 180
    -------------------------------------------------------------------------
<BANKED_CODE,CODE_C> 1 (was BANKED_CODE)
  Relative segment, address: CODE 0000570F - 0000570F (0x1 bytes), align: 0
  Segment part 182.           Intra module refs:   Segment part 181
    -------------------------------------------------------------------------
<BANKED_CODE,CODE_C> 1 (was BANKED_CODE)
  Relative segment, address: CODE 00005710 - 00005710 (0x1 bytes), align: 0
  Segment part 183.           Intra module refs:   PHY_ClearBlacklist
                                                   PHY_ConfigureAppendRfStatus
                                                   PHY_ConfigureFifoDataProcessing
                                                   PHY_ConfigureMD
                                                   PHY_SetAdvChans
                                                   PHY_SetAdvWlPolicy
                                                   PHY_SetEndConnection
                                                   PHY_SetFifoConfig
                                                   PHY_SetOwnAddr
                                                   Segment part 123
                                                   Segment part 182
    -------------------------------------------------------------------------
<BANKED_CODE,CODE_C> 1 (was BANKED_CODE)
  Relative segment, address: CODE 00005711 - 00005717 (0x7 bytes), align: 0
  Segment part 184.           Intra module refs:   PHY_ClearWhitelist
                                                   PHY_ConfigWhitener
                                                   PHY_Init
                                                   PHY_Reset
                                                   Segment part 183
                                                   Segment part 86
    -------------------------------------------------------------------------
BANK_RELAYS
  Relative segment, address: CODE 00000478 - 0000047D (0x6 bytes), align: 0
  Segment part 13.
           ENTRY                   ADDRESS         REF BY
           =====                   =======         ======
           PHY_Init::?relay        00000478        LL_Init (ll)
    -------------------------------------------------------------------------
BANK_RELAYS
  Relative segment, address: CODE 0000047E - 00000483 (0x6 bytes), align: 0
  Segment part 19.            Intra module refs:   PHY_Init
           ENTRY                   ADDRESS         REF BY
           =====                   =======         ======
           PHY_Reset::?relay       0000047E        LL_PowerOffReq (ll_sleep)
                                                   LL_PowerOnReq (ll_sleep)
                                                   llScheduleTask (ll_scheduler)
    -------------------------------------------------------------------------
BANK_RELAYS
  Relative segment, address: CODE 00000484 - 00000489 (0x6 bytes), align: 0
  Segment part 26.            Intra module refs:   PHY_Init
           ENTRY                   ADDRESS         REF BY
           =====                   =======         ======
           PHY_ClearAllRegsAndFifos::?relay
                                   00000484        LL_Reset (ll)
    -------------------------------------------------------------------------
BANK_RELAYS
  Relative segment, address: CODE 0000048A - 0000048F (0x6 bytes), align: 0
  Segment part 34.
           ENTRY                   ADDRESS         REF BY
           =====                   =======         ======
           PHY_SetOwnAddr::?relay
                                   0000048A        llSetupAdv (ll_common)
    -------------------------------------------------------------------------
BANK_RELAYS
  Relative segment, address: CODE 00000490 - 00000495 (0x6 bytes), align: 0
  Segment part 44.
           ENTRY                   ADDRESS         REF BY
           =====                   =======         ======
           PHY_SetCRCInit::?relay
                                   00000490        LL_Reset (ll)
                                                   llSetupAdv (ll_common)
    -------------------------------------------------------------------------
BANK_RELAYS
  Relative segment, address: CODE 00000496 - 0000049B (0x6 bytes), align: 0
  Segment part 47.
           ENTRY                   ADDRESS         REF BY
           =====                   =======         ======
           PHY_GetAdvChans::?relay
                                   00000496        llDiscoverableAdvEvt_TaskEndOk (ll_advEndCauses)
                                                   llNonConnAdvEvt_TaskEndOk (ll_advEndCauses)
    -------------------------------------------------------------------------
BANK_RELAYS
  Relative segment, address: CODE 0000049C - 000004A1 (0x6 bytes), align: 0
  Segment part 49.
           ENTRY                   ADDRESS         REF BY
           =====                   =======         ======
           PHY_SetAdvChans::?relay
                                   0000049C        llDiscoverableAdvEvt_TaskEndOk (ll_advEndCauses)
                                                   llNonConnAdvEvt_TaskEndOk (ll_advEndCauses)
                                                   llSetupAdv (ll_common)
    -------------------------------------------------------------------------
BANK_RELAYS
  Relative segment, address: CODE 000004A2 - 000004A7 (0x6 bytes), align: 0
  Segment part 51.
           ENTRY                   ADDRESS         REF BY
           =====                   =======         ======
           PHY_SetEndConnection::?relay
                                   000004A2        RF_NormalIsr (ll_isr)
    -------------------------------------------------------------------------
BANK_RELAYS
  Relative segment, address: CODE 000004A8 - 000004AD (0x6 bytes), align: 0
  Segment part 53.
           ENTRY                   ADDRESS         REF BY
           =====                   =======         ======
           PHY_ConfigureMD::?relay
                                   000004A8        LL_Reset (ll)
    -------------------------------------------------------------------------
BANK_RELAYS
  Relative segment, address: CODE 000004AE - 000004B3 (0x6 bytes), align: 0
  Segment part 61.
           ENTRY                   ADDRESS         REF BY
           =====                   =======         ======
           PHY_GetEndCause::?relay
                                   000004AE        RF_NormalIsr (ll_isr)
    -------------------------------------------------------------------------
BANK_RELAYS
  Relative segment, address: CODE 000004B4 - 000004B9 (0x6 bytes), align: 0
  Segment part 71.
           ENTRY                   ADDRESS         REF BY
           =====                   =======         ======
           PHY_SetSyncWord::?relay
                                   000004B4        llSetupAdv (ll_common)
    -------------------------------------------------------------------------
BANK_RELAYS
  Relative segment, address: CODE 000004BA - 000004BF (0x6 bytes), align: 0
  Segment part 75.
           ENTRY                   ADDRESS         REF BY
           =====                   =======         ======
           PHY_ClearWhitelist::?relay
                                   000004BA        LL_Reset (ll)
    -------------------------------------------------------------------------
BANK_RELAYS
  Relative segment, address: CODE 000004C0 - 000004C5 (0x6 bytes), align: 0
  Segment part 96.
           ENTRY                   ADDRESS         REF BY
           =====                   =======         ======
           PHY_SetAdvWlPolicy::?relay
                                   000004C0        LL_SetAdvParam (ll)
    -------------------------------------------------------------------------
BANK_RELAYS
  Relative segment, address: CODE 000004C6 - 000004CB (0x6 bytes), align: 0
  Segment part 109.
           ENTRY                   ADDRESS         REF BY
           =====                   =======         ======
           PHY_ClearBlacklist::?relay
                                   000004C6        LL_Reset (ll)
    -------------------------------------------------------------------------
BANK_RELAYS
  Relative segment, address: CODE 000004CC - 000004D1 (0x6 bytes), align: 0
  Segment part 122.
           ENTRY                   ADDRESS         REF BY
           =====                   =======         ======
           PHY_ClearSavedWhiteList::?relay
                                   000004CC        LL_Reset (ll)
    -------------------------------------------------------------------------
BANK_RELAYS
  Relative segment, address: CODE 000004D2 - 000004D7 (0x6 bytes), align: 0
  Segment part 135.
           ENTRY                   ADDRESS         REF BY
           =====                   =======         ======
           PHY_ConfigureFifoDataProcessing::?relay
                                   000004D2        LL_Reset (ll)
    -------------------------------------------------------------------------
BANK_RELAYS
  Relative segment, address: CODE 000004D8 - 000004DD (0x6 bytes), align: 0
  Segment part 137.
           ENTRY                   ADDRESS         REF BY
           =====                   =======         ======
           PHY_ConfigureAppendRfStatus::?relay
                                   000004D8        LL_Reset (ll)
                                                   llSetupAdv (ll_common)
    -------------------------------------------------------------------------
BANK_RELAYS
  Relative segment, address: CODE 000004DE - 000004E3 (0x6 bytes), align: 0
  Segment part 139.
           ENTRY                   ADDRESS         REF BY
           =====                   =======         ======
           PHY_SetFifoConfig::?relay
                                   000004DE        LL_Reset (ll)
    -------------------------------------------------------------------------
BANK_RELAYS
  Relative segment, address: CODE 000004E4 - 000004E9 (0x6 bytes), align: 0
  Segment part 152.
           ENTRY                   ADDRESS         REF BY
           =====                   =======         ======
           PHY_ConfigWhitener::?relay
                                   000004E4        llRfInit (ll_common)

    *************************************************************************

  FILE NAME : C:\Users\MON\Desktop\IAR_TPMS\IAR Systems\SDK\BLE-CC254x-1.4.0\Projects\ble\Libraries\Common\bin\CC254x_BLE_HCI_TL_None.lib
  LIBRARY MODULE, NAME : hci_tl

  SEGMENTS IN THE MODULE
  ======================
XDATA_Z
  Relative segment, address: XDATA 00000363 - 00000363 (0x1 bytes), align: 0
  Segment part 6.             Intra module refs:   HCI_Init
                                                   HCI_ProcessEvent
           ENTRY                   ADDRESS         REF BY
           =====                   =======         ======
           hciTaskID               00000363        HCI_SendCommandCompleteEvent (hci_event)
    -------------------------------------------------------------------------
XDATA_Z
  Relative segment, address: XDATA 00000364 - 00000364 (0x1 bytes), align: 0
  Segment part 7.             Intra module refs:   HCI_Init
           ENTRY                   ADDRESS         REF BY
           =====                   =======         ======
           hciTestTaskID           00000364        HCI_EXT_SetBDADDRCmd (hci)
    -------------------------------------------------------------------------
XDATA_Z
  Relative segment, address: XDATA 00000365 - 00000365 (0x1 bytes), align: 0
  Segment part 8.             Intra module refs:   HCI_GAPTaskRegister
                                                   HCI_Init
           ENTRY                   ADDRESS         REF BY
           =====                   =======         ======
           hciGapTaskID            00000365        HCI_CommandCompleteEvent (hci_event)
    -------------------------------------------------------------------------
XDATA_Z
  Relative segment, address: XDATA 00000366 - 00000366 (0x1 bytes), align: 0
  Segment part 9.             Intra module refs:   HCI_Init
           ENTRY                   ADDRESS         REF BY
           =====                   =======         ======
           hciL2capTaskID          00000366 
    -------------------------------------------------------------------------
XDATA_Z
  Relative segment, address: XDATA 00000367 - 00000367 (0x1 bytes), align: 0
  Segment part 10.            Intra module refs:   HCI_Init
           ENTRY                   ADDRESS         REF BY
           =====                   =======         ======
           hciSmpTaskID            00000367        HCI_CommandCompleteEvent (hci_event)
    -------------------------------------------------------------------------
XDATA_Z
  Relative segment, address: XDATA 00000368 - 00000368 (0x1 bytes), align: 0
  Segment part 11.            Intra module refs:   HCI_Init
           ENTRY                   ADDRESS         REF BY
           =====                   =======         ======
           hciExtTaskID            00000368 
    -------------------------------------------------------------------------
<BANKED_CODE,CODE_C> 1 (was BANKED_CODE)
  Relative segment, address: CODE 00006382 - 000063AD (0x2c bytes), align: 0
  Segment part 13.            Intra module refs:   HCI_Init::?relay
           ENTRY                   ADDRESS         REF BY
           =====                   =======         ======
           HCI_Init                00006382 
               calls direct
               XSTACK = 00000000 ( 00000009 )
    -------------------------------------------------------------------------
<BANKED_CODE,CODE_C> 1 (was BANKED_CODE)
  Relative segment, address: CODE 000063AE - 00006408 (0x5b bytes), align: 0
  Segment part 15.            Intra module refs:   HCI_ProcessEvent::?relay
           ENTRY                   ADDRESS         REF BY
           =====                   =======         ======
           HCI_ProcessEvent        000063AE 
               calls direct
               XSTACK = 00000000 ( 0000000C )
    -------------------------------------------------------------------------
<BANKED_CODE,CODE_C> 1 (was BANKED_CODE)
  Relative segment, address: CODE 00006409 - 00006412 (0xa bytes), align: 0
  Segment part 19.            Intra module refs:   HCI_GAPTaskRegister::?relay
           ENTRY                   ADDRESS         REF BY
           =====                   =======         ======
           HCI_GAPTaskRegister     00006409 
               ISTACK = 00000000 ( 00000002 )
    -------------------------------------------------------------------------
<BANKED_CODE,CODE_C> 1 (was BANKED_CODE)
  Relative segment, address: CODE 00006413 - 0000641A (0x8 bytes), align: 0
  Segment part 23.            Intra module refs:   HCI_GAPTaskRegister
    -------------------------------------------------------------------------
BANK_RELAYS
  Relative segment, address: CODE 000004EA - 000004EF (0x6 bytes), align: 0
  Segment part 14.
           ENTRY                   ADDRESS         REF BY
           =====                   =======         ======
           HCI_Init::?relay        000004EA        osalInitTasks (OSAL_BAT_MON)
    -------------------------------------------------------------------------
BANK_RELAYS
  Relative segment, address: CODE 000004F0 - 000004F5 (0x6 bytes), align: 0
  Segment part 16.
           ENTRY                   ADDRESS         REF BY
           =====                   =======         ======
           HCI_ProcessEvent::?relay
                                   000004F0        tasksArr (OSAL_BAT_MON)
    -------------------------------------------------------------------------
BANK_RELAYS
  Relative segment, address: CODE 000004F6 - 000004FB (0x6 bytes), align: 0
  Segment part 20.
           ENTRY                   ADDRESS         REF BY
           =====                   =======         ======
           HCI_GAPTaskRegister::?relay
                                   000004F6        GAP_Init (gap_simpletask)

    *************************************************************************

  FILE NAME : C:\Users\MON\Desktop\IAR_TPMS\IAR Systems\SDK\BLE-CC254x-1.4.0\Projects\ble\BAT_MON\CC2541DB\CC2541\Obj\OSAL.r51
  PROGRAM MODULE, NAME : OSAL

  SEGMENTS IN THE MODULE
  ======================
XDATA_Z
  Relative segment, address: XDATA 00000369 - 0000036A (0x2 bytes), align: 0
  Segment part 11.            Intra module refs:   osal_init_system
                                                   osal_msg_enqueue_push
                                                   osal_msg_receive
           ENTRY                   ADDRESS         REF BY
           =====                   =======         ======
           osal_qHead              00000369 
    -------------------------------------------------------------------------
XDATA_I
  Relative segment, address: XDATA 000004DD - 000004DD (0x1 bytes), align: 0
  Segment part 12.            Intra module refs:   osal_run_system
           LOCAL                   ADDRESS         
           =====                   =======         
           activeTaskID            000004DD 
    -------------------------------------------------------------------------
<BANKED_CODE,CODE_C> 1 (was BANKED_CODE)
  Relative segment, address: CODE 000035A1 - 000035DE (0x3e bytes), align: 0
  Segment part 18.            Intra module refs:   osal_memcpy::?relay
           ENTRY                   ADDRESS         REF BY
           =====                   =======         ======
           osal_memcpy             000035A1 
               XSTACK = 00000010 ( 00000009 )
               ISTACK = 00000000 ( 00000001 )
    -------------------------------------------------------------------------
<BANKED_CODE,CODE_C> 1 (was BANKED_CODE)
  Relative segment, address: CODE 000035DF - 00003638 (0x5a bytes), align: 0
  Segment part 24.            Intra module refs:   osal_memcmp::?relay
           ENTRY                   ADDRESS         REF BY
           =====                   =======         ======
           osal_memcmp             000035DF 
               XSTACK = 00000002 ( 0000000B )
    -------------------------------------------------------------------------
<BANKED_CODE,CODE_C> 1 (was BANKED_CODE)
  Relative segment, address: CODE 00003639 - 00003659 (0x21 bytes), align: 0
  Segment part 26.            Intra module refs:   osal_memset::?relay
           ENTRY                   ADDRESS         REF BY
           =====                   =======         ======
           osal_memset             00003639 
               calls direct
               XSTACK = 00000000 ( 0000000C )
    -------------------------------------------------------------------------
<BANKED_CODE,CODE_C> 1 (was BANKED_CODE)
  Relative segment, address: CODE 0000365A - 000036AA (0x51 bytes), align: 0
  Segment part 41.            Intra module refs:   osal_msg_allocate::?relay
           ENTRY                   ADDRESS         REF BY
           =====                   =======         ======
           osal_msg_allocate       0000365A 
               calls direct
               XSTACK = 00000000 ( 0000000A )
    -------------------------------------------------------------------------
<BANKED_CODE,CODE_C> 1 (was BANKED_CODE)
  Relative segment, address: CODE 000036AB - 000036CC (0x22 bytes), align: 0
  Segment part 43.            Intra module refs:   osal_msg_deallocate::?relay
           ENTRY                   ADDRESS         REF BY
           =====                   =======         ======
           osal_msg_deallocate     000036AB 
               calls direct
               XSTACK = 00000009 ( 00000000 )
               ISTACK = 00000000 ( 00000002 )
    -------------------------------------------------------------------------
<BANKED_CODE,CODE_C> 1 (was BANKED_CODE)
  Relative segment, address: CODE 000036CD - 000036D3 (0x7 bytes), align: 0
  Segment part 45.            Intra module refs:   osal_init_system
                                                   osal_msg_deallocate
           LOCAL                   ADDRESS         
           =====                   =======         
           ?Subroutine0            000036CD 
    -------------------------------------------------------------------------
<BANKED_CODE,CODE_C> 1 (was BANKED_CODE)
  Relative segment, address: CODE 000036D4 - 000036DD (0xa bytes), align: 0
  Segment part 46.            Intra module refs:   osal_msg_send::?relay
           ENTRY                   ADDRESS         REF BY
           =====                   =======         ======
           osal_msg_send           000036D4 
               calls direct
               XSTACK = 00000000 ( 00000009 )
    -------------------------------------------------------------------------
<BANKED_CODE,CODE_C> 1 (was BANKED_CODE)
  Relative segment, address: CODE 000036DE - 0000373C (0x5f bytes), align: 0
  Segment part 50.            Intra module refs:   osal_msg_enqueue_push::?relay
           LOCAL                   ADDRESS         
           =====                   =======         
           osal_msg_enqueue_push   000036DE 
               calls direct
               XSTACK = 00000009 ( 00000009 )
               ISTACK = 00000000 ( 00000001 )
    -------------------------------------------------------------------------
<BANKED_CODE,CODE_C> 1 (was BANKED_CODE)
  Relative segment, address: CODE 0000373D - 00003749 (0xd bytes), align: 0
  Segment part 52.            Intra module refs:   osal_msg_deallocate
                                                   osal_msg_enqueue_push
           LOCAL                   ADDRESS         
           =====                   =======         
           ?Subroutine13           0000373D 
    -------------------------------------------------------------------------
<BANKED_CODE,CODE_C> 1 (was BANKED_CODE)
  Relative segment, address: CODE 0000374A - 000037CC (0x83 bytes), align: 0
  Segment part 53.            Intra module refs:   osal_msg_receive::?relay
           ENTRY                   ADDRESS         REF BY
           =====                   =======         ======
           osal_msg_receive        0000374A 
               calls direct
               XSTACK = 00000000 ( 0000000E )
    -------------------------------------------------------------------------
<BANKED_CODE,CODE_C> 1 (was BANKED_CODE)
  Relative segment, address: CODE 000037CD - 000037D1 (0x5 bytes), align: 0
  Segment part 55.            Intra module refs:   osal_msg_extract
                                                   osal_msg_receive
                                                   osal_run_system
           LOCAL                   ADDRESS         
           =====                   =======         
           ?Subroutine4            000037CD 
    -------------------------------------------------------------------------
<BANKED_CODE,CODE_C> 1 (was BANKED_CODE)
  Relative segment, address: CODE 000037D2 - 000037D7 (0x6 bytes), align: 0
  Segment part 59.            Intra module refs:   osal_run_system
    -------------------------------------------------------------------------
<BANKED_CODE,CODE_C> 1 (was BANKED_CODE)
  Relative segment, address: CODE 000037D8 - 0000380E (0x37 bytes), align: 0
  Segment part 60.            Intra module refs:   osal_msg_enqueue::?relay
           ENTRY                   ADDRESS         REF BY
           =====                   =======         ======
           osal_msg_enqueue        000037D8 
               XSTACK = 00000009 ( 00000009 )
    -------------------------------------------------------------------------
<BANKED_CODE,CODE_C> 1 (was BANKED_CODE)
  Relative segment, address: CODE 0000380F - 00003812 (0x4 bytes), align: 0
  Segment part 62.            Intra module refs:   osal_msg_enqueue
                                                   osal_msg_push
           LOCAL                   ADDRESS         
           =====                   =======         
           ?Subroutine5            0000380F 
    -------------------------------------------------------------------------
<BANKED_CODE,CODE_C> 1 (was BANKED_CODE)
  Relative segment, address: CODE 00003813 - 00003815 (0x3 bytes), align: 0
  Segment part 63.            Intra module refs:   osal_msg_send
           LOCAL                   ADDRESS         
           =====                   =======         
           ?Subroutine1            00003813 
    -------------------------------------------------------------------------
<BANKED_CODE,CODE_C> 1 (was BANKED_CODE)
  Relative segment, address: CODE 00003816 - 0000381A (0x5 bytes), align: 0
  Segment part 64.            Intra module refs:   ?Subroutine1
                                                   ?Subroutine5
                                                   osal_clear_event
                                                   osal_memcpy
                                                   osal_msg_enqueue_push
                                                   osal_set_event
    -------------------------------------------------------------------------
<BANKED_CODE,CODE_C> 1 (was BANKED_CODE)
  Relative segment, address: CODE 0000381B - 0000381F (0x5 bytes), align: 0
  Segment part 67.            Intra module refs:   osal_memset
                                                   osal_msg_allocate
           LOCAL                   ADDRESS         
           =====                   =======         
           ?Subroutine2            0000381B 
    -------------------------------------------------------------------------
<BANKED_CODE,CODE_C> 1 (was BANKED_CODE)
  Relative segment, address: CODE 00003820 - 00003825 (0x6 bytes), align: 0
  Segment part 69.            Intra module refs:   osal_msg_enqueue
                                                   osal_msg_enqueue_push
                                                   osal_msg_receive
                                                   osal_run_system
    -------------------------------------------------------------------------
<BANKED_CODE,CODE_C> 1 (was BANKED_CODE)
  Relative segment, address: CODE 00003826 - 00003855 (0x30 bytes), align: 0
  Segment part 70.            Intra module refs:   osal_msg_push::?relay
           ENTRY                   ADDRESS         REF BY
           =====                   =======         ======
           osal_msg_push           00003826 
               XSTACK = 00000009 ( 00000009 )
    -------------------------------------------------------------------------
<BANKED_CODE,CODE_C> 1 (was BANKED_CODE)
  Relative segment, address: CODE 00003856 - 0000385B (0x6 bytes), align: 0
  Segment part 72.            Intra module refs:   Segment part 69
                                                   osal_memcpy
                                                   osal_msg_extract
                                                   osal_msg_push
           LOCAL                   ADDRESS         
           =====                   =======         
           ?Subroutine19           00003856 
    -------------------------------------------------------------------------
<BANKED_CODE,CODE_C> 1 (was BANKED_CODE)
  Relative segment, address: CODE 0000385C - 000038CA (0x6f bytes), align: 0
  Segment part 73.            Intra module refs:   osal_msg_extract::?relay
           ENTRY                   ADDRESS         REF BY
           =====                   =======         ======
           osal_msg_extract        0000385C 
               XSTACK = 0000000E ( 0000000C )
    -------------------------------------------------------------------------
<BANKED_CODE,CODE_C> 1 (was BANKED_CODE)
  Relative segment, address: CODE 000038CB - 000038CD (0x3 bytes), align: 0
  Segment part 75.            Intra module refs:   osal_msg_enqueue_push
           LOCAL                   ADDRESS         
           =====                   =======         
           ?Subroutine14           000038CB 
    -------------------------------------------------------------------------
<BANKED_CODE,CODE_C> 1 (was BANKED_CODE)
  Relative segment, address: CODE 000038CE - 000038D0 (0x3 bytes), align: 0
  Segment part 76.            Intra module refs:   ?Subroutine14
    -------------------------------------------------------------------------
<BANKED_CODE,CODE_C> 1 (was BANKED_CODE)
  Relative segment, address: CODE 000038D1 - 000038D5 (0x5 bytes), align: 0
  Segment part 77.            Intra module refs:   Segment part 76
                                                   osal_msg_enqueue
                                                   osal_msg_extract
                                                   osal_msg_push
                                                   osal_msg_receive
    -------------------------------------------------------------------------
<BANKED_CODE,CODE_C> 1 (was BANKED_CODE)
  Relative segment, address: CODE 000038D6 - 000038E2 (0xd bytes), align: 0
  Segment part 80.            Intra module refs:   osal_msg_enqueue
           LOCAL                   ADDRESS         
           =====                   =======         
           ?Subroutine17           000038D6 
    -------------------------------------------------------------------------
<BANKED_CODE,CODE_C> 1 (was BANKED_CODE)
  Relative segment, address: CODE 000038E3 - 00003922 (0x40 bytes), align: 0
  Segment part 81.            Intra module refs:   osal_set_event::?relay
           ENTRY                   ADDRESS         REF BY
           =====                   =======         ======
           osal_set_event          000038E3 
               XSTACK = 0000000C ( 00000009 )
    -------------------------------------------------------------------------
<BANKED_CODE,CODE_C> 1 (was BANKED_CODE)
  Relative segment, address: CODE 00003923 - 0000395A (0x38 bytes), align: 0
  Segment part 83.            Intra module refs:   osal_clear_event::?relay
           ENTRY                   ADDRESS         REF BY
           =====                   =======         ======
           osal_clear_event        00003923 
               XSTACK = 0000000C ( 00000009 )
    -------------------------------------------------------------------------
<BANKED_CODE,CODE_C> 1 (was BANKED_CODE)
  Relative segment, address: CODE 0000395B - 00003979 (0x1f bytes), align: 0
  Segment part 91.            Intra module refs:   osal_init_system::?relay
           ENTRY                   ADDRESS         REF BY
           =====                   =======         ======
           osal_init_system        0000395B 
               calls direct
               ISTACK = 00000000 ( 00000002 )
    -------------------------------------------------------------------------
<BANKED_CODE,CODE_C> 1 (was BANKED_CODE)
  Relative segment, address: CODE 0000397A - 00003982 (0x9 bytes), align: 0
  Segment part 93.            Intra module refs:   osal_start_system::?relay
           ENTRY                   ADDRESS         REF BY
           =====                   =======         ======
           osal_start_system       0000397A 
               calls direct
               ISTACK = 00000000 ( 00000002 )
    -------------------------------------------------------------------------
<BANKED_CODE,CODE_C> 1 (was BANKED_CODE)
  Relative segment, address: CODE 00003983 - 00003A26 (0xa4 bytes), align: 0
  Segment part 95.            Intra module refs:   osal_run_system::?relay
           ENTRY                   ADDRESS         REF BY
           =====                   =======         ======
           osal_run_system         00003983 
               calls direct
               XSTACK = 00000000 ( 0000000C )
    -------------------------------------------------------------------------
<BANKED_CODE,CODE_C> 1 (was BANKED_CODE)
  Relative segment, address: CODE 00003A27 - 00003A2F (0x9 bytes), align: 0
  Segment part 97.            Intra module refs:   osal_run_system
           LOCAL                   ADDRESS         
           =====                   =======         
           ?Subroutine11           00003A27 
    -------------------------------------------------------------------------
<BANKED_CODE,CODE_C> 1 (was BANKED_CODE)
  Relative segment, address: CODE 00003A30 - 00003A41 (0x12 bytes), align: 0
  Segment part 98.            Intra module refs:   osal_clear_event
                                                   osal_run_system
           LOCAL                   ADDRESS         
           =====                   =======         
           ?Subroutine10           00003A30 
    -------------------------------------------------------------------------
XDATA_ID
  Relative segment, address: CODE 00000200 - 00000200 (0x1 bytes), align: 0
  Segment part 13.            Intra module refs:   activeTaskID
    -------------------------------------------------------------------------
BANK_RELAYS
  Relative segment, address: CODE 000004FC - 00000501 (0x6 bytes), align: 0
  Segment part 19.
           ENTRY                   ADDRESS         REF BY
           =====                   =======         ======
           osal_memcpy::?relay     000004FC        GAPRole_ProcessEvent (broadcaster)
                                                   GAPRole_SetParameter (broadcaster)
                                                   GAP_MakeDiscoverable (gap_peridevmgr)
                                                   GAP_UpdateAdvertisingData (gap_peridevmgr)
                                                   HCI_CommandCompleteEvent (hci_event)
                                                   HCI_SendCommandCompleteEvent (hci_event)
                                                   LL_RandCback (hci)
                                                   LL_SetAdvData (ll)
                                                   LL_SetScanRspData (ll)
                                                   gapProcessRandomAddrComplete (gap_configmgr)
                                                   gapReadBD_ADDRStatus (gap_configmgr)
                                                   gapRole_ProcessGAPMsg (broadcaster)
                                                   gapSendDeviceInitDoneEvent (gap_configmgr)
    -------------------------------------------------------------------------
BANK_RELAYS
  Relative segment, address: CODE 00000502 - 00000507 (0x6 bytes), align: 0
  Segment part 25.
           ENTRY                   ADDRESS         REF BY
           =====                   =======         ======
           osal_memcmp::?relay     00000502        verifyWordM (osal_snv)
    -------------------------------------------------------------------------
BANK_RELAYS
  Relative segment, address: CODE 00000508 - 0000050D (0x6 bytes), align: 0
  Segment part 27.
           ENTRY                   ADDRESS         REF BY
           =====                   =======         ======
           osal_memset::?relay     00000508        GAPRole_SetParameter (broadcaster)
                                                   GAP_ParamsInit (gap_configmgr)
                                                   GAP_PeriDevMgrInit (gap_peridevmgr)
                                                   GAP_UpdateAdvertisingData (gap_peridevmgr)
                                                   osalInitTasks (OSAL_BAT_MON)
                                                   osal_CbTimerInit (osal_cbtimer)
    -------------------------------------------------------------------------
BANK_RELAYS
  Relative segment, address: CODE 0000050E - 00000513 (0x6 bytes), align: 0
  Segment part 42.
           ENTRY                   ADDRESS         REF BY
           =====                   =======         ======
           osal_msg_allocate::?relay
                                   0000050E        HCI_CommandCompleteEvent (hci_event)
                                                   HCI_SendCommandCompleteEvent (hci_event)
                                                   gapProcessRandomAddrComplete (gap_configmgr)
                                                   gapSendDeviceInitDoneEvent (gap_configmgr)
                                                   gapSendMakeDiscEvent (gap_peridevmgr)
                                                   gapWriteAdvDataStatus (gap_peridevmgr)
                                                   gapWriteAdvEnableStatus (gap_peridevmgr)
    -------------------------------------------------------------------------
BANK_RELAYS
  Relative segment, address: CODE 00000514 - 00000519 (0x6 bytes), align: 0
  Segment part 44.            Intra module refs:   osal_msg_enqueue_push
           ENTRY                   ADDRESS         REF BY
           =====                   =======         ======
           osal_msg_deallocate::?relay
                                   00000514        GAPRole_ProcessEvent (broadcaster)
                                                   GAP_ProcessEvent (gap_simpletask)
                                                   HCI_ProcessEvent (hci_tl)
    -------------------------------------------------------------------------
BANK_RELAYS
  Relative segment, address: CODE 0000051A - 0000051F (0x6 bytes), align: 0
  Segment part 47.
           ENTRY                   ADDRESS         REF BY
           =====                   =======         ======
           osal_msg_send::?relay   0000051A        GAP_ProcessEvent (gap_simpletask)
                                                   HCI_CommandCompleteEvent (hci_event)
                                                   HCI_SendCommandCompleteEvent (hci_event)
                                                   gapProcessRandomAddrComplete (gap_configmgr)
                                                   gapSendDeviceInitDoneEvent (gap_configmgr)
                                                   gapSendMakeDiscEvent (gap_peridevmgr)
                                                   gapWriteAdvDataStatus (gap_peridevmgr)
                                                   gapWriteAdvEnableStatus (gap_peridevmgr)
    -------------------------------------------------------------------------
BANK_RELAYS
  Relative segment, address: CODE 00000520 - 00000525 (0x6 bytes), align: 0
  Segment part 51.            Intra module refs:   ?Subroutine1
           LOCAL                   ADDRESS         
           =====                   =======         
           osal_msg_enqueue_push::?relay
                                   00000520 
    -------------------------------------------------------------------------
BANK_RELAYS
  Relative segment, address: CODE 00000526 - 0000052B (0x6 bytes), align: 0
  Segment part 54.
           ENTRY                   ADDRESS         REF BY
           =====                   =======         ======
           osal_msg_receive::?relay
                                   00000526        GAPRole_ProcessEvent (broadcaster)
                                                   GAP_ProcessEvent (gap_simpletask)
                                                   HCI_ProcessEvent (hci_tl)
    -------------------------------------------------------------------------
BANK_RELAYS
  Relative segment, address: CODE 0000052C - 00000531 (0x6 bytes), align: 0
  Segment part 61.            Intra module refs:   osal_msg_enqueue_push
           ENTRY                   ADDRESS         REF BY
           =====                   =======         ======
           osal_msg_enqueue::?relay
                                   0000052C 
    -------------------------------------------------------------------------
BANK_RELAYS
  Relative segment, address: CODE 00000532 - 00000537 (0x6 bytes), align: 0
  Segment part 71.            Intra module refs:   osal_msg_enqueue_push
           ENTRY                   ADDRESS         REF BY
           =====                   =======         ======
           osal_msg_push::?relay   00000532 
    -------------------------------------------------------------------------
BANK_RELAYS
  Relative segment, address: CODE 00000538 - 0000053D (0x6 bytes), align: 0
  Segment part 74.            Intra module refs:   osal_msg_receive
           ENTRY                   ADDRESS         REF BY
           =====                   =======         ======
           osal_msg_extract::?relay
                                   00000538 
    -------------------------------------------------------------------------
BANK_RELAYS
  Relative segment, address: CODE 0000053E - 00000543 (0x6 bytes), align: 0
  Segment part 82.            Intra module refs:   osal_msg_enqueue_push
                                                   osal_msg_receive
           ENTRY                   ADDRESS         REF BY
           =====                   =======         ======
           osal_set_event::?relay
                                   0000053E        BAT_MON_Init (BAT_MON)
                                                   GAPRole_SetParameter (broadcaster)
                                                   HCI_EXT_SetBDADDRCmd (hci)
                                                   LL_Init (ll)
                                                   LL_PowerOnReq (ll_sleep)
                                                   RF_NormalIsr (ll_isr)
                                                   gapRole_ProcessGAPMsg (broadcaster)
                                                   llDiscoverableAdvEvt_TaskEndOk (ll_advEndCauses)
                                                   llNonConnAdvEvt_TaskEndOk (ll_advEndCauses)
                                                   osalTimerUpdate (OSAL_Timers)
    -------------------------------------------------------------------------
BANK_RELAYS
  Relative segment, address: CODE 00000544 - 00000549 (0x6 bytes), align: 0
  Segment part 84.            Intra module refs:   osal_msg_receive
           ENTRY                   ADDRESS         REF BY
           =====                   =======         ======
           osal_clear_event::?relay
                                   00000544        LL_SetAdvControl (ll)
                                                   llT2OVFC1_ISR (ll_isr)
    -------------------------------------------------------------------------
BANK_RELAYS
  Relative segment, address: CODE 0000054A - 0000054F (0x6 bytes), align: 0
  Segment part 92.
           ENTRY                   ADDRESS         REF BY
           =====                   =======         ======
           osal_init_system::?relay
                                   0000054A        main (BAT_MON_Main)
    -------------------------------------------------------------------------
BANK_RELAYS
  Relative segment, address: CODE 00000550 - 00000555 (0x6 bytes), align: 0
  Segment part 94.
           ENTRY                   ADDRESS         REF BY
           =====                   =======         ======
           osal_start_system::?relay
                                   00000550        main (BAT_MON_Main)
    -------------------------------------------------------------------------
BANK_RELAYS
  Relative segment, address: CODE 00000556 - 0000055B (0x6 bytes), align: 0
  Segment part 96.            Intra module refs:   osal_start_system
           ENTRY                   ADDRESS         REF BY
           =====                   =======         ======
           osal_run_system::?relay
                                   00000556 

    *************************************************************************

  FILE NAME : C:\Users\MON\Desktop\IAR_TPMS\IAR Systems\SDK\BLE-CC254x-1.4.0\Projects\ble\BAT_MON\CC2541DB\CC2541\Obj\OSAL_BAT_MON.r51
  PROGRAM MODULE, NAME : OSAL_BAT_MON

  SEGMENTS IN THE MODULE
  ======================
<XDATA_ROM_C> 1 (was XDATA_ROM_C)
  Relative segment, address: CONST 00008000 - 0000800B (0xc bytes), align: 0
  Segment part 6.
           ENTRY                   ADDRESS         REF BY
           =====                   =======         ======
           tasksArr                00008000        osal_run_system (OSAL)
    -------------------------------------------------------------------------
<XDATA_ROM_C> 1 (was XDATA_ROM_C)
  Relative segment, address: CONST 00008044 - 00008044 (0x1 bytes), align: 0
  Segment part 7.
           ENTRY                   ADDRESS         REF BY
           =====                   =======         ======
           tasksCnt                00008044        osal_clear_event (OSAL)
                                                   osal_msg_enqueue_push (OSAL)
                                                   osal_pwrmgr_task_state (OSAL_PwrMgr)
                                                   osal_run_system (OSAL)
                                                   osal_set_event (OSAL)
    -------------------------------------------------------------------------
XDATA_Z
  Relative segment, address: XDATA 0000036B - 0000036C (0x2 bytes), align: 0
  Segment part 8.             Intra module refs:   osalInitTasks
           ENTRY                   ADDRESS         REF BY
           =====                   =======         ======
           tasksEvents             0000036B        ?Subroutine10 (OSAL)
                                                   osal_run_system (OSAL)
                                                   osal_set_event (OSAL)
    -------------------------------------------------------------------------
<BANKED_CODE,CODE_C> 1 (was BANKED_CODE)
  Relative segment, address: CODE 0000658D - 000065CD (0x41 bytes), align: 0
  Segment part 9.             Intra module refs:   osalInitTasks::?relay
           ENTRY                   ADDRESS         REF BY
           =====                   =======         ======
           osalInitTasks           0000658D 
               calls direct
               ISTACK = 00000000 ( 00000002 )
    -------------------------------------------------------------------------
BANK_RELAYS
  Relative segment, address: CODE 0000055C - 00000561 (0x6 bytes), align: 0
  Segment part 10.
           ENTRY                   ADDRESS         REF BY
           =====                   =======         ======
           osalInitTasks::?relay   0000055C        osal_init_system (OSAL)
    -------------------------------------------------------------------------
<XDATA_ROM_C_FLASH> 1 (was XDATA_ROM_C_FLASH)
  Relative segment, address: CODE 00008000 - 0000800B (0xc bytes), align: 0
  Segment part 11.            Intra module refs:   tasksArr
    -------------------------------------------------------------------------
<XDATA_ROM_C_FLASH> 1 (was XDATA_ROM_C_FLASH)
  Relative segment, address: CODE 00008044 - 00008044 (0x1 bytes), align: 0
  Segment part 12.            Intra module refs:   tasksCnt

    *************************************************************************

  FILE NAME : C:\Users\MON\Desktop\IAR_TPMS\IAR Systems\SDK\BLE-CC254x-1.4.0\Projects\ble\BAT_MON\CC2541DB\CC2541\Obj\OSAL_ClockBLE.r51
  PROGRAM MODULE, NAME : OSAL_ClockBLE

  SEGMENTS IN THE MODULE
  ======================
XDATA_Z
  Relative segment, address: XDATA 0000036D - 0000036E (0x2 bytes), align: 0
  Segment part 6.             Intra module refs:   osalTimeUpdate
           LOCAL                   ADDRESS         
           =====                   =======         
           previousLLTimerTick     0000036D 
    -------------------------------------------------------------------------
XDATA_Z
  Relative segment, address: XDATA 0000036F - 00000370 (0x2 bytes), align: 0
  Segment part 7.             Intra module refs:   osalTimeUpdate
           LOCAL                   ADDRESS         
           =====                   =======         
           remUsTicks              0000036F 
    -------------------------------------------------------------------------
XDATA_Z
  Relative segment, address: XDATA 00000371 - 00000372 (0x2 bytes), align: 0
  Segment part 8.             Intra module refs:   ?Subroutine5
                                                   osalTimeUpdate
           LOCAL                   ADDRESS         
           =====                   =======         
           timeMSec                00000371 
    -------------------------------------------------------------------------
XDATA_Z
  Relative segment, address: XDATA 00000373 - 00000376 (0x4 bytes), align: 0
  Segment part 9.             Intra module refs:   osalTimeUpdate
           ENTRY                   ADDRESS         REF BY
           =====                   =======         ======
           OSAL_timeSeconds        00000373 
    -------------------------------------------------------------------------
<BANKED_CODE,CODE_C> 1 (was BANKED_CODE)
  Relative segment, address: CODE 0000606B - 00006152 (0xe8 bytes), align: 0
  Segment part 13.            Intra module refs:   osalTimeUpdate::?relay
           ENTRY                   ADDRESS         REF BY
           =====                   =======         ======
           osalTimeUpdate          0000606B 
               calls direct
               XSTACK = 00000000 ( 00000010 )
    -------------------------------------------------------------------------
<BANKED_CODE,CODE_C> 1 (was BANKED_CODE)
  Relative segment, address: CODE 00006153 - 0000615F (0xd bytes), align: 0
  Segment part 15.            Intra module refs:   osalTimeUpdate
           LOCAL                   ADDRESS         
           =====                   =======         
           ?Subroutine5            00006153 
    -------------------------------------------------------------------------
<BANKED_CODE,CODE_C> 1 (was BANKED_CODE)
  Relative segment, address: CODE 00006160 - 00006164 (0x5 bytes), align: 0
  Segment part 23.            Intra module refs:   osalTimeUpdate
    -------------------------------------------------------------------------
BANK_RELAYS
  Relative segment, address: CODE 00000562 - 00000567 (0x6 bytes), align: 0
  Segment part 14.
           ENTRY                   ADDRESS         REF BY
           =====                   =======         ======
           osalTimeUpdate::?relay
                                   00000562        llScheduleTask (ll_scheduler)
                                                   osal_run_system (OSAL)

    *************************************************************************

  FILE NAME : C:\Users\MON\Desktop\IAR_TPMS\IAR Systems\SDK\BLE-CC254x-1.4.0\Projects\ble\BAT_MON\CC2541DB\CC2541\Obj\OSAL_Memory.r51
  PROGRAM MODULE, NAME : OSAL_Memory

  SEGMENTS IN THE MODULE
  ======================
<XDATA_N> 1 (was XDATA_N)
  Relative segment, address: XDATA 0000050F - 00000D0E (0x800 bytes), align: 0
  Segment part 7.             Intra module refs:   osal_mem_alloc
                                                   osal_mem_init
           LOCAL                   ADDRESS         
           =====                   =======         
           theHeap                 0000050F 
    -------------------------------------------------------------------------
<XDATA_N> 1 (was XDATA_N)
  Relative segment, address: XDATA 00000D0F - 00000D10 (0x2 bytes), align: 0
  Segment part 8.             Intra module refs:   osal_mem_alloc
                                                   osal_mem_free
                                                   osal_mem_init
                                                   osal_mem_kick
           LOCAL                   ADDRESS         
           =====                   =======         
           ff1                     00000D0F 
    -------------------------------------------------------------------------
XDATA_Z
  Relative segment, address: XDATA 00000377 - 00000377 (0x1 bytes), align: 0
  Segment part 9.             Intra module refs:   osal_mem_alloc
                                                   osal_mem_kick
           LOCAL                   ADDRESS         
           =====                   =======         
           osalMemStat             00000377 
    -------------------------------------------------------------------------
<BANKED_CODE,CODE_C> 1 (was BANKED_CODE)
  Relative segment, address: CODE 0000594A - 00005978 (0x2f bytes), align: 0
  Segment part 10.            Intra module refs:   osal_mem_init::?relay
           ENTRY                   ADDRESS         REF BY
           =====                   =======         ======
           osal_mem_init           0000594A 
               ISTACK = 00000000 ( 00000002 )
    -------------------------------------------------------------------------
<BANKED_CODE,CODE_C> 1 (was BANKED_CODE)
  Relative segment, address: CODE 00005979 - 0000597F (0x7 bytes), align: 0
  Segment part 12.            Intra module refs:   osal_mem_free
                                                   osal_mem_init
           LOCAL                   ADDRESS         
           =====                   =======         
           ?Subroutine0            00005979 
    -------------------------------------------------------------------------
<BANKED_CODE,CODE_C> 1 (was BANKED_CODE)
  Relative segment, address: CODE 00005980 - 000059B5 (0x36 bytes), align: 0
  Segment part 13.            Intra module refs:   osal_mem_kick::?relay
           ENTRY                   ADDRESS         REF BY
           =====                   =======         ======
           osal_mem_kick           00005980 
               calls direct
               XSTACK = 00000000 ( 0000000A )
    -------------------------------------------------------------------------
<BANKED_CODE,CODE_C> 1 (was BANKED_CODE)
  Relative segment, address: CODE 000059B6 - 00005B0E (0x159 bytes), align: 0
  Segment part 15.            Intra module refs:   osal_mem_alloc::?relay
           ENTRY                   ADDRESS         REF BY
           =====                   =======         ======
           osal_mem_alloc          000059B6 
               XSTACK = 0000000A ( 0000000E )
    -------------------------------------------------------------------------
<BANKED_CODE,CODE_C> 1 (was BANKED_CODE)
  Relative segment, address: CODE 00005B0F - 00005B48 (0x3a bytes), align: 0
  Segment part 17.            Intra module refs:   osal_mem_free::?relay
           ENTRY                   ADDRESS         REF BY
           =====                   =======         ======
           osal_mem_free           00005B0F 
               XSTACK = 0000000A ( 00000000 )
               ISTACK = 00000000 ( 00000002 )
    -------------------------------------------------------------------------
BANK_RELAYS
  Relative segment, address: CODE 00000568 - 0000056D (0x6 bytes), align: 0
  Segment part 11.
           ENTRY                   ADDRESS         REF BY
           =====                   =======         ======
           osal_mem_init::?relay   00000568        osal_init_system (OSAL)
    -------------------------------------------------------------------------
BANK_RELAYS
  Relative segment, address: CODE 0000056E - 00000573 (0x6 bytes), align: 0
  Segment part 14.
           ENTRY                   ADDRESS         REF BY
           =====                   =======         ======
           osal_mem_kick::?relay   0000056E        osal_init_system (OSAL)
    -------------------------------------------------------------------------
BANK_RELAYS
  Relative segment, address: CODE 00000574 - 00000579 (0x6 bytes), align: 0
  Segment part 16.            Intra module refs:   osal_mem_kick
           ENTRY                   ADDRESS         REF BY
           =====                   =======         ======
           osal_mem_alloc::?relay
                                   00000574        GAP_MakeDiscoverable (gap_peridevmgr)
                                                   GAP_PeriDevMgrInit (gap_peridevmgr)
                                                   osalAddTimer (OSAL_Timers)
                                                   osalInitTasks (OSAL_BAT_MON)
                                                   osal_msg_allocate (OSAL)
    -------------------------------------------------------------------------
BANK_RELAYS
  Relative segment, address: CODE 0000057A - 0000057F (0x6 bytes), align: 0
  Segment part 18.            Intra module refs:   osal_mem_kick
           ENTRY                   ADDRESS         REF BY
           =====                   =======         ======
           osal_mem_free::?relay   0000057A        GAP_PeriDevMgrInit (gap_peridevmgr)
                                                   gapFreeAdvertState (gap_peridevmgr)
                                                   osalTimerUpdate (OSAL_Timers)
                                                   osal_bm_free (osal_bufmgr)
                                                   osal_msg_deallocate (OSAL)

    *************************************************************************

  FILE NAME : C:\Users\MON\Desktop\IAR_TPMS\IAR Systems\SDK\BLE-CC254x-1.4.0\Projects\ble\BAT_MON\CC2541DB\CC2541\Obj\OSAL_PwrMgr.r51
  PROGRAM MODULE, NAME : OSAL_PwrMgr

  SEGMENTS IN THE MODULE
  ======================
XDATA_Z
  Relative segment, address: XDATA 00000378 - 0000037E (0x7 bytes), align: 0
  Segment part 7.             Intra module refs:   osal_pwrmgr_device
                                                   osal_pwrmgr_init
                                                   osal_pwrmgr_powerconserve
                                                   osal_pwrmgr_task_state
           ENTRY                   ADDRESS         REF BY
           =====                   =======         ======
           pwrmgr_attribute        00000378 
    -------------------------------------------------------------------------
<BANKED_CODE,CODE_C> 1 (was BANKED_CODE)
  Relative segment, address: CODE 0000641B - 00006428 (0xe bytes), align: 0
  Segment part 8.             Intra module refs:   osal_pwrmgr_init::?relay
           ENTRY                   ADDRESS         REF BY
           =====                   =======         ======
           osal_pwrmgr_init        0000641B 
               ISTACK = 00000000 ( 00000002 )
    -------------------------------------------------------------------------
<BANKED_CODE,CODE_C> 1 (was BANKED_CODE)
  Relative segment, address: CODE 00006429 - 00006430 (0x8 bytes), align: 0
  Segment part 10.            Intra module refs:   osal_pwrmgr_device
                                                   osal_pwrmgr_init
           LOCAL                   ADDRESS         
           =====                   =======         
           ?Subroutine0            00006429 
    -------------------------------------------------------------------------
<BANKED_CODE,CODE_C> 1 (was BANKED_CODE)
  Relative segment, address: CODE 00006431 - 0000643A (0xa bytes), align: 0
  Segment part 11.            Intra module refs:   osal_pwrmgr_device::?relay
           ENTRY                   ADDRESS         REF BY
           =====                   =======         ======
           osal_pwrmgr_device      00006431 
               ISTACK = 00000000 ( 00000002 )
    -------------------------------------------------------------------------
<BANKED_CODE,CODE_C> 1 (was BANKED_CODE)
  Relative segment, address: CODE 0000643B - 00006484 (0x4a bytes), align: 0
  Segment part 13.            Intra module refs:   osal_pwrmgr_task_state::?relay
           ENTRY                   ADDRESS         REF BY
           =====                   =======         ======
           osal_pwrmgr_task_state
                                   0000643B 
               XSTACK = 00000000 ( 0000000A )
    -------------------------------------------------------------------------
<BANKED_CODE,CODE_C> 1 (was BANKED_CODE)
  Relative segment, address: CODE 00006485 - 000064B2 (0x2e bytes), align: 0
  Segment part 15.            Intra module refs:   osal_pwrmgr_powerconserve::?relay
           ENTRY                   ADDRESS         REF BY
           =====                   =======         ======
           osal_pwrmgr_powerconserve
                                   00006485 
               calls direct
               XSTACK = 00000000 ( 0000000C )
    -------------------------------------------------------------------------
BANK_RELAYS
  Relative segment, address: CODE 00000580 - 00000585 (0x6 bytes), align: 0
  Segment part 9.
           ENTRY                   ADDRESS         REF BY
           =====                   =======         ======
           osal_pwrmgr_init::?relay
                                   00000580        osal_init_system (OSAL)
    -------------------------------------------------------------------------
BANK_RELAYS
  Relative segment, address: CODE 00000586 - 0000058B (0x6 bytes), align: 0
  Segment part 12.
           ENTRY                   ADDRESS         REF BY
           =====                   =======         ======
           osal_pwrmgr_device::?relay
                                   00000586        LL_ProcessEvent (ll)
    -------------------------------------------------------------------------
BANK_RELAYS
  Relative segment, address: CODE 0000058C - 00000591 (0x6 bytes), align: 0
  Segment part 14.
           ENTRY                   ADDRESS         REF BY
           =====                   =======         ======
           osal_pwrmgr_task_state::?relay
                                   0000058C        LL_Init (ll)
                                                   LL_PowerOnReq (ll_sleep)
                                                   LL_ProcessEvent (ll)
                                                   LL_SetAdvControl (ll)
    -------------------------------------------------------------------------
BANK_RELAYS
  Relative segment, address: CODE 00000592 - 00000597 (0x6 bytes), align: 0
  Segment part 16.
           ENTRY                   ADDRESS         REF BY
           =====                   =======         ======
           osal_pwrmgr_powerconserve::?relay
                                   00000592        osal_run_system (OSAL)

    *************************************************************************

  FILE NAME : C:\Users\MON\Desktop\IAR_TPMS\IAR Systems\SDK\BLE-CC254x-1.4.0\Projects\ble\BAT_MON\CC2541DB\CC2541\Obj\OSAL_Timers.r51
  PROGRAM MODULE, NAME : OSAL_Timers

  SEGMENTS IN THE MODULE
  ======================
XDATA_Z
  Relative segment, address: XDATA 0000037F - 00000380 (0x2 bytes), align: 0
  Segment part 7.             Intra module refs:   osalAddTimer
                                                   osalFindTimer
                                                   osalTimerUpdate
                                                   osal_next_timeout
           ENTRY                   ADDRESS         REF BY
           =====                   =======         ======
           timerHead               0000037F 
    -------------------------------------------------------------------------
XDATA_Z
  Relative segment, address: XDATA 00000381 - 00000384 (0x4 bytes), align: 0
  Segment part 8.             Intra module refs:   osalTimerInit
                                                   osalTimerUpdate
           LOCAL                   ADDRESS         
           =====                   =======         
           osal_systemClock        00000381 
    -------------------------------------------------------------------------
<BANKED_CODE,CODE_C> 1 (was BANKED_CODE)
  Relative segment, address: CODE 00003E92 - 00003EA2 (0x11 bytes), align: 0
  Segment part 9.             Intra module refs:   osalTimerInit::?relay
           ENTRY                   ADDRESS         REF BY
           =====                   =======         ======
           osalTimerInit           00003E92 
               XSTACK = 00000000 ( 00000009 )
    -------------------------------------------------------------------------
<BANKED_CODE,CODE_C> 1 (was BANKED_CODE)
  Relative segment, address: CODE 00003EA3 - 00003EA3 (0x1 bytes), align: 0
  Segment part 11.            Intra module refs:   osalTimerInit
                                                   osalTimerUpdate
           LOCAL                   ADDRESS         
           =====                   =======         
           ?Subroutine7            00003EA3 
    -------------------------------------------------------------------------
<BANKED_CODE,CODE_C> 1 (was BANKED_CODE)
  Relative segment, address: CODE 00003EA4 - 00003EAA (0x7 bytes), align: 0
  Segment part 12.            Intra module refs:   ?Subroutine7
                                                   osalAddTimer
    -------------------------------------------------------------------------
<BANKED_CODE,CODE_C> 1 (was BANKED_CODE)
  Relative segment, address: CODE 00003EAB - 00003F42 (0x98 bytes), align: 0
  Segment part 13.            Intra module refs:   osalAddTimer::?relay
           ENTRY                   ADDRESS         REF BY
           =====                   =======         ======
           osalAddTimer            00003EAB 
               calls direct
               XSTACK = 00000012 ( 0000000F )
               ISTACK = 00000000 ( 00000001 )
    -------------------------------------------------------------------------
<BANKED_CODE,CODE_C> 1 (was BANKED_CODE)
  Relative segment, address: CODE 00003F43 - 00003F4E (0xc bytes), align: 0
  Segment part 15.            Intra module refs:   osalAddTimer
           LOCAL                   ADDRESS         
           =====                   =======         
           ?Subroutine5            00003F43 
    -------------------------------------------------------------------------
<BANKED_CODE,CODE_C> 1 (was BANKED_CODE)
  Relative segment, address: CODE 00003F4F - 00003F8E (0x40 bytes), align: 0
  Segment part 16.            Intra module refs:   osalFindTimer::?relay
           ENTRY                   ADDRESS         REF BY
           =====                   =======         ======
           osalFindTimer           00003F4F 
               XSTACK = 0000000F ( 00000000 )
               ISTACK = 00000000 ( 00000002 )
    -------------------------------------------------------------------------
<BANKED_CODE,CODE_C> 1 (was BANKED_CODE)
  Relative segment, address: CODE 00003F8F - 00003FA7 (0x19 bytes), align: 0
  Segment part 18.            Intra module refs:   osalDeleteTimer::?relay
           ENTRY                   ADDRESS         REF BY
           =====                   =======         ======
           osalDeleteTimer         00003F8F 
               XSTACK = 0000000C ( 00000000 )
               ISTACK = 00000000 ( 00000002 )
    -------------------------------------------------------------------------
<BANKED_CODE,CODE_C> 1 (was BANKED_CODE)
  Relative segment, address: CODE 00003FA8 - 00003FDB (0x34 bytes), align: 0
  Segment part 20.            Intra module refs:   osal_start_timerEx::?relay
           ENTRY                   ADDRESS         REF BY
           =====                   =======         ======
           osal_start_timerEx      00003FA8 
               calls direct
               XSTACK = 00000004 ( 0000000E )
    -------------------------------------------------------------------------
<BANKED_CODE,CODE_C> 1 (was BANKED_CODE)
  Relative segment, address: CODE 00003FDC - 00004023 (0x48 bytes), align: 0
  Segment part 22.            Intra module refs:   osal_start_reload_timer::?relay
           ENTRY                   ADDRESS         REF BY
           =====                   =======         ======
           osal_start_reload_timer
                                   00003FDC 
               calls direct
               XSTACK = 00000004 ( 00000012 )
    -------------------------------------------------------------------------
<BANKED_CODE,CODE_C> 1 (was BANKED_CODE)
  Relative segment, address: CODE 00004024 - 00004028 (0x5 bytes), align: 0
  Segment part 24.            Intra module refs:   osal_start_reload_timer
           LOCAL                   ADDRESS         
           =====                   =======         
           ?Subroutine1            00004024 
    -------------------------------------------------------------------------
<BANKED_CODE,CODE_C> 1 (was BANKED_CODE)
  Relative segment, address: CODE 00004029 - 00004057 (0x2f bytes), align: 0
  Segment part 25.            Intra module refs:   osal_stop_timerEx::?relay
           ENTRY                   ADDRESS         REF BY
           =====                   =======         ======
           osal_stop_timerEx       00004029 
               calls direct
               XSTACK = 00000000 ( 0000000C )
    -------------------------------------------------------------------------
<BANKED_CODE,CODE_C> 1 (was BANKED_CODE)
  Relative segment, address: CODE 00004058 - 0000405C (0x5 bytes), align: 0
  Segment part 27.            Intra module refs:   osal_stop_timerEx
           LOCAL                   ADDRESS         
           =====                   =======         
           ?Subroutine2            00004058 
    -------------------------------------------------------------------------
<BANKED_CODE,CODE_C> 1 (was BANKED_CODE)
  Relative segment, address: CODE 0000405D - 00004063 (0x7 bytes), align: 0
  Segment part 32.            Intra module refs:   osalDeleteTimer
                                                   osalFindTimer
           LOCAL                   ADDRESS         
           =====                   =======         
           ?Subroutine0            0000405D 
    -------------------------------------------------------------------------
<BANKED_CODE,CODE_C> 1 (was BANKED_CODE)
  Relative segment, address: CODE 00004064 - 00004250 (0x1ed bytes), align: 0
  Segment part 33.            Intra module refs:   osalTimerUpdate::?relay
           ENTRY                   ADDRESS         REF BY
           =====                   =======         ======
           osalTimerUpdate         00004064 
               calls direct
               XSTACK = 0000000C ( 00000017 )
               ISTACK = 00000000 ( 00000001 )
    -------------------------------------------------------------------------
<BANKED_CODE,CODE_C> 1 (was BANKED_CODE)
  Relative segment, address: CODE 00004251 - 00004255 (0x5 bytes), align: 0
  Segment part 35.            Intra module refs:   osalTimerUpdate
                                                   osal_next_timeout
           LOCAL                   ADDRESS         
           =====                   =======         
           ?Subroutine3            00004251 
    -------------------------------------------------------------------------
<BANKED_CODE,CODE_C> 1 (was BANKED_CODE)
  Relative segment, address: CODE 00004256 - 00004259 (0x4 bytes), align: 0
  Segment part 38.            Intra module refs:   osalTimerUpdate
           LOCAL                   ADDRESS         
           =====                   =======         
           ?Subroutine4            00004256 
    -------------------------------------------------------------------------
<BANKED_CODE,CODE_C> 1 (was BANKED_CODE)
  Relative segment, address: CODE 0000425A - 0000425B (0x2 bytes), align: 0
  Segment part 39.            Intra module refs:   ?Subroutine4
                                                   osalTimerUpdate
    -------------------------------------------------------------------------
<BANKED_CODE,CODE_C> 1 (was BANKED_CODE)
  Relative segment, address: CODE 0000425C - 00004263 (0x8 bytes), align: 0
  Segment part 40.            Intra module refs:   Segment part 39
                                                   osalAddTimer
                                                   osalTimerUpdate
                                                   osal_next_timeout
    -------------------------------------------------------------------------
<BANKED_CODE,CODE_C> 1 (was BANKED_CODE)
  Relative segment, address: CODE 00004264 - 000042C4 (0x61 bytes), align: 0
  Segment part 41.            Intra module refs:   osal_next_timeout::?relay
           ENTRY                   ADDRESS         REF BY
           =====                   =======         ======
           osal_next_timeout       00004264 
               XSTACK = 00000000 ( 00000010 )
    -------------------------------------------------------------------------
<BANKED_CODE,CODE_C> 1 (was BANKED_CODE)
  Relative segment, address: CODE 000042C5 - 000042CA (0x6 bytes), align: 0
  Segment part 43.            Intra module refs:   ?Subroutine6
                                                   osalTimerUpdate
                                                   osal_next_timeout
           LOCAL                   ADDRESS         
           =====                   =======         
           ?Subroutine8            000042C5 
    -------------------------------------------------------------------------
<BANKED_CODE,CODE_C> 1 (was BANKED_CODE)
  Relative segment, address: CODE 000042CB - 000042D0 (0x6 bytes), align: 0
  Segment part 44.            Intra module refs:   osalTimerUpdate
                                                   osal_next_timeout
           LOCAL                   ADDRESS         
           =====                   =======         
           ?Subroutine6            000042CB 
    -------------------------------------------------------------------------
BANK_RELAYS
  Relative segment, address: CODE 00000598 - 0000059D (0x6 bytes), align: 0
  Segment part 10.
           ENTRY                   ADDRESS         REF BY
           =====                   =======         ======
           osalTimerInit::?relay   00000598        osal_init_system (OSAL)
    -------------------------------------------------------------------------
BANK_RELAYS
  Relative segment, address: CODE 0000059E - 000005A3 (0x6 bytes), align: 0
  Segment part 14.            Intra module refs:   osal_start_reload_timer
                                                   osal_start_timerEx
           ENTRY                   ADDRESS         REF BY
           =====                   =======         ======
           osalAddTimer::?relay    0000059E 
    -------------------------------------------------------------------------
BANK_RELAYS
  Relative segment, address: CODE 000005A4 - 000005A9 (0x6 bytes), align: 0
  Segment part 17.            Intra module refs:   osalAddTimer
                                                   osal_stop_timerEx
           ENTRY                   ADDRESS         REF BY
           =====                   =======         ======
           osalFindTimer::?relay   000005A4 
    -------------------------------------------------------------------------
BANK_RELAYS
  Relative segment, address: CODE 000005AA - 000005AF (0x6 bytes), align: 0
  Segment part 19.            Intra module refs:   osal_stop_timerEx
           ENTRY                   ADDRESS         REF BY
           =====                   =======         ======
           osalDeleteTimer::?relay
                                   000005AA 
    -------------------------------------------------------------------------
BANK_RELAYS
  Relative segment, address: CODE 000005B0 - 000005B5 (0x6 bytes), align: 0
  Segment part 21.
           ENTRY                   ADDRESS         REF BY
           =====                   =======         ======
           osal_start_timerEx::?relay
                                   000005B0        BAT_MON_ProcessEvent (BAT_MON)
                                                   LL_ProcessEvent (ll)
                                                   gapProcessAdvertisingEvt (gap_peridevmgr)
                                                   gapRole_ProcessGAPMsg (broadcaster)
                                                   gapWriteAdvEnableStatus (gap_peridevmgr)
                                                   halProcessKeyInterrupt (hal_key)
                                                   llScheduleTask (ll_scheduler)
    -------------------------------------------------------------------------
BANK_RELAYS
  Relative segment, address: CODE 000005B6 - 000005BB (0x6 bytes), align: 0
  Segment part 23.
           ENTRY                   ADDRESS         REF BY
           =====                   =======         ======
           osal_start_reload_timer::?relay
                                   000005B6        GAP_MakeDiscoverable (gap_peridevmgr)
                                                   gapProcessRandomAddrComplete (gap_configmgr)
                                                   gapWriteAdvEnableStatus (gap_peridevmgr)
    -------------------------------------------------------------------------
BANK_RELAYS
  Relative segment, address: CODE 000005BC - 000005C1 (0x6 bytes), align: 0
  Segment part 26.
           ENTRY                   ADDRESS         REF BY
           =====                   =======         ======
           osal_stop_timerEx::?relay
                                   000005BC        GAP_EndDiscoverable (gap_peridevmgr)
                                                   LL_SetAdvControl (ll)
                                                   gapProcessAdvertisingEvt (gap_peridevmgr)
                                                   llT2OVFC1_ISR (ll_isr)
    -------------------------------------------------------------------------
BANK_RELAYS
  Relative segment, address: CODE 000005C2 - 000005C7 (0x6 bytes), align: 0
  Segment part 34.
           ENTRY                   ADDRESS         REF BY
           =====                   =======         ======
           osalTimerUpdate::?relay
                                   000005C2        osalTimeUpdate (OSAL_ClockBLE)
    -------------------------------------------------------------------------
BANK_RELAYS
  Relative segment, address: CODE 000005C8 - 000005CD (0x6 bytes), align: 0
  Segment part 42.
           ENTRY                   ADDRESS         REF BY
           =====                   =======         ======
           osal_next_timeout::?relay
                                   000005C8        osal_pwrmgr_powerconserve (OSAL_PwrMgr)

    *************************************************************************

  FILE NAME : C:\Users\MON\Desktop\IAR_TPMS\IAR Systems\SDK\BLE-CC254x-1.4.0\Projects\ble\BAT_MON\CC2541DB\CC2541\Obj\OnBoard.r51
  PROGRAM MODULE, NAME : OnBoard

  SEGMENTS IN THE MODULE
  ======================
NEAR_CODE
  Relative segment, address: CODE 000013EF - 000013F4 (0x6 bytes), align: 0
  Segment part 26.
           ENTRY                   ADDRESS         REF BY
           =====                   =======         ======
           Onboard_soft_reset      000013EF        LL_ProcessEvent (ll)

    *************************************************************************

  FILE NAME : C:\Users\MON\Desktop\IAR_TPMS\IAR Systems\SDK\BLE-CC254x-1.4.0\Projects\ble\BAT_MON\CC2541DB\CC2541\Obj\broadcaster.r51
  PROGRAM MODULE, NAME : broadcaster

  SEGMENTS IN THE MODULE
  ======================
XDATA_Z
  Relative segment, address: XDATA 00000385 - 00000385 (0x1 bytes), align: 0
  Segment part 6.             Intra module refs:   GAPRole_Init
                                                   GAPRole_ProcessEvent
                                                   GAPRole_SetParameter
                                                   GAPRole_StartDevice
                                                   gapRole_ProcessGAPMsg
           LOCAL                   ADDRESS         
           =====                   =======         
           gapRole_TaskID          00000385 
    -------------------------------------------------------------------------
XDATA_Z
  Relative segment, address: XDATA 00000386 - 00000386 (0x1 bytes), align: 0
  Segment part 7.             Intra module refs:   GAPRole_Init
                                                   GAPRole_ProcessEvent
                                                   GAPRole_SetParameter
                                                   GAPRole_StartDevice
                                                   gapRole_ProcessGAPMsg
           LOCAL                   ADDRESS         
           =====                   =======         
           gapRole_state           00000386 
    -------------------------------------------------------------------------
XDATA_Z
  Relative segment, address: XDATA 00000387 - 00000387 (0x1 bytes), align: 0
  Segment part 8.             Intra module refs:   GAPRole_Init
                                                   GAPRole_StartDevice
           LOCAL                   ADDRESS         
           =====                   =======         
           gapRole_profileRole     00000387 
    -------------------------------------------------------------------------
XDATA_Z
  Relative segment, address: XDATA 00000388 - 0000038D (0x6 bytes), align: 0
  Segment part 9.             Intra module refs:   gapRole_ProcessGAPMsg
           LOCAL                   ADDRESS         
           =====                   =======         
           gapRole_bdAddr          00000388 
    -------------------------------------------------------------------------
XDATA_I
  Relative segment, address: XDATA 000004DE - 000004DE (0x1 bytes), align: 0
  Segment part 10.            Intra module refs:   GAPRole_ProcessEvent
                                                   GAPRole_SetParameter
                                                   gapRole_ProcessGAPMsg
           LOCAL                   ADDRESS         
           =====                   =======         
           gapRole_AdvEnabled      000004DE 
    -------------------------------------------------------------------------
XDATA_I
  Relative segment, address: XDATA 000004DF - 000004E0 (0x2 bytes), align: 0
  Segment part 12.            Intra module refs:   GAPRole_SetParameter
                                                   gapRole_ProcessGAPMsg
           LOCAL                   ADDRESS         
           =====                   =======         
           gapRole_AdvertOffTime   000004DF 
    -------------------------------------------------------------------------
XDATA_I
  Relative segment, address: XDATA 000004E1 - 000004E1 (0x1 bytes), align: 0
  Segment part 14.            Intra module refs:   GAPRole_SetParameter
                                                   gapRole_ProcessGAPMsg
           LOCAL                   ADDRESS         
           =====                   =======         
           gapRole_AdvertDataLen   000004E1 
    -------------------------------------------------------------------------
XDATA_I
  Relative segment, address: XDATA 000004E2 - 00000500 (0x1f bytes), align: 0
  Segment part 16.            Intra module refs:   GAPRole_SetParameter
                                                   gapRole_ProcessGAPMsg
           LOCAL                   ADDRESS         
           =====                   =======         
           gapRole_AdvertData      000004E2 
    -------------------------------------------------------------------------
XDATA_Z
  Relative segment, address: XDATA 0000038E - 0000038E (0x1 bytes), align: 0
  Segment part 18.            Intra module refs:   GAPRole_SetParameter
                                                   gapRole_ProcessGAPMsg
           LOCAL                   ADDRESS         
           =====                   =======         
           gapRole_ScanRspDataLen
                                   0000038E 
    -------------------------------------------------------------------------
XDATA_Z
  Relative segment, address: XDATA 0000038F - 000003AD (0x1f bytes), align: 0
  Segment part 19.            Intra module refs:   GAPRole_SetParameter
                                                   gapRole_ProcessGAPMsg
           LOCAL                   ADDRESS         
           =====                   =======         
           gapRole_ScanRspData     0000038F 
    -------------------------------------------------------------------------
XDATA_Z
  Relative segment, address: XDATA 000003AE - 000003AE (0x1 bytes), align: 0
  Segment part 20.            Intra module refs:   GAPRole_Init
                                                   GAPRole_ProcessEvent
                                                   GAPRole_SetParameter
           LOCAL                   ADDRESS         
           =====                   =======         
           gapRole_AdvEventType    000003AE 
    -------------------------------------------------------------------------
XDATA_Z
  Relative segment, address: XDATA 000003AF - 000003AF (0x1 bytes), align: 0
  Segment part 21.            Intra module refs:   GAPRole_Init
                                                   GAPRole_ProcessEvent
                                                   GAPRole_SetParameter
           LOCAL                   ADDRESS         
           =====                   =======         
           gapRole_AdvDirectType   000003AF 
    -------------------------------------------------------------------------
XDATA_Z
  Relative segment, address: XDATA 000003B0 - 000003B5 (0x6 bytes), align: 0
  Segment part 22.            Intra module refs:   GAPRole_ProcessEvent
                                                   GAPRole_SetParameter
           LOCAL                   ADDRESS         
           =====                   =======         
           gapRole_AdvDirectAddr   000003B0 
    -------------------------------------------------------------------------
XDATA_Z
  Relative segment, address: XDATA 000003B6 - 000003B6 (0x1 bytes), align: 0
  Segment part 23.            Intra module refs:   GAPRole_Init
                                                   GAPRole_ProcessEvent
                                                   GAPRole_SetParameter
           LOCAL                   ADDRESS         
           =====                   =======         
           gapRole_AdvChanMap      000003B6 
    -------------------------------------------------------------------------
XDATA_Z
  Relative segment, address: XDATA 000003B7 - 000003B7 (0x1 bytes), align: 0
  Segment part 24.            Intra module refs:   GAPRole_Init
                                                   GAPRole_ProcessEvent
                                                   GAPRole_SetParameter
           LOCAL                   ADDRESS         
           =====                   =======         
           gapRole_AdvFilterPolicy
                                   000003B7 
    -------------------------------------------------------------------------
XDATA_Z
  Relative segment, address: XDATA 000003B8 - 000003B9 (0x2 bytes), align: 0
  Segment part 25.            Intra module refs:   ?Subroutine1
                                                   GAPRole_StartDevice
           LOCAL                   ADDRESS         
           =====                   =======         
           pGapRoles_AppCGs        000003B8 
    -------------------------------------------------------------------------
<BANKED_CODE,CODE_C> 1 (was BANKED_CODE)
  Relative segment, address: CODE 00003A42 - 00003BFF (0x1be bytes), align: 0
  Segment part 26.            Intra module refs:   GAPRole_SetParameter::?relay
           ENTRY                   ADDRESS         REF BY
           =====                   =======         ======
           GAPRole_SetParameter    00003A42 
               calls direct
               XSTACK = 00000000 ( 00000010 )
    -------------------------------------------------------------------------
<BANKED_CODE,CODE_C> 1 (was BANKED_CODE)
  Relative segment, address: CODE 00003C00 - 00003C04 (0x5 bytes), align: 0
  Segment part 30.            Intra module refs:   GAPRole_ProcessEvent
                                                   gapRole_ProcessGAPMsg
           LOCAL                   ADDRESS         
           =====                   =======         
           ?Subroutine0            00003C00 
    -------------------------------------------------------------------------
<BANKED_CODE,CODE_C> 1 (was BANKED_CODE)
  Relative segment, address: CODE 00003C05 - 00003C4D (0x49 bytes), align: 0
  Segment part 32.            Intra module refs:   GAPRole_StartDevice::?relay
           ENTRY                   ADDRESS         REF BY
           =====                   =======         ======
           GAPRole_StartDevice     00003C05 
               calls direct
               XSTACK = 00000000 ( 0000000E )
    -------------------------------------------------------------------------
<BANKED_CODE,CODE_C> 1 (was BANKED_CODE)
  Relative segment, address: CODE 00003C4E - 00003C80 (0x33 bytes), align: 0
  Segment part 34.            Intra module refs:   GAPRole_Init::?relay
           ENTRY                   ADDRESS         REF BY
           =====                   =======         ======
           GAPRole_Init            00003C4E 
               calls direct
               XSTACK = 00000000 ( 00000009 )
    -------------------------------------------------------------------------
<BANKED_CODE,CODE_C> 1 (was BANKED_CODE)
  Relative segment, address: CODE 00003C81 - 00003D64 (0xe4 bytes), align: 0
  Segment part 36.            Intra module refs:   GAPRole_ProcessEvent::?relay
           ENTRY                   ADDRESS         REF BY
           =====                   =======         ======
           GAPRole_ProcessEvent    00003C81 
               calls direct
               XSTACK = 00000000 ( 00000018 )
               ISTACK = 00000000 ( 00000001 )
    -------------------------------------------------------------------------
<BANKED_CODE,CODE_C> 1 (was BANKED_CODE)
  Relative segment, address: CODE 00003D65 - 00003D67 (0x3 bytes), align: 0
  Segment part 38.            Intra module refs:   GAPRole_ProcessEvent
                                                   gapRole_ProcessGAPMsg
           LOCAL                   ADDRESS         
           =====                   =======         
           ?Subroutine1            00003D65 
    -------------------------------------------------------------------------
<BANKED_CODE,CODE_C> 1 (was BANKED_CODE)
  Relative segment, address: CODE 00003D68 - 00003D6D (0x6 bytes), align: 0
  Segment part 39.            Intra module refs:   ?Subroutine1
                                                   gapRole_ProcessGAPMsg
    -------------------------------------------------------------------------
<BANKED_CODE,CODE_C> 1 (was BANKED_CODE)
  Relative segment, address: CODE 00003D6E - 00003E82 (0x115 bytes), align: 0
  Segment part 40.            Intra module refs:   gapRole_ProcessGAPMsg::?relay
           LOCAL                   ADDRESS         
           =====                   =======         
           gapRole_ProcessGAPMsg   00003D6E 
               calls direct
               XSTACK = 00000016 ( 00000010 )
               ISTACK = 00000000 ( 00000001 )
    -------------------------------------------------------------------------
<BANKED_CODE,CODE_C> 1 (was BANKED_CODE)
  Relative segment, address: CODE 00003E83 - 00003E8B (0x9 bytes), align: 0
  Segment part 42.            Intra module refs:   GAPRole_ProcessEvent
                                                   gapRole_ProcessGAPMsg
           LOCAL                   ADDRESS         
           =====                   =======         
           ?Subroutine2            00003E83 
    -------------------------------------------------------------------------
<BANKED_CODE,CODE_C> 1 (was BANKED_CODE)
  Relative segment, address: CODE 00003E8C - 00003E91 (0x6 bytes), align: 0
  Segment part 43.            Intra module refs:   ?Subroutine2
                                                   GAPRole_SetParameter
                                                   Segment part 39
           LOCAL                   ADDRESS         
           =====                   =======         
           ?Subroutine4            00003E8C 
    -------------------------------------------------------------------------
XDATA_ID
  Relative segment, address: CODE 00000201 - 00000201 (0x1 bytes), align: 0
  Segment part 11.            Intra module refs:   gapRole_AdvEnabled
    -------------------------------------------------------------------------
XDATA_ID
  Relative segment, address: CODE 00000202 - 00000203 (0x2 bytes), align: 0
  Segment part 13.            Intra module refs:   gapRole_AdvertOffTime
    -------------------------------------------------------------------------
XDATA_ID
  Relative segment, address: CODE 00000204 - 00000204 (0x1 bytes), align: 0
  Segment part 15.            Intra module refs:   gapRole_AdvertDataLen
    -------------------------------------------------------------------------
XDATA_ID
  Relative segment, address: CODE 00000205 - 00000223 (0x1f bytes), align: 0
  Segment part 17.            Intra module refs:   gapRole_AdvertData
    -------------------------------------------------------------------------
BANK_RELAYS
  Relative segment, address: CODE 000005CE - 000005D3 (0x6 bytes), align: 0
  Segment part 27.
           ENTRY                   ADDRESS         REF BY
           =====                   =======         ======
           GAPRole_SetParameter::?relay
                                   000005CE        BAT_MON_Init (BAT_MON)
    -------------------------------------------------------------------------
BANK_RELAYS
  Relative segment, address: CODE 000005D4 - 000005D9 (0x6 bytes), align: 0
  Segment part 33.
           ENTRY                   ADDRESS         REF BY
           =====                   =======         ======
           GAPRole_StartDevice::?relay
                                   000005D4        BAT_MON_ProcessEvent (BAT_MON)
    -------------------------------------------------------------------------
BANK_RELAYS
  Relative segment, address: CODE 000005DA - 000005DF (0x6 bytes), align: 0
  Segment part 35.
           ENTRY                   ADDRESS         REF BY
           =====                   =======         ======
           GAPRole_Init::?relay    000005DA        osalInitTasks (OSAL_BAT_MON)
    -------------------------------------------------------------------------
BANK_RELAYS
  Relative segment, address: CODE 000005E0 - 000005E5 (0x6 bytes), align: 0
  Segment part 37.
           ENTRY                   ADDRESS         REF BY
           =====                   =======         ======
           GAPRole_ProcessEvent::?relay
                                   000005E0        tasksArr (OSAL_BAT_MON)
    -------------------------------------------------------------------------
BANK_RELAYS
  Relative segment, address: CODE 000005E6 - 000005EB (0x6 bytes), align: 0
  Segment part 41.            Intra module refs:   GAPRole_ProcessEvent
           LOCAL                   ADDRESS         
           =====                   =======         
           gapRole_ProcessGAPMsg::?relay
                                   000005E6 

    *************************************************************************

  FILE NAME : C:\Users\MON\Desktop\IAR_TPMS\IAR Systems\SDK\BLE-CC254x-1.4.0\Projects\ble\BAT_MON\CC2541DB\CC2541\Obj\gap.r51
  PROGRAM MODULE, NAME : gap

  SEGMENTS IN THE MODULE
  ======================
<BANKED_CODE,CODE_C> 1 (was BANKED_CODE)
  Relative segment, address: CODE 000065FA - 0000661B (0x22 bytes), align: 0
  Segment part 6.             Intra module refs:   GAP_DeviceInit::?relay
           ENTRY                   ADDRESS         REF BY
           =====                   =======         ======
           GAP_DeviceInit          000065FA 
               calls direct
               XSTACK = 00000004 ( 00000009 )
    -------------------------------------------------------------------------
BANK_RELAYS
  Relative segment, address: CODE 000005EC - 000005F1 (0x6 bytes), align: 0
  Segment part 7.
           ENTRY                   ADDRESS         REF BY
           =====                   =======         ======
           GAP_DeviceInit::?relay
                                   000005EC        GAPRole_StartDevice (broadcaster)

    *************************************************************************

  FILE NAME : C:\Users\MON\Desktop\IAR_TPMS\IAR Systems\SDK\BLE-CC254x-1.4.0\Projects\ble\BAT_MON\CC2541DB\CC2541\Obj\hal_adc.r51
  PROGRAM MODULE, NAME : hal_adc

  SEGMENTS IN THE MODULE
  ======================
XDATA_Z
  Relative segment, address: XDATA 000003BA - 000003BA (0x1 bytes), align: 0
  Segment part 11.            Intra module refs:   HalAdcRead
           LOCAL                   ADDRESS         
           =====                   =======         
           adcRef                  000003BA 
    -------------------------------------------------------------------------
<BANKED_CODE,CODE_C> 1 (was BANKED_CODE)
  Relative segment, address: CODE 000062DD - 00006381 (0xa5 bytes), align: 0
  Segment part 15.            Intra module refs:   HalAdcRead::?relay
           ENTRY                   ADDRESS         REF BY
           =====                   =======         ======
           HalAdcRead              000062DD 
               XSTACK = 00000000 ( 0000000A )
    -------------------------------------------------------------------------
BANK_RELAYS
  Relative segment, address: CODE 000005F2 - 000005F7 (0x6 bytes), align: 0
  Segment part 16.
           ENTRY                   ADDRESS         REF BY
           =====                   =======         ======
           HalAdcRead::?relay      000005F2        halGetJoyKeyInput (hal_key)

    *************************************************************************

  FILE NAME : C:\Users\MON\Desktop\IAR_TPMS\IAR Systems\SDK\BLE-CC254x-1.4.0\Projects\ble\BAT_MON\CC2541DB\CC2541\Obj\hal_aes.r51
  PROGRAM MODULE, NAME : hal_aes

  SEGMENTS IN THE MODULE
  ======================
SFR_AN
  Relative segment, address: DATA 000000B3 - 000000B3 (0x1 bytes), align: 0
  Segment part 1. ROOT.
           ENTRY                   ADDRESS         REF BY
           =====                   =======         ======
           ENCCS                   000000B3 
    -------------------------------------------------------------------------
SFR_AN
  Relative segment, address: DATA 000000D1 - 000000D1 (0x1 bytes), align: 0
  Segment part 2. ROOT.       Intra module refs:   HalFlashWrite (hal_flash)
           ENTRY                   ADDRESS         REF BY
           =====                   =======         ======
           DMAIRQ                  000000D1 
    -------------------------------------------------------------------------
SFR_AN
  Relative segment, address: DATA 000000D6 - 000000D6 (0x1 bytes), align: 0
  Segment part 3. ROOT.       Intra module refs:   HalFlashWrite (hal_flash)
           ENTRY                   ADDRESS         REF BY
           =====                   =======         ======
           DMAARM                  000000D6 

    *************************************************************************

  FILE NAME : C:\Users\MON\Desktop\IAR_TPMS\IAR Systems\SDK\BLE-CC254x-1.4.0\Projects\ble\BAT_MON\CC2541DB\CC2541\Obj\hal_dma.r51
  PROGRAM MODULE, NAME : hal_dma

  SEGMENTS IN THE MODULE
  ======================
SFR_AN
  Relative segment, address: DATA 000000D2 - 000000D2 (0x1 bytes), align: 0
  Segment part 1. ROOT.
           ENTRY                   ADDRESS         REF BY
           =====                   =======         ======
           DMA1CFGL                000000D2 
    -------------------------------------------------------------------------
SFR_AN
  Relative segment, address: DATA 000000D3 - 000000D3 (0x1 bytes), align: 0
  Segment part 2. ROOT.
           ENTRY                   ADDRESS         REF BY
           =====                   =======         ======
           DMA1CFGH                000000D3 
    -------------------------------------------------------------------------
SFR_AN
  Relative segment, address: DATA 000000D4 - 000000D4 (0x1 bytes), align: 0
  Segment part 3. ROOT.
           ENTRY                   ADDRESS         REF BY
           =====                   =======         ======
           DMA0CFGL                000000D4 
    -------------------------------------------------------------------------
SFR_AN
  Relative segment, address: DATA 000000D5 - 000000D5 (0x1 bytes), align: 0
  Segment part 4. ROOT.
           ENTRY                   ADDRESS         REF BY
           =====                   =======         ======
           DMA0CFGH                000000D5 
    -------------------------------------------------------------------------
XDATA_Z
  Relative segment, address: XDATA 000003BB - 000003C2 (0x8 bytes), align: 0
  Segment part 10.
           ENTRY                   ADDRESS         REF BY
           =====                   =======         ======
           dmaCh0                  000003BB        HalFlashWrite (hal_flash)
    -------------------------------------------------------------------------
XDATA_Z
  Relative segment, address: XDATA 000003C3 - 000003E2 (0x20 bytes), align: 0
  Segment part 11.
           ENTRY                   ADDRESS         REF BY
           =====                   =======         ======
           dmaCh1234               000003C3        LL_ENC_InitAesDMA (ll_enc)

    *************************************************************************

  FILE NAME : C:\Users\MON\Desktop\IAR_TPMS\IAR Systems\SDK\BLE-CC254x-1.4.0\Projects\ble\BAT_MON\CC2541DB\CC2541\Obj\hal_drivers.r51
  PROGRAM MODULE, NAME : hal_drivers

  SEGMENTS IN THE MODULE
  ======================
XDATA_Z
  Relative segment, address: XDATA 000003E3 - 000003E3 (0x1 bytes), align: 0
  Segment part 6.
           ENTRY                   ADDRESS         REF BY
           =====                   =======         ======
           Hal_TaskID              000003E3        halProcessKeyInterrupt (hal_key)
    -------------------------------------------------------------------------
<BANKED_CODE,CODE_C> 1 (was BANKED_CODE)
  Relative segment, address: CODE 00006644 - 00006649 (0x6 bytes), align: 0
  Segment part 15.            Intra module refs:   Hal_ProcessPoll::?relay
           ENTRY                   ADDRESS         REF BY
           =====                   =======         ======
           Hal_ProcessPoll         00006644 
    -------------------------------------------------------------------------
BANK_RELAYS
  Relative segment, address: CODE 000005F8 - 000005FD (0x6 bytes), align: 0
  Segment part 16.
           ENTRY                   ADDRESS         REF BY
           =====                   =======         ======
           Hal_ProcessPoll::?relay
                                   000005F8        osal_run_system (OSAL)

    *************************************************************************

  FILE NAME : C:\Users\MON\Desktop\IAR_TPMS\IAR Systems\SDK\BLE-CC254x-1.4.0\Projects\ble\BAT_MON\CC2541DB\CC2541\Obj\hal_flash.r51
  PROGRAM MODULE, NAME : hal_flash

  SEGMENTS IN THE MODULE
  ======================
SFR_AN
  Relative segment, address: DATA 000000C7 - 000000C7 (0x1 bytes), align: 0
  Segment part 2. ROOT.       Intra module refs:   HalFlashRead
                                                   __low_level_init (hal_startup)
           ENTRY                   ADDRESS         REF BY
           =====                   =======         ======
           MEMCTR                  000000C7 
    -------------------------------------------------------------------------
<BANKED_CODE,CODE_C> 1 (was BANKED_CODE)
  Relative segment, address: CODE 00005E68 - 00005EEC (0x85 bytes), align: 0
  Segment part 10.            Intra module refs:   HalFlashRead::?relay
           ENTRY                   ADDRESS         REF BY
           =====                   =======         ======
           HalFlashRead            00005E68 
               XSTACK = 00000002 ( 0000000B )
               ISTACK = 00000000 ( 00000001 )
    -------------------------------------------------------------------------
<BANKED_CODE,CODE_C> 1 (was BANKED_CODE)
  Relative segment, address: CODE 00005EED - 00005F52 (0x66 bytes), align: 0
  Segment part 12.            Intra module refs:   HalFlashWrite::?relay
           ENTRY                   ADDRESS         REF BY
           =====                   =======         ======
           HalFlashWrite           00005EED 
               XSTACK = 00000002 ( 0000000A )
    -------------------------------------------------------------------------
<BANKED_CODE,CODE_C> 1 (was BANKED_CODE)
  Relative segment, address: CODE 00005F53 - 00005F6B (0x19 bytes), align: 0
  Segment part 14.            Intra module refs:   HalFlashErase::?relay
           ENTRY                   ADDRESS         REF BY
           =====                   =======         ======
           HalFlashErase           00005F53 
               ISTACK = 00000000 ( 00000002 )
    -------------------------------------------------------------------------
BANK_RELAYS
  Relative segment, address: CODE 000005FE - 00000603 (0x6 bytes), align: 0
  Segment part 11.
           ENTRY                   ADDRESS         REF BY
           =====                   =======         ======
           HalFlashRead::?relay    000005FE        LL_Init (ll)
                                                   cleanErasedPage (osal_snv)
                                                   compactPage (osal_snv)
                                                   erasePage (osal_snv)
                                                   findItem (osal_snv)
                                                   findOffset (osal_snv)
                                                   initNV (osal_snv)
                                                   verifyWordM (osal_snv)
    -------------------------------------------------------------------------
BANK_RELAYS
  Relative segment, address: CODE 00000604 - 00000609 (0x6 bytes), align: 0
  Segment part 13.
           ENTRY                   ADDRESS         REF BY
           =====                   =======         ======
           HalFlashWrite::?relay   00000604        llFindTxPowerSettings (ll_common)
                                                   writeWord (osal_snv)
    -------------------------------------------------------------------------
BANK_RELAYS
  Relative segment, address: CODE 0000060A - 0000060F (0x6 bytes), align: 0
  Segment part 15.
           ENTRY                   ADDRESS         REF BY
           =====                   =======         ======
           HalFlashErase::?relay   0000060A        erasePage (osal_snv)

    *************************************************************************

  FILE NAME : C:\Users\MON\Desktop\IAR_TPMS\IAR Systems\SDK\BLE-CC254x-1.4.0\Projects\ble\BAT_MON\CC2541DB\CC2541\Obj\hal_key.r51
  PROGRAM MODULE, NAME : hal_key

  SEGMENTS IN THE MODULE
  ======================
SFR_AN
  Relative segment, address: DATA 00000089 - 00000089 (0x1 bytes), align: 0
  Segment part 2. ROOT.       Intra module refs:   halKeyPort0Isr
                                                   halProcessKeyInterrupt
           ENTRY                   ADDRESS         REF BY
           =====                   =======         ======
           P0IFG                   00000089 
    -------------------------------------------------------------------------
SFR_AN
  Relative segment, address: DATA 0000008B - 0000008B (0x1 bytes), align: 0
  Segment part 3. ROOT.       Intra module refs:   halKeyPort2Isr
                                                   halProcessKeyInterrupt
           ENTRY                   ADDRESS         REF BY
           =====                   =======         ======
           P2IFG                   0000008B 
    -------------------------------------------------------------------------
SFR_AN
  Relative segment, address: DATA 0000008C - 0000008C (0x1 bytes), align: 0
  Segment part 4. ROOT.
           ENTRY                   ADDRESS         REF BY
           =====                   =======         ======
           PICTL                   0000008C 
    -------------------------------------------------------------------------
SFR_AN
  Relative segment, address: DATA 0000009A - 0000009A (0x1 bytes), align: 0
  Segment part 5. ROOT.       Intra module refs:   halSleep (hal_sleep)
                                                   llClearSetInts (ll_common)
           ENTRY                   ADDRESS         REF BY
           =====                   =======         ======
           IEN2                    0000009A 
    -------------------------------------------------------------------------
SFR_AN
  Relative segment, address: DATA 000000A0 - 000000A0 (0x1 bytes), align: 0
  Segment part 6. ROOT.       Intra module refs:   HalKeyRead
                                                   LL_PowerOffReq (ll_sleep)
                                                   LL_PowerOnReq (ll_sleep)
           ENTRY                   ADDRESS         REF BY
           =====                   =======         ======
           _A_P2                   000000A0 
           LOCAL                   ADDRESS         
           =====                   =======         
           P2                      000000A0 
    -------------------------------------------------------------------------
SFR_AN
  Relative segment, address: DATA 000000AB - 000000AB (0x1 bytes), align: 0
  Segment part 8. ROOT.
           ENTRY                   ADDRESS         REF BY
           =====                   =======         ======
           P0IEN                   000000AB 
    -------------------------------------------------------------------------
SFR_AN
  Relative segment, address: DATA 000000AC - 000000AC (0x1 bytes), align: 0
  Segment part 9. ROOT.
           ENTRY                   ADDRESS         REF BY
           =====                   =======         ======
           P2IEN                   000000AC 
    -------------------------------------------------------------------------
SFR_AN
  Relative segment, address: DATA 000000B8 - 000000B8 (0x1 bytes), align: 0
  Segment part 10. ROOT.      Intra module refs:   halSleep (hal_sleep)
                                                   llClearSetInts (ll_common)
           ENTRY                   ADDRESS         REF BY
           =====                   =======         ======
           _A_IEN1                 000000B8 
           LOCAL                   ADDRESS         
           =====                   =======         
           IEN1                    000000B8 
    -------------------------------------------------------------------------
SFR_AN
  Relative segment, address: DATA 000000C0 - 000000C0 (0x1 bytes), align: 0
  Segment part 11. ROOT.      Intra module refs:   halKeyPort0Isr
                                                   halSleep (hal_sleep)
                                                   halSleepSetTimer (hal_sleep)
                                                   halSleepTimerIsr (hal_sleep)
                                                   llClearSetInts (ll_common)
           ENTRY                   ADDRESS         REF BY
           =====                   =======         ======
           _A_IRCON                000000C0 
           LOCAL                   ADDRESS         
           =====                   =======         
           IRCON                   000000C0 
    -------------------------------------------------------------------------
SFR_AN
  Relative segment, address: DATA 000000E8 - 000000E8 (0x1 bytes), align: 0
  Segment part 12. ROOT.      Intra module refs:   halKeyPort2Isr
           ENTRY                   ADDRESS         REF BY
           =====                   =======         ======
           _A_IRCON2               000000E8 
           LOCAL                   ADDRESS         
           =====                   =======         
           IRCON2                  000000E8 
    -------------------------------------------------------------------------
SFR_AN
  Relative segment, address: DATA 000000F5 - 000000F5 (0x1 bytes), align: 0
  Segment part 14. ROOT.
           ENTRY                   ADDRESS         REF BY
           =====                   =======         ======
           P2SEL                   000000F5 
    -------------------------------------------------------------------------
SFR_AN
  Relative segment, address: DATA 000000F7 - 000000F7 (0x1 bytes), align: 0
  Segment part 15. ROOT.
           ENTRY                   ADDRESS         REF BY
           =====                   =======         ======
           P2INP                   000000F7 
    -------------------------------------------------------------------------
SFR_AN
  Relative segment, address: DATA 000000FF - 000000FF (0x1 bytes), align: 0
  Segment part 17. ROOT.
           ENTRY                   ADDRESS         REF BY
           =====                   =======         ======
           P2DIR                   000000FF 
    -------------------------------------------------------------------------
<BANKED_CODE,CODE_C> 1 (was BANKED_CODE)
  Relative segment, address: CODE 00006165 - 0000616B (0x7 bytes), align: 0
  Segment part 32.            Intra module refs:   HalKeyExitSleep
                                                   halProcessKeyInterrupt
           LOCAL                   ADDRESS         
           =====                   =======         
           ?Subroutine0            00006165 
    -------------------------------------------------------------------------
<BANKED_CODE,CODE_C> 1 (was BANKED_CODE)
  Relative segment, address: CODE 0000616C - 00006186 (0x1b bytes), align: 0
  Segment part 35.            Intra module refs:   HalKeyRead::?relay
           ENTRY                   ADDRESS         REF BY
           =====                   =======         ======
           HalKeyRead              0000616C 
               calls direct
               XSTACK = 00000000 ( 00000009 )
    -------------------------------------------------------------------------
<BANKED_CODE,CODE_C> 1 (was BANKED_CODE)
  Relative segment, address: CODE 00006187 - 0000618B (0x5 bytes), align: 0
  Segment part 37.            Intra module refs:   HalKeyRead
                                                   halGetJoyKeyInput
           LOCAL                   ADDRESS         
           =====                   =======         
           ?Subroutine1            00006187 
    -------------------------------------------------------------------------
<BANKED_CODE,CODE_C> 1 (was BANKED_CODE)
  Relative segment, address: CODE 0000618C - 000061E4 (0x59 bytes), align: 0
  Segment part 40.            Intra module refs:   halGetJoyKeyInput::?relay
           ENTRY                   ADDRESS         REF BY
           =====                   =======         ======
           halGetJoyKeyInput       0000618C 
               calls direct
               XSTACK = 00000009 ( 00000009 )
    -------------------------------------------------------------------------
<BANKED_CODE,CODE_C> 1 (was BANKED_CODE)
  Relative segment, address: CODE 000061E5 - 0000621E (0x3a bytes), align: 0
  Segment part 42.            Intra module refs:   halProcessKeyInterrupt::?relay
           ENTRY                   ADDRESS         REF BY
           =====                   =======         ======
           halProcessKeyInterrupt
                                   000061E5 
               calls direct
               XSTACK = 0000000E ( 00000004 )
               ISTACK = 00000000 ( 00000002 )
    -------------------------------------------------------------------------
<BANKED_CODE,CODE_C> 1 (was BANKED_CODE)
  Relative segment, address: CODE 0000621F - 00006221 (0x3 bytes), align: 0
  Segment part 44.            Intra module refs:   HalKeyEnterSleep::?relay
           ENTRY                   ADDRESS         REF BY
           =====                   =======         ======
           HalKeyEnterSleep        0000621F 
    -------------------------------------------------------------------------
<BANKED_CODE,CODE_C> 1 (was BANKED_CODE)
  Relative segment, address: CODE 00006222 - 0000622B (0xa bytes), align: 0
  Segment part 46.            Intra module refs:   HalKeyExitSleep::?relay
           ENTRY                   ADDRESS         REF BY
           =====                   =======         ======
           HalKeyExitSleep         00006222 
               calls direct
               ISTACK = 00000000 ( 00000002 )
    -------------------------------------------------------------------------
NEAR_CODE
  Relative segment, address: CODE 000013F5 - 00001410 (0x1c bytes), align: 0
  Segment part 48.            Intra module refs:   halKeyPort0Isr::??INTVEC 107
           ENTRY                   ADDRESS         REF BY
           =====                   =======         ======
           halKeyPort0Isr          000013F5 
               interrupt function
               calls direct
               XSTACK = 00000000 ( 0000000E )
    -------------------------------------------------------------------------
NEAR_CODE
  Relative segment, address: CODE 00001411 - 0000141D (0xd bytes), align: 0
  Segment part 49.            Intra module refs:   halKeyPort0Isr
                                                   halKeyPort2Isr
           LOCAL                   ADDRESS         
           =====                   =======         
           ?Subroutine2            00001411 
    -------------------------------------------------------------------------
NEAR_CODE
  Relative segment, address: CODE 0000141E - 0000143B (0x1e bytes), align: 0
  Segment part 50.            Intra module refs:   halKeyPort2Isr::??INTVEC 51
           ENTRY                   ADDRESS         REF BY
           =====                   =======         ======
           halKeyPort2Isr          0000141E 
               interrupt function
               calls direct
               XSTACK = 00000000 ( 0000000E )
    -------------------------------------------------------------------------
INTVEC
  Common segment, address: CODE 00000000 - 00000035 (0x36 bytes), align: 0
  Segment part 18. ROOT.
           ENTRY                   ADDRESS         REF BY
           =====                   =======         ======
           halKeyPort2Isr::??INTVEC 51
                                   00000033 
    -------------------------------------------------------------------------
INTVEC
  Common segment, address: CODE 00000000 - 0000006D (0x6e bytes), align: 0
  Segment part 19. ROOT.
           ENTRY                   ADDRESS         REF BY
           =====                   =======         ======
           halKeyPort0Isr::??INTVEC 107
                                   0000006B 
    -------------------------------------------------------------------------
<XDATA_ROM_C> 1 (was XDATA_ROM_C)
  Relative segment, address: CONST 00008024 - 00008027 (0x4 bytes), align: 0
  Segment part 29.            Intra module refs:   halProcessKeyInterrupt
           ENTRY                   ADDRESS         REF BY
           =====                   =======         ======
           __Constant_19           00008024 
    -------------------------------------------------------------------------
BANK_RELAYS
  Relative segment, address: CODE 00000610 - 00000615 (0x6 bytes), align: 0
  Segment part 36.            Intra module refs:   HalKeyExitSleep
           ENTRY                   ADDRESS         REF BY
           =====                   =======         ======
           HalKeyRead::?relay      00000610 
    -------------------------------------------------------------------------
BANK_RELAYS
  Relative segment, address: CODE 00000616 - 0000061B (0x6 bytes), align: 0
  Segment part 41.            Intra module refs:   HalKeyRead
           ENTRY                   ADDRESS         REF BY
           =====                   =======         ======
           halGetJoyKeyInput::?relay
                                   00000616 
    -------------------------------------------------------------------------
BANK_RELAYS
  Relative segment, address: CODE 0000061C - 00000621 (0x6 bytes), align: 0
  Segment part 43.            Intra module refs:   halKeyPort0Isr
                                                   halKeyPort2Isr
           ENTRY                   ADDRESS         REF BY
           =====                   =======         ======
           halProcessKeyInterrupt::?relay
                                   0000061C 
    -------------------------------------------------------------------------
BANK_RELAYS
  Relative segment, address: CODE 00000622 - 00000627 (0x6 bytes), align: 0
  Segment part 45.
           ENTRY                   ADDRESS         REF BY
           =====                   =======         ======
           HalKeyEnterSleep::?relay
                                   00000622        halSleep (hal_sleep)
    -------------------------------------------------------------------------
BANK_RELAYS
  Relative segment, address: CODE 00000628 - 0000062D (0x6 bytes), align: 0
  Segment part 47.
           ENTRY                   ADDRESS         REF BY
           =====                   =======         ======
           HalKeyExitSleep::?relay
                                   00000628        halSleep (hal_sleep)
    -------------------------------------------------------------------------
<XDATA_ROM_C_FLASH> 1 (was XDATA_ROM_C_FLASH)
  Relative segment, address: CODE 00008024 - 00008027 (0x4 bytes), align: 0
  Segment part 51.            Intra module refs:   __Constant_19

    *************************************************************************

  FILE NAME : C:\Users\MON\Desktop\IAR_TPMS\IAR Systems\SDK\BLE-CC254x-1.4.0\Projects\ble\BAT_MON\CC2541DB\CC2541\Obj\hal_lcd.r51
  PROGRAM MODULE, NAME : hal_lcd

  SEGMENTS IN THE MODULE
  ======================
SFR_AN
  Relative segment, address: DATA 00000090 - 00000090 (0x1 bytes), align: 0
  Segment part 2. ROOT.       Intra module refs:   LL_PowerOffReq (ll_sleep)
                                                   LL_PowerOnReq (ll_sleep)
                                                   llExtendRfRange (ll_common)
                                                   llProcessPostRfOps (ll_common)
                                                   llRfInit (ll_common)
           ENTRY                   ADDRESS         REF BY
           =====                   =======         ======
           _A_P1                   00000090 
           LOCAL                   ADDRESS         
           =====                   =======         
           P1                      00000090 
    -------------------------------------------------------------------------
SFR_AN
  Relative segment, address: DATA 000000F1 - 000000F1 (0x1 bytes), align: 0
  Segment part 3. ROOT.
           ENTRY                   ADDRESS         REF BY
           =====                   =======         ======
           PERCFG                  000000F1 
    -------------------------------------------------------------------------
SFR_AN
  Relative segment, address: DATA 000000F4 - 000000F4 (0x1 bytes), align: 0
  Segment part 5. ROOT.       Intra module refs:   LL_PowerOffReq (ll_sleep)
                                                   llExtendRfRange (ll_common)
           ENTRY                   ADDRESS         REF BY
           =====                   =======         ======
           P1SEL                   000000F4 
    -------------------------------------------------------------------------
SFR_AN
  Relative segment, address: DATA 000000F8 - 000000F8 (0x1 bytes), align: 0
  Segment part 6. ROOT.
           ENTRY                   ADDRESS         REF BY
           =====                   =======         ======
           _A_U1CSR                000000F8 
           LOCAL                   ADDRESS         
           =====                   =======         
           U1CSR                   000000F8 
    -------------------------------------------------------------------------
SFR_AN
  Relative segment, address: DATA 000000F9 - 000000F9 (0x1 bytes), align: 0
  Segment part 7. ROOT.
           ENTRY                   ADDRESS         REF BY
           =====                   =======         ======
           U1DBUF                  000000F9 
    -------------------------------------------------------------------------
SFR_AN
  Relative segment, address: DATA 000000FA - 000000FA (0x1 bytes), align: 0
  Segment part 8. ROOT.
           ENTRY                   ADDRESS         REF BY
           =====                   =======         ======
           U1BAUD                  000000FA 
    -------------------------------------------------------------------------
SFR_AN
  Relative segment, address: DATA 000000FB - 000000FB (0x1 bytes), align: 0
  Segment part 9. ROOT.
           ENTRY                   ADDRESS         REF BY
           =====                   =======         ======
           U1UCR                   000000FB 
    -------------------------------------------------------------------------
SFR_AN
  Relative segment, address: DATA 000000FC - 000000FC (0x1 bytes), align: 0
  Segment part 10. ROOT.
           ENTRY                   ADDRESS         REF BY
           =====                   =======         ======
           U1GCR                   000000FC 
    -------------------------------------------------------------------------
SFR_AN
  Relative segment, address: DATA 000000FE - 000000FE (0x1 bytes), align: 0
  Segment part 12. ROOT.      Intra module refs:   LL_PowerOffReq (ll_sleep)
                                                   llExtendRfRange (ll_common)
           ENTRY                   ADDRESS         REF BY
           =====                   =======         ======
           P1DIR                   000000FE 

    *************************************************************************

  FILE NAME : C:\Users\MON\Desktop\IAR_TPMS\IAR Systems\SDK\BLE-CC254x-1.4.0\Projects\ble\BAT_MON\CC2541DB\CC2541\Obj\hal_led.r51
  PROGRAM MODULE, NAME : hal_led

  SEGMENTS IN THE MODULE
  ======================
<BANKED_CODE,CODE_C> 1 (was BANKED_CODE)
  Relative segment, address: CODE 0000664A - 0000664C (0x3 bytes), align: 0
  Segment part 15.            Intra module refs:   HalLedEnterSleep::?relay
           ENTRY                   ADDRESS         REF BY
           =====                   =======         ======
           HalLedEnterSleep        0000664A 
    -------------------------------------------------------------------------
<BANKED_CODE,CODE_C> 1 (was BANKED_CODE)
  Relative segment, address: CODE 0000664D - 0000664F (0x3 bytes), align: 0
  Segment part 17.            Intra module refs:   HalLedExitSleep::?relay
           ENTRY                   ADDRESS         REF BY
           =====                   =======         ======
           HalLedExitSleep         0000664D 
    -------------------------------------------------------------------------
BANK_RELAYS
  Relative segment, address: CODE 0000062E - 00000633 (0x6 bytes), align: 0
  Segment part 16.
           ENTRY                   ADDRESS         REF BY
           =====                   =======         ======
           HalLedEnterSleep::?relay
                                   0000062E        halSleep (hal_sleep)
    -------------------------------------------------------------------------
BANK_RELAYS
  Relative segment, address: CODE 00000634 - 00000639 (0x6 bytes), align: 0
  Segment part 18.
           ENTRY                   ADDRESS         REF BY
           =====                   =======         ======
           HalLedExitSleep::?relay
                                   00000634        halSleep (hal_sleep)

    *************************************************************************

  FILE NAME : C:\Users\MON\Desktop\IAR_TPMS\IAR Systems\SDK\BLE-CC254x-1.4.0\Projects\ble\BAT_MON\CC2541DB\CC2541\Obj\hal_sleep.r51
  PROGRAM MODULE, NAME : hal_sleep

  SEGMENTS IN THE MODULE
  ======================
SFR_AN
  Relative segment, address: DATA 00000087 - 00000087 (0x1 bytes), align: 0
  Segment part 1. ROOT.       Intra module refs:   halSetSleepMode
           ENTRY                   ADDRESS         REF BY
           =====                   =======         ======
           PCON                    00000087 
    -------------------------------------------------------------------------
SFR_AN
  Relative segment, address: DATA 00000095 - 00000095 (0x1 bytes), align: 0
  Segment part 2. ROOT.       Intra module refs:   halSleepReadTimer
                                                   halSleepSetTimer
                                                   llGetFullCTandST (ll_timer2)
           ENTRY                   ADDRESS         REF BY
           =====                   =======         ======
           ST0                     00000095 
    -------------------------------------------------------------------------
SFR_AN
  Relative segment, address: DATA 00000096 - 00000096 (0x1 bytes), align: 0
  Segment part 3. ROOT.       Intra module refs:   halSleepReadTimer
                                                   halSleepSetTimer
                                                   llGetFullCTandST (ll_timer2)
           ENTRY                   ADDRESS         REF BY
           =====                   =======         ======
           ST1                     00000096 
    -------------------------------------------------------------------------
SFR_AN
  Relative segment, address: DATA 00000097 - 00000097 (0x1 bytes), align: 0
  Segment part 4. ROOT.       Intra module refs:   halSleepReadTimer
                                                   halSleepSetTimer
                                                   llGetFullCTandST (ll_timer2)
           ENTRY                   ADDRESS         REF BY
           =====                   =======         ======
           ST2                     00000097 
    -------------------------------------------------------------------------
SFR_AN
  Relative segment, address: DATA 000000AD - 000000AD (0x1 bytes), align: 0
  Segment part 7. ROOT.       Intra module refs:   halSleep
           ENTRY                   ADDRESS         REF BY
           =====                   =======         ======
           STLOAD                  000000AD 
    -------------------------------------------------------------------------
XDATA_Z
  Relative segment, address: XDATA 000003E4 - 000003E4 (0x1 bytes), align: 0
  Segment part 17.            Intra module refs:   halSleep
           LOCAL                   ADDRESS         
           =====                   =======         
           halPwrMgtMode           000003E4 
    -------------------------------------------------------------------------
XDATA_Z
  Relative segment, address: XDATA 000003E5 - 000003E5 (0x1 bytes), align: 0
  Segment part 18.            Intra module refs:   halSleep
           LOCAL                   ADDRESS         
           =====                   =======         
           wakeForRF               000003E5 
    -------------------------------------------------------------------------
DATA_I
  Relative segment, address: DATA 0000001A - 0000001A (0x1 bytes), align: 0
  Segment part 19.            Intra module refs:   halSetSleepMode
                                                   halSleep
                                                   halSleepTimerIsr
           ENTRY                   ADDRESS         REF BY
           =====                   =======         ======
           halSleepPconValue       0000001A        ?Subroutine2 (hal_key)
                                                   Hal_ProcessPoll (hal_drivers)
    -------------------------------------------------------------------------
SLEEP_CODE
  Relative segment, address: CODE 00007FF8 - 00007FFF (0x8 bytes), align: 0
  Segment part 27.            Intra module refs:   halSetSleepMode::?relay
           ENTRY                   ADDRESS         REF BY
           =====                   =======         ======
           halSetSleepMode         00007FF8 
               XSTACK = 00000018 ( 00000000 )
    -------------------------------------------------------------------------
<BANKED_CODE,CODE_C> 1 (was BANKED_CODE)
  Relative segment, address: CODE 00005718 - 00005899 (0x182 bytes), align: 0
  Segment part 29.            Intra module refs:   halSleep::?relay
           ENTRY                   ADDRESS         REF BY
           =====                   =======         ======
           halSleep                00005718 
               calls direct
               XSTACK = 00000000 ( 0000001C )
    -------------------------------------------------------------------------
<BANKED_CODE,CODE_C> 1 (was BANKED_CODE)
  Relative segment, address: CODE 0000589A - 000058A2 (0x9 bytes), align: 0
  Segment part 31.            Intra module refs:   halSleep
           LOCAL                   ADDRESS         
           =====                   =======         
           ?Subroutine0            0000589A 
    -------------------------------------------------------------------------
<BANKED_CODE,CODE_C> 1 (was BANKED_CODE)
  Relative segment, address: CODE 000058A3 - 00005903 (0x61 bytes), align: 0
  Segment part 32.            Intra module refs:   halSleepSetTimer::?relay
           ENTRY                   ADDRESS         REF BY
           =====                   =======         ======
           halSleepSetTimer        000058A3 
               XSTACK = 0000001C ( 00000010 )
    -------------------------------------------------------------------------
<BANKED_CODE,CODE_C> 1 (was BANKED_CODE)
  Relative segment, address: CODE 00005904 - 00005949 (0x46 bytes), align: 0
  Segment part 34.            Intra module refs:   halSleepReadTimer::?relay
           ENTRY                   ADDRESS         REF BY
           =====                   =======         ======
           halSleepReadTimer       00005904 
               XSTACK = 00000018 ( 00000004 )
               ISTACK = 00000000 ( 00000003 )
    -------------------------------------------------------------------------
NEAR_CODE
  Relative segment, address: CODE 0000143C - 0000145F (0x24 bytes), align: 0
  Segment part 40.            Intra module refs:   halSleepTimerIsr::??INTVEC 43
           ENTRY                   ADDRESS         REF BY
           =====                   =======         ======
           halSleepTimerIsr        0000143C 
               interrupt function
               ISTACK = 00000000 ( 00000004 )
    -------------------------------------------------------------------------
INTVEC
  Common segment, address: CODE 00000000 - 0000002D (0x2e bytes), align: 0
  Segment part 11. ROOT.
           ENTRY                   ADDRESS         REF BY
           =====                   =======         ======
           halSleepTimerIsr::??INTVEC 43
                                   0000002B 
    -------------------------------------------------------------------------
DATA_ID
  Relative segment, address: CODE 0000014A - 0000014A (0x1 bytes), align: 0
  Segment part 20.            Intra module refs:   halSleepPconValue
    -------------------------------------------------------------------------
<XDATA_ROM_C> 1 (was XDATA_ROM_C)
  Relative segment, address: CONST 00008028 - 0000802B (0x4 bytes), align: 0
  Segment part 21.            Intra module refs:   halSleep
           ENTRY                   ADDRESS         REF BY
           =====                   =======         ======
           __Constant_9c41         00008028 
    -------------------------------------------------------------------------
<XDATA_ROM_C> 1 (was XDATA_ROM_C)
  Relative segment, address: CONST 0000802C - 0000802F (0x4 bytes), align: 0
  Segment part 22.            Intra module refs:   halSleep
           ENTRY                   ADDRESS         REF BY
           =====                   =======         ======
           __Constant_43           0000802C 
    -------------------------------------------------------------------------
<XDATA_ROM_C> 1 (was XDATA_ROM_C)
  Relative segment, address: CONST 00008030 - 00008033 (0x4 bytes), align: 0
  Segment part 23.            Intra module refs:   halSleep
           ENTRY                   ADDRESS         REF BY
           =====                   =======         ======
           __Constant_ff0001       00008030 
    -------------------------------------------------------------------------
<XDATA_ROM_C> 1 (was XDATA_ROM_C)
  Relative segment, address: CONST 00008034 - 00008037 (0x4 bytes), align: 0
  Segment part 24.            Intra module refs:   halSleep
           ENTRY                   ADDRESS         REF BY
           =====                   =======         ======
           __Constant_ff0000       00008034 
    -------------------------------------------------------------------------
<XDATA_ROM_C> 1 (was XDATA_ROM_C)
  Relative segment, address: CONST 00008038 - 0000803B (0x4 bytes), align: 0
  Segment part 25.            Intra module refs:   halSleep
           ENTRY                   ADDRESS         REF BY
           =====                   =======         ======
           __Constant_7d           00008038 
    -------------------------------------------------------------------------
<XDATA_ROM_C> 1 (was XDATA_ROM_C)
  Relative segment, address: CONST 0000803C - 0000803F (0x4 bytes), align: 0
  Segment part 26.            Intra module refs:   halSleepSetTimer
           ENTRY                   ADDRESS         REF BY
           =====                   =======         ======
           __Constant_ffffffe7     0000803C 
    -------------------------------------------------------------------------
BANK_RELAYS
  Relative segment, address: CODE 0000063A - 0000063F (0x6 bytes), align: 0
  Segment part 28.            Intra module refs:   halSleep
           ENTRY                   ADDRESS         REF BY
           =====                   =======         ======
           halSetSleepMode::?relay
                                   0000063A 
    -------------------------------------------------------------------------
BANK_RELAYS
  Relative segment, address: CODE 00000640 - 00000645 (0x6 bytes), align: 0
  Segment part 30.
           ENTRY                   ADDRESS         REF BY
           =====                   =======         ======
           halSleep::?relay        00000640        osal_pwrmgr_powerconserve (OSAL_PwrMgr)
    -------------------------------------------------------------------------
BANK_RELAYS
  Relative segment, address: CODE 00000646 - 0000064B (0x6 bytes), align: 0
  Segment part 33.            Intra module refs:   halSleep
           ENTRY                   ADDRESS         REF BY
           =====                   =======         ======
           halSleepSetTimer::?relay
                                   00000646 
    -------------------------------------------------------------------------
BANK_RELAYS
  Relative segment, address: CODE 0000064C - 00000651 (0x6 bytes), align: 0
  Segment part 35.            Intra module refs:   halSleep
           ENTRY                   ADDRESS         REF BY
           =====                   =======         ======
           halSleepReadTimer::?relay
                                   0000064C 
    -------------------------------------------------------------------------
<XDATA_ROM_C_FLASH> 1 (was XDATA_ROM_C_FLASH)
  Relative segment, address: CODE 00008028 - 0000802B (0x4 bytes), align: 0
  Segment part 41.            Intra module refs:   __Constant_9c41
    -------------------------------------------------------------------------
<XDATA_ROM_C_FLASH> 1 (was XDATA_ROM_C_FLASH)
  Relative segment, address: CODE 0000802C - 0000802F (0x4 bytes), align: 0
  Segment part 42.            Intra module refs:   __Constant_43
    -------------------------------------------------------------------------
<XDATA_ROM_C_FLASH> 1 (was XDATA_ROM_C_FLASH)
  Relative segment, address: CODE 00008030 - 00008033 (0x4 bytes), align: 0
  Segment part 43.            Intra module refs:   __Constant_ff0001
    -------------------------------------------------------------------------
<XDATA_ROM_C_FLASH> 1 (was XDATA_ROM_C_FLASH)
  Relative segment, address: CODE 00008034 - 00008037 (0x4 bytes), align: 0
  Segment part 44.            Intra module refs:   __Constant_ff0000
    -------------------------------------------------------------------------
<XDATA_ROM_C_FLASH> 1 (was XDATA_ROM_C_FLASH)
  Relative segment, address: CODE 00008038 - 0000803B (0x4 bytes), align: 0
  Segment part 45.            Intra module refs:   __Constant_7d
    -------------------------------------------------------------------------
<XDATA_ROM_C_FLASH> 1 (was XDATA_ROM_C_FLASH)
  Relative segment, address: CODE 0000803C - 0000803F (0x4 bytes), align: 0
  Segment part 46.            Intra module refs:   __Constant_ffffffe7

    *************************************************************************

  FILE NAME : C:\Users\MON\Desktop\IAR_TPMS\IAR Systems\SDK\BLE-CC254x-1.4.0\Projects\ble\BAT_MON\CC2541DB\CC2541\Obj\hal_startup.r51
  PROGRAM MODULE, NAME : hal_startup

  SEGMENTS IN THE MODULE
  ======================
CSTART
  Relative segment, address: CODE 00000086 - 00000090 (0xb bytes), align: 0
  Segment part 7. ROOT.
           ENTRY                   ADDRESS         REF BY
           =====                   =======         ======
           __low_level_init        00000086        __low_level_init_call (?cmain)

    *************************************************************************

  FILE NAME : C:\Users\MON\Desktop\IAR_TPMS\IAR Systems\SDK\BLE-CC254x-1.4.0\Projects\ble\BAT_MON\CC2541DB\CC2541\Obj\hal_timer.r51
    *************************************************************************

  FILE NAME : C:\Users\MON\Desktop\IAR_TPMS\IAR Systems\SDK\BLE-CC254x-1.4.0\Projects\ble\BAT_MON\CC2541DB\CC2541\Obj\hal_uart.r51
    *************************************************************************

  FILE NAME : C:\Users\MON\Desktop\IAR_TPMS\IAR Systems\SDK\BLE-CC254x-1.4.0\Projects\ble\BAT_MON\CC2541DB\CC2541\Obj\npi.r51
    *************************************************************************

  FILE NAME : C:\Users\MON\Desktop\IAR_TPMS\IAR Systems\SDK\BLE-CC254x-1.4.0\Projects\ble\BAT_MON\CC2541DB\CC2541\Obj\osal_bufmgr.r51
  PROGRAM MODULE, NAME : osal_bufmgr

  SEGMENTS IN THE MODULE
  ======================
XDATA_Z
  Relative segment, address: XDATA 000003E6 - 000003E7 (0x2 bytes), align: 0
  Segment part 7.             Intra module refs:   osal_bm_free
           LOCAL                   ADDRESS         
           =====                   =======         
           bm_list_ptr             000003E6 
    -------------------------------------------------------------------------
<BANKED_CODE,CODE_C> 1 (was BANKED_CODE)
  Relative segment, address: CODE 000064B3 - 00006520 (0x6e bytes), align: 0
  Segment part 11.            Intra module refs:   osal_bm_free::?relay
           ENTRY                   ADDRESS         REF BY
           =====                   =======         ======
           osal_bm_free            000064B3 
               calls direct
               XSTACK = 00000000 ( 0000000A )
    -------------------------------------------------------------------------
<BANKED_CODE,CODE_C> 1 (was BANKED_CODE)
  Relative segment, address: CODE 00006521 - 00006524 (0x4 bytes), align: 0
  Segment part 17.            Intra module refs:   osal_bm_free
           LOCAL                   ADDRESS         
           =====                   =======         
           ?Subroutine2            00006521 
    -------------------------------------------------------------------------
<BANKED_CODE,CODE_C> 1 (was BANKED_CODE)
  Relative segment, address: CODE 00006525 - 0000652A (0x6 bytes), align: 0
  Segment part 18.            Intra module refs:   ?Subroutine2
                                                   osal_bm_free
    -------------------------------------------------------------------------
<BANKED_CODE,CODE_C> 1 (was BANKED_CODE)
  Relative segment, address: CODE 0000652B - 00006545 (0x1b bytes), align: 0
  Segment part 21.            Intra module refs:   osal_bm_free
           LOCAL                   ADDRESS         
           =====                   =======         
           ?Subroutine1            0000652B 
    -------------------------------------------------------------------------
BANK_RELAYS
  Relative segment, address: CODE 00000652 - 00000657 (0x6 bytes), align: 0
  Segment part 12.
           ENTRY                   ADDRESS         REF BY
           =====                   =======         ======
           osal_bm_free::?relay    00000652        HCI_ProcessEvent (hci_tl)

    *************************************************************************

  FILE NAME : C:\Users\MON\Desktop\IAR_TPMS\IAR Systems\SDK\BLE-CC254x-1.4.0\Projects\ble\BAT_MON\CC2541DB\CC2541\Obj\osal_cbtimer.r51
  PROGRAM MODULE, NAME : osal_cbtimer

  SEGMENTS IN THE MODULE
  ======================
XDATA_I
  Relative segment, address: XDATA 00000501 - 00000502 (0x2 bytes), align: 0
  Segment part 6.             Intra module refs:   osal_CbTimerInit
                                                   osal_CbTimerProcessEvent
           ENTRY                   ADDRESS         REF BY
           =====                   =======         ======
           baseTaskID              00000501 
    -------------------------------------------------------------------------
XDATA_Z
  Relative segment, address: XDATA 000003E8 - 00000423 (0x3c bytes), align: 0
  Segment part 8.             Intra module refs:   osal_CbTimerInit
                                                   osal_CbTimerProcessEvent
           ENTRY                   ADDRESS         REF BY
           =====                   =======         ======
           cbTimers                000003E8 
    -------------------------------------------------------------------------
<BANKED_CODE,CODE_C> 1 (was BANKED_CODE)
  Relative segment, address: CODE 00005F6C - 00005F95 (0x2a bytes), align: 0
  Segment part 9.             Intra module refs:   osal_CbTimerInit::?relay
           ENTRY                   ADDRESS         REF BY
           =====                   =======         ======
           osal_CbTimerInit        00005F6C 
               calls direct
               XSTACK = 00000000 ( 00000009 )
    -------------------------------------------------------------------------
<BANKED_CODE,CODE_C> 1 (was BANKED_CODE)
  Relative segment, address: CODE 00005F96 - 00006065 (0xd0 bytes), align: 0
  Segment part 11.            Intra module refs:   osal_CbTimerProcessEvent::?relay
           ENTRY                   ADDRESS         REF BY
           =====                   =======         ======
           osal_CbTimerProcessEvent
                                   00005F96 
               XSTACK = 00000000 ( 00000010 )
    -------------------------------------------------------------------------
<BANKED_CODE,CODE_C> 1 (was BANKED_CODE)
  Relative segment, address: CODE 00006066 - 0000606A (0x5 bytes), align: 0
  Segment part 13.            Intra module refs:   osal_CbTimerProcessEvent
           LOCAL                   ADDRESS         
           =====                   =======         
           ?Subroutine0            00006066 
    -------------------------------------------------------------------------
XDATA_ID
  Relative segment, address: CODE 00000224 - 00000225 (0x2 bytes), align: 0
  Segment part 7.             Intra module refs:   baseTaskID
    -------------------------------------------------------------------------
BANK_RELAYS
  Relative segment, address: CODE 00000658 - 0000065D (0x6 bytes), align: 0
  Segment part 10.
           ENTRY                   ADDRESS         REF BY
           =====                   =======         ======
           osal_CbTimerInit::?relay
                                   00000658        osalInitTasks (OSAL_BAT_MON)
    -------------------------------------------------------------------------
BANK_RELAYS
  Relative segment, address: CODE 0000065E - 00000663 (0x6 bytes), align: 0
  Segment part 12.
           ENTRY                   ADDRESS         REF BY
           =====                   =======         ======
           osal_CbTimerProcessEvent::?relay
                                   0000065E        tasksArr (OSAL_BAT_MON)

    *************************************************************************

  FILE NAME : C:\Users\MON\Desktop\IAR_TPMS\IAR Systems\SDK\BLE-CC254x-1.4.0\Projects\ble\BAT_MON\CC2541DB\CC2541\Obj\osal_snv.r51
  PROGRAM MODULE, NAME : osal_snv

  SEGMENTS IN THE MODULE
  ======================
BLENV_ADDRESS_SPACE
  Relative segment, address: CODE 0003E800 - 0003F7FF (0x1000 bytes), align: 0
  Segment part 6.             Intra module refs:   activePg
           ENTRY                   ADDRESS         REF BY
           =====                   =======         ======
           _nvBuf                  0003E800 
    -------------------------------------------------------------------------
XDATA_Z
  Relative segment, address: XDATA 00000424 - 00000424 (0x1 bytes), align: 0
  Segment part 7.             Intra module refs:   compactPage
                                                   findOffset
                                                   initNV
                                                   setActivePage
           LOCAL                   ADDRESS         
           =====                   =======         
           activePg                00000424 
    -------------------------------------------------------------------------
XDATA_Z
  Relative segment, address: XDATA 00000425 - 00000426 (0x2 bytes), align: 0
  Segment part 8.             Intra module refs:   ?Subroutine8
                                                   compactPage
                                                   initNV
           LOCAL                   ADDRESS         
           =====                   =======         
           pgOff                   00000425 
    -------------------------------------------------------------------------
XDATA_Z
  Relative segment, address: XDATA 00000427 - 00000427 (0x1 bytes), align: 0
  Segment part 9.             Intra module refs:   compactPage
                                                   erasePage
                                                   initNV
                                                   setActivePage
                                                   verifyWordM
                                                   writeWord
           LOCAL                   ADDRESS         
           =====                   =======         
           failF                   00000427 
    -------------------------------------------------------------------------
<BANKED_CODE,CODE_C> 1 (was BANKED_CODE)
  Relative segment, address: CODE 00002B6E - 00002C2A (0xbd bytes), align: 0
  Segment part 13.            Intra module refs:   initNV::?relay
           LOCAL                   ADDRESS         
           =====                   =======         
           initNV                  00002B6E 
               calls direct
               XSTACK = 00000000 ( 00000012 )
    -------------------------------------------------------------------------
<BANKED_CODE,CODE_C> 1 (was BANKED_CODE)
  Relative segment, address: CODE 00002C2B - 00002C5B (0x31 bytes), align: 0
  Segment part 15.            Intra module refs:   setActivePage::?relay
           LOCAL                   ADDRESS         
           =====                   =======         
           setActivePage           00002C2B 
               calls direct
               XSTACK = 0000001D ( 0000000D )
    -------------------------------------------------------------------------
<BANKED_CODE,CODE_C> 1 (was BANKED_CODE)
  Relative segment, address: CODE 00002C5C - 00002C65 (0xa bytes), align: 0
  Segment part 17.            Intra module refs:   setActivePage
           LOCAL                   ADDRESS         
           =====                   =======         
           ?Subroutine1            00002C5C 
    -------------------------------------------------------------------------
<BANKED_CODE,CODE_C> 1 (was BANKED_CODE)
  Relative segment, address: CODE 00002C66 - 00002CB9 (0x54 bytes), align: 0
  Segment part 20.            Intra module refs:   erasePage::?relay
           LOCAL                   ADDRESS         
           =====                   =======         
           erasePage               00002C66 
               calls direct
               XSTACK = 0000001D ( 0000000F )
    -------------------------------------------------------------------------
<BANKED_CODE,CODE_C> 1 (was BANKED_CODE)
  Relative segment, address: CODE 00002CBA - 00002CBD (0x4 bytes), align: 0
  Segment part 22.            Intra module refs:   cleanErasedPage
                                                   erasePage
           LOCAL                   ADDRESS         
           =====                   =======         
           ?Subroutine3            00002CBA 
    -------------------------------------------------------------------------
<BANKED_CODE,CODE_C> 1 (was BANKED_CODE)
  Relative segment, address: CODE 00002CBE - 00002CBF (0x2 bytes), align: 0
  Segment part 23.            Intra module refs:   findItem
                                                   findOffset
                                                   initNV
           LOCAL                   ADDRESS         
           =====                   =======         
           ?Subroutine0            00002CBE 
    -------------------------------------------------------------------------
<BANKED_CODE,CODE_C> 1 (was BANKED_CODE)
  Relative segment, address: CODE 00002CC0 - 00002CC2 (0x3 bytes), align: 0
  Segment part 24.            Intra module refs:   ?Subroutine0
                                                   ?Subroutine3
    -------------------------------------------------------------------------
<BANKED_CODE,CODE_C> 1 (was BANKED_CODE)
  Relative segment, address: CODE 00002CC3 - 00002CC7 (0x5 bytes), align: 0
  Segment part 25.            Intra module refs:   Segment part 24
    -------------------------------------------------------------------------
<BANKED_CODE,CODE_C> 1 (was BANKED_CODE)
  Relative segment, address: CODE 00002CC8 - 00002D13 (0x4c bytes), align: 0
  Segment part 26.            Intra module refs:   cleanErasedPage::?relay
           LOCAL                   ADDRESS         
           =====                   =======         
           cleanErasedPage         00002CC8 
               calls direct
               XSTACK = 00000010 ( 0000000F )
    -------------------------------------------------------------------------
<BANKED_CODE,CODE_C> 1 (was BANKED_CODE)
  Relative segment, address: CODE 00002D14 - 00002D6C (0x59 bytes), align: 0
  Segment part 28.            Intra module refs:   findOffset::?relay
           LOCAL                   ADDRESS         
           =====                   =======         
           findOffset              00002D14 
               calls direct
               XSTACK = 00000010 ( 00000012 )
    -------------------------------------------------------------------------
<BANKED_CODE,CODE_C> 1 (was BANKED_CODE)
  Relative segment, address: CODE 00002D6D - 00002DF2 (0x86 bytes), align: 0
  Segment part 30.            Intra module refs:   findItem::?relay
           LOCAL                   ADDRESS         
           =====                   =======         
           findItem                00002D6D 
               calls direct
               XSTACK = 0000001D ( 00000012 )
    -------------------------------------------------------------------------
<BANKED_CODE,CODE_C> 1 (was BANKED_CODE)
  Relative segment, address: CODE 00002DF3 - 00002DFD (0xb bytes), align: 0
  Segment part 32.            Intra module refs:   compactPage
                                                   findItem
                                                   findOffset
           LOCAL                   ADDRESS         
           =====                   =======         
           ?Subroutine6            00002DF3 
    -------------------------------------------------------------------------
<BANKED_CODE,CODE_C> 1 (was BANKED_CODE)
  Relative segment, address: CODE 00002DFE - 00002FAD (0x1b0 bytes), align: 0
  Segment part 37.            Intra module refs:   compactPage::?relay
           LOCAL                   ADDRESS         
           =====                   =======         
           compactPage             00002DFE 
               calls direct
               XSTACK = 00000011 ( 0000001F )
               ISTACK = 00000000 ( 00000002 )
    -------------------------------------------------------------------------
<BANKED_CODE,CODE_C> 1 (was BANKED_CODE)
  Relative segment, address: CODE 00002FAE - 00002FB3 (0x6 bytes), align: 0
  Segment part 39.            Intra module refs:   ?Subroutine7
                                                   compactPage
                                                   findItem
           LOCAL                   ADDRESS         
           =====                   =======         
           ?Subroutine9            00002FAE 
    -------------------------------------------------------------------------
<BANKED_CODE,CODE_C> 1 (was BANKED_CODE)
  Relative segment, address: CODE 00002FB4 - 00002FBA (0x7 bytes), align: 0
  Segment part 40.            Intra module refs:   compactPage
           LOCAL                   ADDRESS         
           =====                   =======         
           ?Subroutine7            00002FB4 
    -------------------------------------------------------------------------
<BANKED_CODE,CODE_C> 1 (was BANKED_CODE)
  Relative segment, address: CODE 00002FBB - 0000303C (0x82 bytes), align: 0
  Segment part 41.            Intra module refs:   verifyWordM::?relay
           LOCAL                   ADDRESS         
           =====                   =======         
           verifyWordM             00002FBB 
               calls direct
               XSTACK = 00000016 ( 00000015 )
    -------------------------------------------------------------------------
<BANKED_CODE,CODE_C> 1 (was BANKED_CODE)
  Relative segment, address: CODE 0000303D - 000030A1 (0x65 bytes), align: 0
  Segment part 43.            Intra module refs:   writeWord::?relay
           LOCAL                   ADDRESS         
           =====                   =======         
           writeWord               0000303D 
               calls direct
               XSTACK = 0000001D ( 00000012 )
    -------------------------------------------------------------------------
<BANKED_CODE,CODE_C> 1 (was BANKED_CODE)
  Relative segment, address: CODE 000030A2 - 000030B8 (0x17 bytes), align: 0
  Segment part 45.            Intra module refs:   osal_snv_init::?relay
           ENTRY                   ADDRESS         REF BY
           =====                   =======         ======
           osal_snv_init           000030A2 
               calls direct
               ISTACK = 00000000 ( 00000002 )
    -------------------------------------------------------------------------
<BANKED_CODE,CODE_C> 1 (was BANKED_CODE)
  Relative segment, address: CODE 000030B9 - 000030BB (0x3 bytes), align: 0
  Segment part 49.            Intra module refs:   compactPage
           LOCAL                   ADDRESS         
           =====                   =======         
           ?Subroutine2            000030B9 
    -------------------------------------------------------------------------
<BANKED_CODE,CODE_C> 1 (was BANKED_CODE)
  Relative segment, address: CODE 000030BC - 000030C0 (0x5 bytes), align: 0
  Segment part 50.            Intra module refs:   ?Subroutine2
                                                   writeWord
    -------------------------------------------------------------------------
<BANKED_CODE,CODE_C> 1 (was BANKED_CODE)
  Relative segment, address: CODE 000030C1 - 000030CB (0xb bytes), align: 0
  Segment part 51.            Intra module refs:   findOffset
           LOCAL                   ADDRESS         
           =====                   =======         
           ?Subroutine8            000030C1 
    -------------------------------------------------------------------------
<XDATA_ROM_C> 1 (was XDATA_ROM_C)
  Relative segment, address: CONST 00008020 - 00008023 (0x4 bytes), align: 0
  Segment part 10.            Intra module refs:   initNV
           ENTRY                   ADDRESS         REF BY
           =====                   =======         ======
           __Constant_100000       00008020 
    -------------------------------------------------------------------------
<XDATA_ROM_C> 1 (was XDATA_ROM_C)
  Relative segment, address: CONST 00008040 - 00008043 (0x4 bytes), align: 0
  Segment part 11.            Intra module refs:   findOffset
           ENTRY                   ADDRESS         REF BY
           =====                   =======         ======
           __Constant_ffffffff     00008040 
    -------------------------------------------------------------------------
BANK_RELAYS
  Relative segment, address: CODE 00000664 - 00000669 (0x6 bytes), align: 0
  Segment part 14.            Intra module refs:   osal_snv_init
           LOCAL                   ADDRESS         
           =====                   =======         
           initNV::?relay          00000664 
    -------------------------------------------------------------------------
BANK_RELAYS
  Relative segment, address: CODE 0000066A - 0000066F (0x6 bytes), align: 0
  Segment part 16.            Intra module refs:   compactPage
                                                   initNV
           LOCAL                   ADDRESS         
           =====                   =======         
           setActivePage::?relay   0000066A 
    -------------------------------------------------------------------------
BANK_RELAYS
  Relative segment, address: CODE 00000670 - 00000675 (0x6 bytes), align: 0
  Segment part 21.            Intra module refs:   cleanErasedPage
                                                   compactPage
                                                   initNV
           LOCAL                   ADDRESS         
           =====                   =======         
           erasePage::?relay       00000670 
    -------------------------------------------------------------------------
BANK_RELAYS
  Relative segment, address: CODE 00000676 - 0000067B (0x6 bytes), align: 0
  Segment part 27.            Intra module refs:   initNV
           LOCAL                   ADDRESS         
           =====                   =======         
           cleanErasedPage::?relay
                                   00000676 
    -------------------------------------------------------------------------
BANK_RELAYS
  Relative segment, address: CODE 0000067C - 00000681 (0x6 bytes), align: 0
  Segment part 29.            Intra module refs:   initNV
           LOCAL                   ADDRESS         
           =====                   =======         
           findOffset::?relay      0000067C 
    -------------------------------------------------------------------------
BANK_RELAYS
  Relative segment, address: CODE 00000682 - 00000687 (0x6 bytes), align: 0
  Segment part 31.            Intra module refs:   compactPage
           LOCAL                   ADDRESS         
           =====                   =======         
           findItem::?relay        00000682 
    -------------------------------------------------------------------------
BANK_RELAYS
  Relative segment, address: CODE 00000688 - 0000068D (0x6 bytes), align: 0
  Segment part 38.            Intra module refs:   initNV
           LOCAL                   ADDRESS         
           =====                   =======         
           compactPage::?relay     00000688 
    -------------------------------------------------------------------------
BANK_RELAYS
  Relative segment, address: CODE 0000068E - 00000693 (0x6 bytes), align: 0
  Segment part 42.            Intra module refs:   writeWord
           LOCAL                   ADDRESS         
           =====                   =======         
           verifyWordM::?relay     0000068E 
    -------------------------------------------------------------------------
BANK_RELAYS
  Relative segment, address: CODE 00000694 - 00000699 (0x6 bytes), align: 0
  Segment part 44.            Intra module refs:   compactPage
                                                   setActivePage
           LOCAL                   ADDRESS         
           =====                   =======         
           writeWord::?relay       00000694 
    -------------------------------------------------------------------------
BANK_RELAYS
  Relative segment, address: CODE 0000069A - 0000069F (0x6 bytes), align: 0
  Segment part 46.
           ENTRY                   ADDRESS         REF BY
           =====                   =======         ======
           osal_snv_init::?relay   0000069A        main (BAT_MON_Main)
    -------------------------------------------------------------------------
<XDATA_ROM_C_FLASH> 1 (was XDATA_ROM_C_FLASH)
  Relative segment, address: CODE 00008020 - 00008023 (0x4 bytes), align: 0
  Segment part 58.            Intra module refs:   __Constant_100000
    -------------------------------------------------------------------------
<XDATA_ROM_C_FLASH> 1 (was XDATA_ROM_C_FLASH)
  Relative segment, address: CODE 00008040 - 00008043 (0x4 bytes), align: 0
  Segment part 59.            Intra module refs:   __Constant_ffffffff

    *************************************************************************

  FILE NAME : C:\Users\MON\Desktop\IAR_TPMS\IAR Systems\Embedded Workbench 6.5\8051\LIB\CLIB\cl-pli-blxd-1e16x01.r51
  LIBRARY MODULE, NAME : ?cexit

  SEGMENTS IN THE MODULE
  ======================
CSTART
  Relative segment, address: CODE 00000091 - 00000095 (0x5 bytes), align: 0
  Segment part 0.
           ENTRY                   ADDRESS         REF BY
           =====                   =======         ======
           exit                    00000091        ?call_main (?cmain)
           ?C_EXIT                 00000091 
           ?ROM_MONITOR_NOPS       00000091 

    -------------------------------------------------------------------------
  LIBRARY MODULE, NAME : ?cmain

  SEGMENTS IN THE MODULE
  ======================
CSTART
  Relative segment, address: CODE 00000096, align: 0
  Segment part 5.
           ENTRY                   ADDRESS         REF BY
           =====                   =======         ======
           ?cmain                  00000096        Segment part 13 (CSTARTUP)
               calls direct
    -------------------------------------------------------------------------
CSTART
  Relative segment, address: CODE 00000096 - 0000009E (0x9 bytes), align: 0
  Segment part 6.
           ENTRY                   ADDRESS         REF BY
           =====                   =======         ======
           __low_level_init_call   00000096        __low_level_init (hal_startup)
    -------------------------------------------------------------------------
CSTART
  Relative segment, address: CODE 0000009F - 000000AC (0xe bytes), align: 0
  Segment part 10.
           ENTRY                   ADDRESS         REF BY
           =====                   =======         ======
           __INIT_DATA_Z           0000009F        Segment part 1 (ll_halt)
    -------------------------------------------------------------------------
CSTART
  Relative segment, address: CODE 000000AD - 000000BA (0xe bytes), align: 0
  Segment part 12.
           ENTRY                   ADDRESS         REF BY
           =====                   =======         ======
           __INIT_IDATA_Z          000000AD        myPC (ll)
    -------------------------------------------------------------------------
CSTART
  Relative segment, address: CODE 000000BB - 000000CA (0x10 bytes), align: 0
  Segment part 16.
           ENTRY                   ADDRESS         REF BY
           =====                   =======         ======
           __INIT_XDATA_Z          000000BB        BAT_MON_BroadcasterCBs (BAT_MON)
                                                   BAT_MON_TaskID (BAT_MON)
                                                   Hal_TaskID (hal_drivers)
                                                   LL_TaskID (ll)
                                                   LedBlink (BAT_MON)
                                                   OSAL_timeSeconds (OSAL_ClockBLE)
                                                   Segment part 10 (gap_peridevmgr)
                                                   Segment part 10 (gap_simpletask)
                                                   Segment part 11 (gap_peridevmgr)
                                                   Segment part 12 (gap_configmgr)
                                                   Segment part 15 (gap_configmgr)
                                                   Segment part 8 (ll_scheduler)
                                                   Segment part 9 (gap_peridevmgr)
                                                   activePg (osal_snv)
                                                   adcRef (BAT_MON)
                                                   adcRef (hal_adc)
                                                   advInfo (ll)
                                                   bdcount (BAT_MON)
                                                   bleEvtMask (hci_event)
                                                   bm_list_ptr (osal_bufmgr)
                                                   buildInfo (ll)
                                                   cbTimers (osal_cbtimer)
                                                   clkDivOnHalt (ll)
                                                   dcdcData (ll)
                                                   deviceFeatureSet (ll)
                                                   dmaCh0 (hal_dma)
                                                   dmaCh1234 (hal_dma)
                                                   extendRfRange (ll)
                                                   failF (osal_snv)
                                                   gapAutoAdvPrivateAddrChange (gap_configmgr)
                                                   gapDeviceAddrMode (gap_configmgr)
                                                   gapPrivateAddrChangeTimeout (gap_configmgr)
                                                   gapProfileRole (gap_configmgr)
                                                   gapRole_AdvChanMap (broadcaster)
                                                   gapRole_AdvDirectAddr (broadcaster)
                                                   gapRole_AdvDirectType (broadcaster)
                                                   gapRole_AdvEventType (broadcaster)
                                                   gapRole_AdvFilterPolicy (broadcaster)
                                                   gapRole_ScanRspData (broadcaster)
                                                   gapRole_ScanRspDataLen (broadcaster)
                                                   gapRole_TaskID (broadcaster)
                                                   gapRole_bdAddr (broadcaster)
                                                   gapRole_profileRole (broadcaster)
                                                   gapRole_state (broadcaster)
                                                   gapTaskID (gap_simpletask)
                                                   halPwrMgtMode (hal_sleep)
                                                   haltDuringRf (ll)
                                                   hciCtrlCmdToken (hci)
                                                   hciExtTaskID (hci_tl)
                                                   hciGapTaskID (hci_tl)
                                                   hciL2capTaskID (hci_tl)
                                                   hciPTMenabled (hci)
                                                   hciSmpTaskID (hci_tl)
                                                   hciTaskID (hci_tl)
                                                   hciTestTaskID (hci_tl)
                                                   llState (ll)
                                                   maxTxPwrForDTM (ll)
                                                   numWLEntries (phy)
                                                   nvInUse (ll)
                                                   osalMemStat (OSAL_Memory)
                                                   osal_qHead (OSAL)
                                                   osal_systemClock (OSAL_Timers)
                                                   ownPublicAddr (ll)
                                                   ownRandomAddr (ll)
                                                   ownSavedPublicAddr (ll)
                                                   pGapAdvertState (gap_devmgr)
                                                   pGapRoles_AppCGs (broadcaster)
                                                   pHciEvtMask (hci_event)
                                                   pfnPeripheralCBs (gap_simpletask)
                                                   pgOff (osal_snv)
                                                   postRfOperations (ll)
                                                   previousLLTimerTick (OSAL_ClockBLE)
                                                   pwrmgr_attribute (OSAL_PwrMgr)
                                                   remUsTicks (OSAL_ClockBLE)
                                                   rssiCorrection (ll)
                                                   rxFifoFlowCtrl (ll)
                                                   sleepDelay (ll)
                                                   taskEndCause (ll)
                                                   tasksEvents (OSAL_BAT_MON)
                                                   timeMSec (OSAL_ClockBLE)
                                                   timerHead (OSAL_Timers)
                                                   trngCounter (ll)
                                                   verInfo (ll)
                                                   wakeForRF (hal_sleep)
    -------------------------------------------------------------------------
CSTART
  Relative segment, address: CODE 000000CB - 000000DD (0x13 bytes), align: 0
  Segment part 24.
           ENTRY                   ADDRESS         REF BY
           =====                   =======         ======
           __INIT_DATA_I           000000CB        halSleepPconValue (hal_sleep)
    -------------------------------------------------------------------------
CSTART
  Relative segment, address: CODE 000000DE - 00000103 (0x26 bytes), align: 0
  Segment part 33.
           ENTRY                   ADDRESS         REF BY
           =====                   =======         ======
           __INIT_XDATA_I          000000DE        Segment part 12 (gap_peridevmgr)
                                                   Segment part 13 (gap_configmgr)
                                                   Segment part 6 (gap_peridevmgr)
                                                   __Constant_3039 (?rand)
                                                   __Constant_41c64e6d (?rand)
                                                   __next_rand (?rand)
                                                   aData1 (BAT_MON)
                                                   activeTaskID (OSAL)
                                                   baddr1 (BAT_MON)
                                                   baseTaskID (osal_cbtimer)
                                                   gapAppTaskID (gap_configmgr)
                                                   gapRole_AdvEnabled (broadcaster)
                                                   gapRole_AdvertData (broadcaster)
                                                   gapRole_AdvertDataLen (broadcaster)
                                                   gapRole_AdvertOffTime (broadcaster)
                                                   gapUnwantedTaskID (gap_simpletask)
                                                   hexval (BAT_MON)
                                                   scanRspData1 (BAT_MON)
                                                   taskEndCauses (ll)
                                                   taskErrorEndCauses (ll)
    -------------------------------------------------------------------------
CSTART
  Relative segment, address: CODE 00000104, align: 0
  Segment part 37.            Intra module refs:   __low_level_init_call
    -------------------------------------------------------------------------
CSTART
  Relative segment, address: CODE 00000104 - 00000119 (0x16 bytes), align: 0
  Segment part 38.            Intra module refs:   ?cmain
           ENTRY                   ADDRESS         REF BY
           =====                   =======         ======
           ?call_main              00000104 

    -------------------------------------------------------------------------
  LIBRARY MODULE, NAME : CSTARTUP

  SEGMENTS IN THE MODULE
  ======================
REGISTERS
  Relative segment, address: DATA 00000000, align: 0
  Segment part 0.             Intra module refs:   Segment part 6
           ENTRY                   ADDRESS         REF BY
           =====                   =======         ======
           ?REGISTERS              00000000 
    -------------------------------------------------------------------------
ISTACK
  Relative segment, address: IDATA 00000040, align: 0
  Segment part 1.             Intra module refs:   Segment part 6
           ENTRY                   ADDRESS         REF BY
           =====                   =======         ======
           ?ISTACK_START           00000040 
    -------------------------------------------------------------------------
XSTACK
  Relative segment, address: XDATA 00000001, align: 0
  Segment part 3.             Intra module refs:   ?RESET_XSP
           ENTRY                   ADDRESS         REF BY
           =====                   =======         ======
           ?XSTACK_START           00000001 
    -------------------------------------------------------------------------
INTVEC
  Common segment, address: CODE 00000000 - 00000002 (0x3 bytes), align: 0
  Segment part 5. ROOT.       Intra module refs:   Segment part 6
    -------------------------------------------------------------------------
CSTART
  Relative segment, address: CODE 0000011A - 0000011F (0x6 bytes), align: 0
  Segment part 6. ROOT.       Intra module refs:   Segment part 5
           ENTRY                   ADDRESS         REF BY
           =====                   =======         ======
           __program_start         0000011A        Absolute parts (?ABS_ENTRY_MOD)
           ?RESET_SP               0000011D 
    -------------------------------------------------------------------------
CSTART
  Relative segment, address: CODE 00000120 - 00000125 (0x6 bytes), align: 0
  Segment part 8.
           ENTRY                   ADDRESS         REF BY
           =====                   =======         ======
           ?RESET_XSP              00000120        ?XSP (VIRTUAL_REGISTERS)
    -------------------------------------------------------------------------
CSTART
  Relative segment, address: CODE 00000126 - 00000128 (0x3 bytes), align: 0
  Segment part 9.
           ENTRY                   ADDRESS         REF BY
           =====                   =======         ======
           ?RESET_CODE_BANK        00000126        Absolute parts (?BANKED_CODE_SUPPORT)
    -------------------------------------------------------------------------
CSTART
  Relative segment, address: CODE 00000129 - 0000012B (0x3 bytes), align: 0
  Segment part 13.            Intra module refs:   Absolute parts

    -------------------------------------------------------------------------
  LIBRARY MODULE, NAME : VIRTUAL_REGISTERS

  SEGMENTS IN THE MODULE
  ======================
BREG
  Relative segment, address: BIT 00000020.0 - 00000020.7 (0x8 bits), align: 0
  Segment part 0.
           ENTRY                   ADDRESS         REF BY
           =====                   =======         ======
           ?B0                     00000020.0      Absolute parts (CSTARTUP)
    -------------------------------------------------------------------------
VREG
  Relative segment, address: DATA 00000008 - 00000008 (0x1 bytes), align: 0
  Segment part 1.             Intra module refs:   ?V1
           ENTRY                   ADDRESS         REF BY
           =====                   =======         ======
           ?V0                     00000008        ?BANKED_ENTER_XDATA (?BANKED_ENTER_XDATA)
                                                   ?BANKED_LEAVE_XDATA (?BANKED_LEAVE_XDATA)
                                                   ?FUNC_ENTER_XDATA (?FUNC_ENTER_XDATA)
                                                   ?FUNC_LEAVE_XDATA (?FUNC_LEAVE_XDATA)
                                                   ?INTERRUPT_ENTER_XSP (?INTERRUPT_ENTER_XSP)
                                                   ?INTERRUPT_LEAVE_XSP (?INTERRUPT_LEAVE_XSP)
                                                   ?Subroutine0 (hal_sleep)
                                                   ?UL_GE_X (?UL_GE_X)
                                                   AdcRead (BAT_MON)
                                                   BAT_MON_Init (BAT_MON)
                                                   BAT_MON_ProcessEvent (BAT_MON)
                                                   GAPRole_ProcessEvent (broadcaster)
                                                   GAPRole_SetParameter (broadcaster)
                                                   GAPRole_StartDevice (broadcaster)
                                                   GAP_DeviceInit (gap)
                                                   GAP_MakeDiscoverable (gap_peridevmgr)
                                                   GAP_ProcessEvent (gap_simpletask)
                                                   GAP_UpdateAdvertisingData (gap_peridevmgr)
                                                   HCI_CommandCompleteEvent (hci_event)
                                                   HCI_LE_SetAdvParamCmd (hci)
                                                   HCI_ProcessEvent (hci_tl)
                                                   HCI_SendCommandCompleteEvent (hci_event)
                                                   HCI_VendorSpecifcCommandCompleteEvent (hci_event)
                                                   HalAdcRead (hal_adc)
                                                   HalFlashRead (hal_flash)
                                                   HalFlashWrite (hal_flash)
                                                   HalKeyRead (hal_key)
                                                   LL_Init (ll)
                                                   LL_PowerOffReq (ll_sleep)
                                                   LL_PowerOnReq (ll_sleep)
                                                   LL_ProcessEvent (ll)
                                                   LL_RandCback (hci)
                                                   LL_SetAdvControl (ll)
                                                   LL_SetAdvData (ll)
                                                   LL_SetAdvParam (ll)
                                                   LL_SetScanRspData (ll)
                                                   LL_TimeToNextRfEvent (ll_sleep)
                                                   RF_NormalIsr (ll_isr)
                                                   Segment part 104 (hci_event)
                                                   Segment part 105 (hci_event)
                                                   Segment part 41 (gap_peridevmgr)
                                                   Segment part 44 (hci_event)
                                                   Segment part 50 (gap_configmgr)
                                                   Segment part 89 (gap_peridevmgr)
                                                   cleanErasedPage (osal_snv)
                                                   compactPage (osal_snv)
                                                   erasePage (osal_snv)
                                                   findItem (osal_snv)
                                                   findOffset (osal_snv)
                                                   gapFindADType (gap_devmgr)
                                                   gapPeriProcessHCICmdCompleteEvt (gap_peridevmgr)
                                                   gapProcessAdvertisingEvt (gap_peridevmgr)
                                                   gapProcessHCICmdCompleteEvt (gap_simpletask)
                                                   gapProcessRandomAddrComplete (gap_configmgr)
                                                   gapReadBD_ADDRStatus (gap_configmgr)
                                                   gapRole_ProcessGAPMsg (broadcaster)
                                                   gapSendDeviceInitDoneEvent (gap_configmgr)
                                                   gapSendMakeDiscEvent (gap_peridevmgr)
                                                   gapSetAdvParams (gap_peridevmgr)
                                                   gapWriteAdvEnableStatus (gap_peridevmgr)
                                                   halSleep (hal_sleep)
                                                   halSleepSetTimer (hal_sleep)
                                                   initNV (osal_snv)
                                                   isLimitedDiscoverableMode (gap_peridevmgr)
                                                   ll24BitTimeCompare (ll_timer2)
                                                   ll24BitTimeDelta (ll_timer2)
                                                   llDiscoverableAdvEvt_TaskEndOk (ll_advEndCauses)
                                                   llFindNextSecTask (ll_scheduler)
                                                   llFindTxPowerSettings (ll_common)
                                                   llNonConnAdvEvt_TaskEndOk (ll_advEndCauses)
                                                   llScheduleTask (ll_scheduler)
                                                   llScheduler (ll_scheduler)
                                                   llSetT2OVFC2Event2 (ll_timer2)
                                                   osalAddTimer (OSAL_Timers)
                                                   osalTimeUpdate (OSAL_ClockBLE)
                                                   osalTimerUpdate (OSAL_Timers)
                                                   osal_CbTimerProcessEvent (osal_cbtimer)
                                                   osal_bm_free (osal_bufmgr)
                                                   osal_mem_alloc (OSAL_Memory)
                                                   osal_mem_kick (OSAL_Memory)
                                                   osal_memcmp (OSAL)
                                                   osal_memset (OSAL)
                                                   osal_msg_allocate (OSAL)
                                                   osal_msg_extract (OSAL)
                                                   osal_msg_receive (OSAL)
                                                   osal_next_timeout (OSAL_Timers)
                                                   osal_pwrmgr_powerconserve (OSAL_PwrMgr)
                                                   osal_pwrmgr_task_state (OSAL_PwrMgr)
                                                   osal_run_system (OSAL)
                                                   osal_start_reload_timer (OSAL_Timers)
                                                   osal_start_timerEx (OSAL_Timers)
                                                   osal_stop_timerEx (OSAL_Timers)
                                                   rand (?rand)
                                                   verifyWordM (osal_snv)
                                                   writeWord (osal_snv)
    -------------------------------------------------------------------------
VREG
  Relative segment, address: DATA 00000009 - 00000009 (0x1 bytes), align: 0
  Segment part 2.             Intra module refs:   ?V2
           ENTRY                   ADDRESS         REF BY
           =====                   =======         ======
           ?V1                     00000009        ?Subroutine0 (hal_sleep)
                                                   AdcRead (BAT_MON)
                                                   BAT_MON_ProcessEvent (BAT_MON)
                                                   GAPRole_ProcessEvent (broadcaster)
                                                   GAPRole_SetParameter (broadcaster)
                                                   GAPRole_StartDevice (broadcaster)
                                                   HalAdcRead (hal_adc)
                                                   HalFlashRead (hal_flash)
                                                   HalFlashWrite (hal_flash)
                                                   compactPage (osal_snv)
                                                   findItem (osal_snv)
                                                   findOffset (osal_snv)
                                                   gapRole_ProcessGAPMsg (broadcaster)
                                                   halSleep (hal_sleep)
                                                   halSleepSetTimer (hal_sleep)
                                                   initNV (osal_snv)
                                                   osalAddTimer (OSAL_Timers)
                                                   osalTimeUpdate (OSAL_ClockBLE)
                                                   osalTimerUpdate (OSAL_Timers)
                                                   osal_CbTimerProcessEvent (osal_cbtimer)
                                                   osal_bm_free (osal_bufmgr)
                                                   osal_mem_alloc (OSAL_Memory)
                                                   osal_mem_kick (OSAL_Memory)
                                                   osal_memcmp (OSAL)
                                                   osal_memset (OSAL)
                                                   osal_msg_allocate (OSAL)
                                                   osal_msg_extract (OSAL)
                                                   osal_msg_receive (OSAL)
                                                   osal_next_timeout (OSAL_Timers)
                                                   osal_pwrmgr_powerconserve (OSAL_PwrMgr)
                                                   osal_pwrmgr_task_state (OSAL_PwrMgr)
                                                   osal_run_system (OSAL)
                                                   osal_start_reload_timer (OSAL_Timers)
                                                   osal_start_timerEx (OSAL_Timers)
                                                   osal_stop_timerEx (OSAL_Timers)
                                                   rand (?rand)
                                                   verifyWordM (osal_snv)
                                                   writeWord (osal_snv)
    -------------------------------------------------------------------------
VREG
  Relative segment, address: DATA 0000000A - 0000000A (0x1 bytes), align: 0
  Segment part 3.             Intra module refs:   ?V3
           ENTRY                   ADDRESS         REF BY
           =====                   =======         ======
           ?V2                     0000000A        ?Subroutine0 (hal_sleep)
                                                   AdcRead (BAT_MON)
                                                   BAT_MON_Init (BAT_MON)
                                                   GAPRole_ProcessEvent (broadcaster)
                                                   GAPRole_SetParameter (broadcaster)
                                                   HalFlashRead (hal_flash)
                                                   cleanErasedPage (osal_snv)
                                                   compactPage (osal_snv)
                                                   erasePage (osal_snv)
                                                   findItem (osal_snv)
                                                   findOffset (osal_snv)
                                                   gapRole_ProcessGAPMsg (broadcaster)
                                                   halSleep (hal_sleep)
                                                   halSleepSetTimer (hal_sleep)
                                                   initNV (osal_snv)
                                                   osalAddTimer (OSAL_Timers)
                                                   osalTimeUpdate (OSAL_ClockBLE)
                                                   osalTimerUpdate (OSAL_Timers)
                                                   osal_CbTimerProcessEvent (osal_cbtimer)
                                                   osal_mem_alloc (OSAL_Memory)
                                                   osal_memcmp (OSAL)
                                                   osal_msg_extract (OSAL)
                                                   osal_msg_receive (OSAL)
                                                   osal_next_timeout (OSAL_Timers)
                                                   osal_pwrmgr_powerconserve (OSAL_PwrMgr)
                                                   osal_run_system (OSAL)
                                                   osal_start_reload_timer (OSAL_Timers)
                                                   osal_stop_timerEx (OSAL_Timers)
                                                   rand (?rand)
                                                   verifyWordM (osal_snv)
                                                   writeWord (osal_snv)
    -------------------------------------------------------------------------
VREG
  Relative segment, address: DATA 0000000B - 0000000B (0x1 bytes), align: 0
  Segment part 4.             Intra module refs:   ?V4
           ENTRY                   ADDRESS         REF BY
           =====                   =======         ======
           ?V3                     0000000B        ?Subroutine0 (hal_sleep)
                                                   AdcRead (BAT_MON)
                                                   BAT_MON_Init (BAT_MON)
                                                   GAPRole_ProcessEvent (broadcaster)
                                                   GAPRole_SetParameter (broadcaster)
                                                   cleanErasedPage (osal_snv)
                                                   compactPage (osal_snv)
                                                   erasePage (osal_snv)
                                                   findItem (osal_snv)
                                                   findOffset (osal_snv)
                                                   gapRole_ProcessGAPMsg (broadcaster)
                                                   halSleep (hal_sleep)
                                                   halSleepSetTimer (hal_sleep)
                                                   initNV (osal_snv)
                                                   osalAddTimer (OSAL_Timers)
                                                   osalTimeUpdate (OSAL_ClockBLE)
                                                   osalTimerUpdate (OSAL_Timers)
                                                   osal_mem_alloc (OSAL_Memory)
                                                   osal_msg_extract (OSAL)
                                                   osal_msg_receive (OSAL)
                                                   osal_next_timeout (OSAL_Timers)
                                                   osal_pwrmgr_powerconserve (OSAL_PwrMgr)
                                                   osal_run_system (OSAL)
                                                   osal_start_reload_timer (OSAL_Timers)
                                                   osal_stop_timerEx (OSAL_Timers)
                                                   rand (?rand)
                                                   verifyWordM (osal_snv)
    -------------------------------------------------------------------------
VREG
  Relative segment, address: DATA 0000000C - 0000000C (0x1 bytes), align: 0
  Segment part 5.             Intra module refs:   ?V5
           ENTRY                   ADDRESS         REF BY
           =====                   =======         ======
           ?V4                     0000000C        GAPRole_SetParameter (broadcaster)
                                                   compactPage (osal_snv)
                                                   halSleep (hal_sleep)
                                                   osalAddTimer (OSAL_Timers)
                                                   osalTimeUpdate (OSAL_ClockBLE)
                                                   osalTimerUpdate (OSAL_Timers)
                                                   osal_CbTimerProcessEvent (osal_cbtimer)
                                                   osal_mem_alloc (OSAL_Memory)
                                                   osal_next_timeout (OSAL_Timers)
                                                   osal_start_reload_timer (OSAL_Timers)
                                                   rand (?rand)
                                                   verifyWordM (osal_snv)
                                                   writeWord (osal_snv)
    -------------------------------------------------------------------------
VREG
  Relative segment, address: DATA 0000000D - 0000000D (0x1 bytes), align: 0
  Segment part 6.             Intra module refs:   ?V6
           ENTRY                   ADDRESS         REF BY
           =====                   =======         ======
           ?V5                     0000000D        GAPRole_SetParameter (broadcaster)
                                                   compactPage (osal_snv)
                                                   halSleep (hal_sleep)
                                                   osalAddTimer (OSAL_Timers)
                                                   osalTimeUpdate (OSAL_ClockBLE)
                                                   osalTimerUpdate (OSAL_Timers)
                                                   osal_CbTimerProcessEvent (osal_cbtimer)
                                                   osal_mem_alloc (OSAL_Memory)
                                                   osal_next_timeout (OSAL_Timers)
                                                   osal_start_reload_timer (OSAL_Timers)
                                                   rand (?rand)
                                                   verifyWordM (osal_snv)
                                                   writeWord (osal_snv)
    -------------------------------------------------------------------------
VREG
  Relative segment, address: DATA 0000000E - 0000000E (0x1 bytes), align: 0
  Segment part 7.             Intra module refs:   ?V7
           ENTRY                   ADDRESS         REF BY
           =====                   =======         ======
           ?V6                     0000000E        compactPage (osal_snv)
                                                   halSleep (hal_sleep)
                                                   osalAddTimer (OSAL_Timers)
                                                   osalTimeUpdate (OSAL_ClockBLE)
                                                   osalTimerUpdate (OSAL_Timers)
                                                   osal_CbTimerProcessEvent (osal_cbtimer)
                                                   osal_next_timeout (OSAL_Timers)
                                                   rand (?rand)
                                                   verifyWordM (osal_snv)
                                                   writeWord (osal_snv)
    -------------------------------------------------------------------------
VREG
  Relative segment, address: DATA 0000000F - 0000000F (0x1 bytes), align: 0
  Segment part 8.
           ENTRY                   ADDRESS         REF BY
           =====                   =======         ======
           ?V7                     0000000F        compactPage (osal_snv)
                                                   halSleep (hal_sleep)
                                                   osalTimeUpdate (OSAL_ClockBLE)
                                                   osalTimerUpdate (OSAL_Timers)
                                                   osal_CbTimerProcessEvent (osal_cbtimer)
                                                   osal_next_timeout (OSAL_Timers)
                                                   rand (?rand)
                                                   writeWord (osal_snv)
    -------------------------------------------------------------------------
XSP
  Relative segment, address: DATA 00000018 - 00000019 (0x2 bytes), align: 0
  Segment part 34.
           ENTRY                   ADDRESS         REF BY
           =====                   =======         ======
           ?XSP                    00000018        ?ADD_XSTACK_DISP0_8 (?ADD_XSTACK_DISP8)
                                                   ?ALLOC_XSTACK8 (?ALLOC_XSTACK8)
                                                   ?BANKED_ENTER_XDATA (?BANKED_ENTER_XDATA)
                                                   ?BANKED_LEAVE_XDATA (?BANKED_LEAVE_XDATA)
                                                   ?DEALLOC_XSTACK8 (?DEALLOC_XSTACK8)
                                                   ?FUNC_ENTER_XDATA (?FUNC_ENTER_XDATA)
                                                   ?FUNC_LEAVE_XDATA (?FUNC_LEAVE_XDATA)
                                                   ?INTERRUPT_ENTER_XSP (?INTERRUPT_ENTER_XSP)
                                                   ?INTERRUPT_LEAVE_XSP (?INTERRUPT_LEAVE_XSP)
                                                   ?PUSH_XSTACK8_X (?PUSH_XSTACK8_X)
                                                   ?RESET_XSP (CSTARTUP)
                                                   ?XSTACK_DISP0_8 (?XSTACK_DISP8)
                                                   ?XSTACK_DISP101_8 (?XSTACK_DISP8_RP)
                                                   ?XSTACK_DISP102_8 (?XSTACK_DISP8_RP)
                                                   BAT_MON_Init (BAT_MON)
                                                   GAPRole_ProcessEvent (broadcaster)
                                                   HCI_EXT_SetBDADDRCmd (hci)
                                                   HCI_LE_ReadBufSizeCmd (hci)
                                                   LL_ENC_GenerateTrueRandNum (ll_enc)
                                                   LL_EXT_ExtendRfRangeCback (hci)
                                                   LL_EXT_SetRxGainCback (hci)
                                                   LL_EXT_SetTxPowerCback (hci)
                                                   LL_RandCback (hci)
                                                   LL_TimeToNextRfEvent (ll_sleep)
                                                   Segment part 30 (ll_timer2)
                                                   Segment part 36 (ll_timer2)
                                                   Segment part 61 (hci)
                                                   Segment part 66 (hci)
                                                   Segment part 94 (hci)
                                                   cleanErasedPage (osal_snv)
                                                   compactPage (osal_snv)
                                                   erasePage (osal_snv)
                                                   findItem (osal_snv)
                                                   findOffset (osal_snv)
                                                   halSleep (hal_sleep)
                                                   halSleepReadTimer (hal_sleep)
                                                   halSleepSetTimer (hal_sleep)
                                                   initNV (osal_snv)
                                                   llFindTxPowerSettings (ll_common)
                                                   llProcessPostRfOps (ll_common)
                                                   llSetT2C1Event1 (ll_timer2)
                                                   llSetT2LongC1Event1 (ll_timer2)
                                                   llSetT2LongC1Timeout (ll_timer2)
                                                   llSetT2OVFC2Event2 (ll_timer2)
                                                   ll_McuPrecisionCount (ll_timer2)
                                                   memset (?memset)
                                                   osalTimerUpdate (OSAL_Timers)
                                                   setActivePage (osal_snv)

    -------------------------------------------------------------------------
  LIBRARY MODULE, NAME : ?BANKED_CODE_SUPPORT

  SEGMENTS IN THE MODULE
  ======================
CSTART
  Relative segment, address: CODE 0000012C - 00000149 (0x1e bytes), align: 0
  Segment part 0.
           ENTRY                   ADDRESS         REF BY
           =====                   =======         ======
           ?BCALL_FF               0000012C        ?call_main (?cmain)
           ?BRET_FF                00000132        ?BANKED_LEAVE_XDATA (?BANKED_LEAVE_XDATA)
                                                   ?Subroutine0 (OSAL)
                                                   ?Subroutine0 (OSAL_Memory)
                                                   ?Subroutine0 (OSAL_PwrMgr)
                                                   ?Subroutine0 (OSAL_Timers)
                                                   ?Subroutine0 (hal_key)
                                                   GAP_NumActiveConnections (gap_simpletask)
                                                   HalFlashErase (hal_flash)
                                                   HalKeyEnterSleep (hal_key)
                                                   HalLedEnterSleep (hal_led)
                                                   HalLedExitSleep (hal_led)
                                                   Hal_ProcessPoll (hal_drivers)
                                                   Segment part 10 (hci_event)
                                                   Segment part 110 (hci)
                                                   Segment part 123 (ll)
                                                   Segment part 184 (phy)
                                                   Segment part 23 (hci_tl)
                                                   Segment part 27 (ll_enc)
                                                   Segment part 27 (ll_scheduler)
                                                   Segment part 31 (gap_peridevmgr)
                                                   Segment part 31 (gap_simpletask)
                                                   Segment part 33 (ll_timer2)
                                                   Segment part 40 (gap_configmgr)
                                                   Segment part 41 (ll_common)
                                                   Segment part 66 (ll_timer2)
                                                   WaitUs (BAT_MON)
                                                   gapValidADType (gap_devmgr)
                                                   halSetSleepMode (hal_sleep)
                                                   halSleepReadTimer (hal_sleep)
                                                   llAdvEvt_TaskAbort (ll_advEndCauses)
                                                   llInitTimer2 (ll_timer2)
                                                   llUnexpectedEndCauseHandler (ll_errorEndCauses)
                                                   main (BAT_MON_Main)
                                                   memset (?memset)
                                                   osalInitTasks (OSAL_BAT_MON)
                                                   osal_snv_init (osal_snv)
                                                   srand (?srand)
           ?BDISPATCH_FF           00000135        AdcRead::?relay (BAT_MON)
                                                   BAT_MON_Init::?relay (BAT_MON)
                                                   BAT_MON_ProcessEvent::?relay (BAT_MON)
                                                   GAPRole_Init::?relay (broadcaster)
                                                   GAPRole_ProcessEvent::?relay (broadcaster)
                                                   GAPRole_SetParameter::?relay (broadcaster)
                                                   GAPRole_StartDevice::?relay (broadcaster)
                                                   GAP_DeviceInit::?relay (gap)
                                                   GAP_EndDiscoverable::?relay (gap_peridevmgr)
                                                   GAP_GetParamValue::?relay (gap_configmgr)
                                                   GAP_Init::?relay (gap_simpletask)
                                                   GAP_MakeDiscoverable::?relay (gap_peridevmgr)
                                                   GAP_NumActiveConnections::?relay (gap_simpletask)
                                                   GAP_ParamsInit::?relay (gap_configmgr)
                                                   GAP_PeriDevMgrInit::?relay (gap_peridevmgr)
                                                   GAP_ProcessEvent::?relay (gap_simpletask)
                                                   GAP_RegisterForHCIMsgs::?relay (gap_simpletask)
                                                   GAP_SetParamValue::?relay (gap_configmgr)
                                                   GAP_UpdateAdvertisingData::?relay (gap_peridevmgr)
                                                   HCI_CommandCompleteEvent::?relay (hci_event)
                                                   HCI_EXT_SetBDADDRCmd::?relay (hci)
                                                   HCI_GAPTaskRegister::?relay (hci_tl)
                                                   HCI_Init::?relay (hci_tl)
                                                   HCI_LE_ReadBufSizeCmd::?relay (hci)
                                                   HCI_LE_SetAdvDataCmd::?relay (hci)
                                                   HCI_LE_SetAdvEnableCmd::?relay (hci)
                                                   HCI_LE_SetAdvParamCmd::?relay (hci)
                                                   HCI_LE_SetScanRspDataCmd::?relay (hci)
                                                   HCI_ProcessEvent::?relay (hci_tl)
                                                   HCI_ReadBDADDRCmd::?relay (hci)
                                                   HCI_SendCommandCompleteEvent::?relay (hci_event)
                                                   HCI_VendorSpecifcCommandCompleteEvent::?relay (hci_event)
                                                   HalAdcRead::?relay (hal_adc)
                                                   HalFlashErase::?relay (hal_flash)
                                                   HalFlashRead::?relay (hal_flash)
                                                   HalFlashWrite::?relay (hal_flash)
                                                   HalKeyEnterSleep::?relay (hal_key)
                                                   HalKeyExitSleep::?relay (hal_key)
                                                   HalKeyRead::?relay (hal_key)
                                                   HalLedEnterSleep::?relay (hal_led)
                                                   HalLedExitSleep::?relay (hal_led)
                                                   Hal_ProcessPoll::?relay (hal_drivers)
                                                   LL_ENC_GeneratePseudoRandNum::?relay (ll_enc)
                                                   LL_ENC_GenerateTrueRandNum::?relay (ll_enc)
                                                   LL_ENC_InitAesDMA::?relay (ll_enc)
                                                   LL_EXT_ExtendRfRangeCback::?relay (hci)
                                                   LL_EXT_SetBDADDR::?relay (ll)
                                                   LL_EXT_SetRxGainCback::?relay (hci)
                                                   LL_EXT_SetTxPowerCback::?relay (hci)
                                                   LL_Init::?relay (ll)
                                                   LL_ProcessEvent::?relay (ll)
                                                   LL_RandCback::?relay (hci)
                                                   LL_ReadBDADDR::?relay (ll)
                                                   LL_Reset::?relay (ll)
                                                   LL_SetAdvControl::?relay (ll)
                                                   LL_SetAdvData::?relay (ll)
                                                   LL_SetAdvParam::?relay (ll)
                                                   LL_SetScanRspData::?relay (ll)
                                                   PHY_ClearAllRegsAndFifos::?relay (phy)
                                                   PHY_ClearBlacklist::?relay (phy)
                                                   PHY_ClearSavedWhiteList::?relay (phy)
                                                   PHY_ClearWhitelist::?relay (phy)
                                                   PHY_ConfigWhitener::?relay (phy)
                                                   PHY_ConfigureAppendRfStatus::?relay (phy)
                                                   PHY_ConfigureFifoDataProcessing::?relay (phy)
                                                   PHY_ConfigureMD::?relay (phy)
                                                   PHY_GetAdvChans::?relay (phy)
                                                   PHY_GetEndCause::?relay (phy)
                                                   PHY_Init::?relay (phy)
                                                   PHY_Reset::?relay (phy)
                                                   PHY_SetAdvChans::?relay (phy)
                                                   PHY_SetAdvWlPolicy::?relay (phy)
                                                   PHY_SetCRCInit::?relay (phy)
                                                   PHY_SetEndConnection::?relay (phy)
                                                   PHY_SetFifoConfig::?relay (phy)
                                                   PHY_SetOwnAddr::?relay (phy)
                                                   PHY_SetSyncWord::?relay (phy)
                                                   WaitUs::?relay (BAT_MON)
                                                   cleanErasedPage::?relay (osal_snv)
                                                   compactPage::?relay (osal_snv)
                                                   erasePage::?relay (osal_snv)
                                                   findItem::?relay (osal_snv)
                                                   findOffset::?relay (osal_snv)
                                                   gapAddAddrAdj::?relay (gap_configmgr)
                                                   gapFindADType::?relay (gap_devmgr)
                                                   gapFreeAdvertState::?relay (gap_peridevmgr)
                                                   gapPeriProcessHCICmdCompleteEvt::?relay (gap_peridevmgr)
                                                   gapProcessAdvertisingEvt::?relay (gap_peridevmgr)
                                                   gapProcessHCICmdCompleteEvt::?relay (gap_simpletask)
                                                   gapProcessRandomAddrComplete::?relay (gap_configmgr)
                                                   gapReadBD_ADDRStatus::?relay (gap_configmgr)
                                                   gapReadBufSizeCmdStatus::?relay (gap_configmgr)
                                                   gapRegisterPeripheral::?relay (gap_simpletask)
                                                   gapRole_ProcessGAPMsg::?relay (broadcaster)
                                                   gapSendDeviceInitDoneEvent::?relay (gap_configmgr)
                                                   gapSendMakeDiscEvent::?relay (gap_peridevmgr)
                                                   gapSetAdvParams::?relay (gap_peridevmgr)
                                                   gapSetAdvParamsStatus::?relay (gap_peridevmgr)
                                                   gapValidADType::?relay (gap_devmgr)
                                                   gapWriteAdvDataStatus::?relay (gap_peridevmgr)
                                                   gapWriteAdvEnableStatus::?relay (gap_peridevmgr)
                                                   halGetJoyKeyInput::?relay (hal_key)
                                                   halProcessKeyInterrupt::?relay (hal_key)
                                                   halSetSleepMode::?relay (hal_sleep)
                                                   halSleep::?relay (hal_sleep)
                                                   halSleepReadTimer::?relay (hal_sleep)
                                                   halSleepSetTimer::?relay (hal_sleep)
                                                   hciInitEventMasks::?relay (hci_event)
                                                   initNV::?relay (osal_snv)
                                                   isLimitedDiscoverableMode::?relay (gap_peridevmgr)
                                                   llAdvEvt_TaskAbort::?relay (ll_advEndCauses)
                                                   llAllocTask::?relay (ll_scheduler)
                                                   llClearSetInts::?relay (ll_common)
                                                   llDisableT2E1::?relay (ll_timer2)
                                                   llDisableT2Ints::?relay (ll_timer2)
                                                   llDisableT2IntsEvts::?relay (ll_timer2)
                                                   llDiscoverableAdvEvt_TaskEndOk::?relay (ll_advEndCauses)
                                                   llExtendRfRange::?relay (ll_common)
                                                   llFindNextSecTask::?relay (ll_scheduler)
                                                   llFindTxPowerSettings::?relay (ll_common)
                                                   llFreeTask::?relay (ll_scheduler)
                                                   llGetCurrentTask::?relay (ll_scheduler)
                                                   llGetCurrentTime::?relay (ll_timer2)
                                                   llGetFullCTandST::?relay (ll_timer2)
                                                   llGetNumTasks::?relay (ll_scheduler)
                                                   llGetTaskState::?relay (ll_scheduler)
                                                   llInitFeatureSet::?relay (ll_common)
                                                   llInitTimer2::?relay (ll_timer2)
                                                   llNonConnAdvEvt_TaskEndOk::?relay (ll_advEndCauses)
                                                   llProcessPostRfOps::?relay (ll_common)
                                                   llRfInit::?relay (ll_common)
                                                   llScheduleTask::?relay (ll_scheduler)
                                                   llScheduler::?relay (ll_scheduler)
                                                   llSchedulerInit::?relay (ll_scheduler)
                                                   llSetFreqTune::?relay (ll_common)
                                                   llSetT2C1Event1::?relay (ll_timer2)
                                                   llSetT2LongC1Event1::?relay (ll_timer2)
                                                   llSetT2LongC1Timeout::?relay (ll_timer2)
                                                   llSetT2OVFC2Event2::?relay (ll_timer2)
                                                   llSetupAdv::?relay (ll_common)
                                                   llSetupNonConnectableAdvEvt::?relay (ll_common)
                                                   llSetupScannableAdvEvt::?relay (ll_common)
                                                   llStartAdvSetup::?relay (ll_common)
                                                   llStartTimer2::?relay (ll_timer2)
                                                   llStopTimer2::?relay (ll_timer2)
                                                   llUnexpectedEndCauseHandler::?relay (ll_errorEndCauses)
                                                   ll_McuPrecisionCount::?relay (ll_timer2)
                                                   memset::?relay (?memset)
                                                   osalAddTimer::?relay (OSAL_Timers)
                                                   osalDeleteTimer::?relay (OSAL_Timers)
                                                   osalFindTimer::?relay (OSAL_Timers)
                                                   osalInitTasks::?relay (OSAL_BAT_MON)
                                                   osalTimeUpdate::?relay (OSAL_ClockBLE)
                                                   osalTimerInit::?relay (OSAL_Timers)
                                                   osalTimerUpdate::?relay (OSAL_Timers)
                                                   osal_CbTimerInit::?relay (osal_cbtimer)
                                                   osal_CbTimerProcessEvent::?relay (osal_cbtimer)
                                                   osal_bm_free::?relay (osal_bufmgr)
                                                   osal_clear_event::?relay (OSAL)
                                                   osal_init_system::?relay (OSAL)
                                                   osal_mem_alloc::?relay (OSAL_Memory)
                                                   osal_mem_free::?relay (OSAL_Memory)
                                                   osal_mem_init::?relay (OSAL_Memory)
                                                   osal_mem_kick::?relay (OSAL_Memory)
                                                   osal_memcmp::?relay (OSAL)
                                                   osal_memcpy::?relay (OSAL)
                                                   osal_memset::?relay (OSAL)
                                                   osal_msg_allocate::?relay (OSAL)
                                                   osal_msg_deallocate::?relay (OSAL)
                                                   osal_msg_enqueue::?relay (OSAL)
                                                   osal_msg_enqueue_push::?relay (OSAL)
                                                   osal_msg_extract::?relay (OSAL)
                                                   osal_msg_push::?relay (OSAL)
                                                   osal_msg_receive::?relay (OSAL)
                                                   osal_msg_send::?relay (OSAL)
                                                   osal_next_timeout::?relay (OSAL_Timers)
                                                   osal_pwrmgr_device::?relay (OSAL_PwrMgr)
                                                   osal_pwrmgr_init::?relay (OSAL_PwrMgr)
                                                   osal_pwrmgr_powerconserve::?relay (OSAL_PwrMgr)
                                                   osal_pwrmgr_task_state::?relay (OSAL_PwrMgr)
                                                   osal_run_system::?relay (OSAL)
                                                   osal_set_event::?relay (OSAL)
                                                   osal_snv_init::?relay (osal_snv)
                                                   osal_start_reload_timer::?relay (OSAL_Timers)
                                                   osal_start_system::?relay (OSAL)
                                                   osal_start_timerEx::?relay (OSAL_Timers)
                                                   osal_stop_timerEx::?relay (OSAL_Timers)
                                                   rand::?relay (?rand)
                                                   setActivePage::?relay (osal_snv)
                                                   srand::?relay (?srand)
                                                   verifyWordM::?relay (osal_snv)
                                                   writeWord::?relay (osal_snv)

    -------------------------------------------------------------------------
  LIBRARY MODULE, NAME : ?L_EQ_X

  SEGMENTS IN THE MODULE
  ======================
RCODE
  Relative segment, address: CODE 000006B2 - 000006C6 (0x15 bytes), align: 0
  Segment part 1.
           ENTRY                   ADDRESS         REF BY
           =====                   =======         ======
           ?L_EQ_X                 000006B2        findOffset (osal_snv)
                                                   initNV (osal_snv)
                                                   llSetT2OVFC2Event2 (ll_timer2)

    -------------------------------------------------------------------------
  LIBRARY MODULE, NAME : ?UL_GT

  SEGMENTS IN THE MODULE
  ======================
RCODE
  Relative segment, address: CODE 000006C7 - 000006D6 (0x10 bytes), align: 0
  Segment part 1.
           ENTRY                   ADDRESS         REF BY
           =====                   =======         ======
           ?UL_GT                  000006C7        LL_TimeToNextRfEvent (ll_sleep)
                                                   ll24BitTimeCompare (ll_timer2)
                                                   ll24BitTimeDelta (ll_timer2)
                                                   osal_next_timeout (OSAL_Timers)

    -------------------------------------------------------------------------
  LIBRARY MODULE, NAME : ?UL_GT_X

  SEGMENTS IN THE MODULE
  ======================
RCODE
  Relative segment, address: CODE 000006D7 - 000006E6 (0x10 bytes), align: 0
  Segment part 1.
           ENTRY                   ADDRESS         REF BY
           =====                   =======         ======
           ?UL_GT_X                000006D7        halSleep (hal_sleep)
                                                   osalTimerUpdate (OSAL_Timers)

    -------------------------------------------------------------------------
  LIBRARY MODULE, NAME : ?UL_GE_X

  SEGMENTS IN THE MODULE
  ======================
RCODE
  Relative segment, address: CODE 000006E7 - 00000705 (0x1f bytes), align: 0
  Segment part 1.
           ENTRY                   ADDRESS         REF BY
           =====                   =======         ======
           ?UL_GE_X                000006E7        halSleep (hal_sleep)

    -------------------------------------------------------------------------
  LIBRARY MODULE, NAME : ?L_MUL

  SEGMENTS IN THE MODULE
  ======================
RCODE
  Relative segment, address: CODE 00000706 - 00000708 (0x3 bytes), align: 0
  Segment part 0.
           ENTRY                   ADDRESS         REF BY
           =====                   =======         ======
           ?L_MUL                  00000706        gapWriteAdvEnableStatus (gap_peridevmgr)
                                                   llScheduleTask (ll_scheduler)
                                                   rand (?rand)
    -------------------------------------------------------------------------
RCODE
  Relative segment, address: CODE 00000709 - 00000785 (0x7d bytes), align: 0
  Segment part 1.             Intra module refs:   ?L_MUL
           ENTRY                   ADDRESS         REF BY
           =====                   =======         ======
           ?L_MUL_REW              00000709 

    -------------------------------------------------------------------------
  LIBRARY MODULE, NAME : ?UL_DIV_MOD

  SEGMENTS IN THE MODULE
  ======================
RCODE
  Relative segment, address: CODE 00000786 - 000007F4 (0x6f bytes), align: 0
  Segment part 1.
           ENTRY                   ADDRESS         REF BY
           =====                   =======         ======
           ?UL_DIV_MOD             00000786        LL_TimeToNextRfEvent (ll_sleep)
                                                   halSleep (hal_sleep)

    -------------------------------------------------------------------------
  LIBRARY MODULE, NAME : ?UL_SHR

  SEGMENTS IN THE MODULE
  ======================
RCODE
  Relative segment, address: CODE 000007F5 - 000007F9 (0x5 bytes), align: 0
  Segment part 1.             Intra module refs:   Segment part 2
           ENTRY                   ADDRESS         REF BY
           =====                   =======         ======
           ?UL_SHR                 000007F5        llFindTxPowerSettings (ll_common)
                                                   llScheduleTask (ll_scheduler)
                                                   rand (?rand)
    -------------------------------------------------------------------------
RCODE
  Relative segment, address: CODE 000007FA - 0000080D (0x14 bytes), align: 0
  Segment part 2.             Intra module refs:   ?UL_SHR

    -------------------------------------------------------------------------
  LIBRARY MODULE, NAME : ?L_SHL

  SEGMENTS IN THE MODULE
  ======================
RCODE
  Relative segment, address: CODE 0000080E - 00000813 (0x6 bytes), align: 0
  Segment part 0.
           ENTRY                   ADDRESS         REF BY
           =====                   =======         ======
           ?L_SHL                  0000080E        LL_TimeToNextRfEvent (ll_sleep)
                                                   halSleep (hal_sleep)
    -------------------------------------------------------------------------
RCODE
  Relative segment, address: CODE 00000814 - 00000818 (0x5 bytes), align: 0
  Segment part 1.             Intra module refs:   Segment part 2
           ENTRY                   ADDRESS         REF BY
           =====                   =======         ======
           ?L_SHL_REW              00000814 
    -------------------------------------------------------------------------
RCODE
  Relative segment, address: CODE 00000819 - 0000082C (0x14 bytes), align: 0
  Segment part 2.             Intra module refs:   ?L_SHL
                                                   ?L_SHL_REW

    -------------------------------------------------------------------------
  LIBRARY MODULE, NAME : ?L_ADD

  SEGMENTS IN THE MODULE
  ======================
RCODE
  Relative segment, address: CODE 0000082D - 0000083F (0x13 bytes), align: 0
  Segment part 1.
           ENTRY                   ADDRESS         REF BY
           =====                   =======         ======
           ?L_ADD                  0000082D        LL_SetAdvControl (ll)
                                                   LL_TimeToNextRfEvent (ll_sleep)
                                                   ll24BitTimeDelta (ll_timer2)
                                                   llDiscoverableAdvEvt_TaskEndOk (ll_advEndCauses)
                                                   llNonConnAdvEvt_TaskEndOk (ll_advEndCauses)
                                                   llScheduler (ll_scheduler)

    -------------------------------------------------------------------------
  LIBRARY MODULE, NAME : ?L_ADD_X

  SEGMENTS IN THE MODULE
  ======================
RCODE
  Relative segment, address: CODE 00000840 - 00000852 (0x13 bytes), align: 0
  Segment part 1.
           ENTRY                   ADDRESS         REF BY
           =====                   =======         ======
           ?L_ADD_X                00000840        halSleepSetTimer (hal_sleep)
                                                   llDiscoverableAdvEvt_TaskEndOk (ll_advEndCauses)
                                                   llFindNextSecTask (ll_scheduler)
                                                   llNonConnAdvEvt_TaskEndOk (ll_advEndCauses)
                                                   llScheduler (ll_scheduler)
                                                   rand (?rand)

    -------------------------------------------------------------------------
  LIBRARY MODULE, NAME : ?L_ADD_TO_X

  SEGMENTS IN THE MODULE
  ======================
RCODE
  Relative segment, address: CODE 00000853 - 00000865 (0x13 bytes), align: 0
  Segment part 1.
           ENTRY                   ADDRESS         REF BY
           =====                   =======         ======
           ?L_ADD_TO_X             00000853        halSleepSetTimer (hal_sleep)
                                                   osalTimeUpdate (OSAL_ClockBLE)
                                                   osalTimerUpdate (OSAL_Timers)

    -------------------------------------------------------------------------
  LIBRARY MODULE, NAME : ?L_SUB

  SEGMENTS IN THE MODULE
  ======================
RCODE
  Relative segment, address: CODE 00000866 - 00000879 (0x14 bytes), align: 0
  Segment part 1.
           ENTRY                   ADDRESS         REF BY
           =====                   =======         ======
           ?L_SUB                  00000866        LL_TimeToNextRfEvent (ll_sleep)
                                                   ll24BitTimeCompare (ll_timer2)
                                                   ll24BitTimeDelta (ll_timer2)

    -------------------------------------------------------------------------
  LIBRARY MODULE, NAME : ?L_SUB_FROM_X

  SEGMENTS IN THE MODULE
  ======================
RCODE
  Relative segment, address: CODE 0000087A - 0000088D (0x14 bytes), align: 0
  Segment part 1.
           ENTRY                   ADDRESS         REF BY
           =====                   =======         ======
           ?L_SUB_FROM_X           0000087A        osalTimerUpdate (OSAL_Timers)

    -------------------------------------------------------------------------
  LIBRARY MODULE, NAME : ?L_AND

  SEGMENTS IN THE MODULE
  ======================
RCODE
  Relative segment, address: CODE 0000088E - 000008A0 (0x13 bytes), align: 0
  Segment part 1.
           ENTRY                   ADDRESS         REF BY
           =====                   =======         ======
           ?L_AND                  0000088E        LL_SetAdvControl (ll)
                                                   llDiscoverableAdvEvt_TaskEndOk (ll_advEndCauses)
                                                   llNonConnAdvEvt_TaskEndOk (ll_advEndCauses)
                                                   llScheduler (ll_scheduler)

    -------------------------------------------------------------------------
  LIBRARY MODULE, NAME : ?L_AND_X

  SEGMENTS IN THE MODULE
  ======================
RCODE
  Relative segment, address: CODE 000008A1 - 000008B3 (0x13 bytes), align: 0
  Segment part 1.
           ENTRY                   ADDRESS         REF BY
           =====                   =======         ======
           ?L_AND_X                000008A1        LL_TimeToNextRfEvent (ll_sleep)

    -------------------------------------------------------------------------
  LIBRARY MODULE, NAME : ?L_MOV_X

  SEGMENTS IN THE MODULE
  ======================
RCODE
  Relative segment, address: CODE 000008B4 - 000008C2 (0xf bytes), align: 0
  Segment part 0.
           ENTRY                   ADDRESS         REF BY
           =====                   =======         ======
           ?L_MOV_X                000008B4        findOffset (osal_snv)
                                                   gapWriteAdvEnableStatus (gap_peridevmgr)
                                                   halSleep (hal_sleep)
                                                   halSleepSetTimer (hal_sleep)
                                                   initNV (osal_snv)
                                                   ll24BitTimeCompare (ll_timer2)
                                                   ll24BitTimeDelta (ll_timer2)
                                                   llFindTxPowerSettings (ll_common)
                                                   osalAddTimer (OSAL_Timers)
                                                   osalTimerUpdate (OSAL_Timers)
                                                   osal_next_timeout (OSAL_Timers)
                                                   osal_start_reload_timer (OSAL_Timers)
                                                   rand (?rand)

    -------------------------------------------------------------------------
  LIBRARY MODULE, NAME : ?L_MOV_TO_X

  SEGMENTS IN THE MODULE
  ======================
RCODE
  Relative segment, address: CODE 000008C3 - 000008D1 (0xf bytes), align: 0
  Segment part 2.
           ENTRY                   ADDRESS         REF BY
           =====                   =======         ======
           ?L_MOV_TO_X             000008C3        LL_SetAdvControl (ll)
                                                   LL_TimeToNextRfEvent (ll_sleep)
                                                   llDiscoverableAdvEvt_TaskEndOk (ll_advEndCauses)
                                                   llNonConnAdvEvt_TaskEndOk (ll_advEndCauses)
                                                   llScheduler (ll_scheduler)
                                                   osalAddTimer (OSAL_Timers)
                                                   osalTimerUpdate (OSAL_Timers)
                                                   osal_start_reload_timer (OSAL_Timers)
                                                   rand (?rand)

    -------------------------------------------------------------------------
  LIBRARY MODULE, NAME : ?XLOAD_R2345

  SEGMENTS IN THE MODULE
  ======================
RCODE
  Relative segment, address: CODE 000008D2 - 000008DD (0xc bytes), align: 0
  Segment part 0.
           ENTRY                   ADDRESS         REF BY
           =====                   =======         ======
           ?XLOAD_R2345            000008D2        Segment part 30 (ll_timer2)
                                                   halSleep (hal_sleep)
                                                   halSleepReadTimer (hal_sleep)
                                                   llFindNextSecTask (ll_scheduler)
                                                   llScheduleTask (ll_scheduler)
                                                   llScheduler (ll_scheduler)

    -------------------------------------------------------------------------
  LIBRARY MODULE, NAME : ?XSTORE_R2345

  SEGMENTS IN THE MODULE
  ======================
RCODE
  Relative segment, address: CODE 000008DE - 000008E9 (0xc bytes), align: 0
  Segment part 0.
           ENTRY                   ADDRESS         REF BY
           =====                   =======         ======
           ?XSTORE_R2345           000008DE        halSleep (hal_sleep)
                                                   llAllocTask (ll_scheduler)

    -------------------------------------------------------------------------
  LIBRARY MODULE, NAME : ?XLOAD_R0123

  SEGMENTS IN THE MODULE
  ======================
RCODE
  Relative segment, address: CODE 000008EA - 000008F5 (0xc bytes), align: 0
  Segment part 0.
           ENTRY                   ADDRESS         REF BY
           =====                   =======         ======
           ?XLOAD_R0123            000008EA        halSleep (hal_sleep)
                                                   initNV (osal_snv)
                                                   osalTimerUpdate (OSAL_Timers)

    -------------------------------------------------------------------------
  LIBRARY MODULE, NAME : ?XSTORE_R0123

  SEGMENTS IN THE MODULE
  ======================
RCODE
  Relative segment, address: CODE 000008F6 - 00000901 (0xc bytes), align: 0
  Segment part 0.
           ENTRY                   ADDRESS         REF BY
           =====                   =======         ======
           ?XSTORE_R0123           000008F6        osalTimerUpdate (OSAL_Timers)

    -------------------------------------------------------------------------
  LIBRARY MODULE, NAME : ?MOVE_LONG8_XDATA_IDATA

  SEGMENTS IN THE MODULE
  ======================
RCODE
  Relative segment, address: CODE 00000902 - 0000090E (0xd bytes), align: 0
  Segment part 0.
           ENTRY                   ADDRESS         REF BY
           =====                   =======         ======
           ?MOVE_LONG8_XDATA_IDATA
                                   00000902        ?PUSH_XSTACK_I (?PUSH_XSTACK_I)

    -------------------------------------------------------------------------
  LIBRARY MODULE, NAME : ?MOVE_LONG8_XDATA_XDATA

  SEGMENTS IN THE MODULE
  ======================
RCODE
  Relative segment, address: CODE 0000090F - 0000092F (0x21 bytes), align: 0
  Segment part 0.
           ENTRY                   ADDRESS         REF BY
           =====                   =======         ======
           ?MOVE_LONG8_XDATA_XDATA
                                   0000090F        ?PUSH_XSTACK8_X (?PUSH_XSTACK8_X)
                                                   llFindTxPowerSettings (ll_common)

    -------------------------------------------------------------------------
  LIBRARY MODULE, NAME : ?S_DIV_MOD

  SEGMENTS IN THE MODULE
  ======================
RCODE
  Relative segment, address: CODE 00000930 - 00000988 (0x59 bytes), align: 0
  Segment part 1.
           ENTRY                   ADDRESS         REF BY
           =====                   =======         ======
           ?US_DIV_MOD             00000930        LL_TimeToNextRfEvent (ll_sleep)
                                                   osalTimeUpdate (OSAL_ClockBLE)

    -------------------------------------------------------------------------
  LIBRARY MODULE, NAME : ?SS_SHR

  SEGMENTS IN THE MODULE
  ======================
RCODE
  Relative segment, address: CODE 00000989 - 0000098B (0x3 bytes), align: 0
  Segment part 1.             Intra module refs:   Segment part 2
           ENTRY                   ADDRESS         REF BY
           =====                   =======         ======
           ?SS_SHR                 00000989        AdcRead (BAT_MON)
                                                   HalAdcRead (hal_adc)
    -------------------------------------------------------------------------
RCODE
  Relative segment, address: CODE 0000098C - 00000998 (0xd bytes), align: 0
  Segment part 2.             Intra module refs:   ?SS_SHR

    -------------------------------------------------------------------------
  LIBRARY MODULE, NAME : ?US_SHR

  SEGMENTS IN THE MODULE
  ======================
RCODE
  Relative segment, address: CODE 00000999 - 0000099B (0x3 bytes), align: 0
  Segment part 1.             Intra module refs:   Segment part 2
           ENTRY                   ADDRESS         REF BY
           =====                   =======         ======
           ?US_SHR                 00000999        HalFlashWrite (hal_flash)
                                                   LL_Init (ll)
                                                   RF_NormalIsr (ll_isr)
                                                   osalTimeUpdate (OSAL_ClockBLE)
                                                   osal_CbTimerProcessEvent (osal_cbtimer)
                                                   writeWord (osal_snv)
    -------------------------------------------------------------------------
RCODE
  Relative segment, address: CODE 0000099C - 000009A7 (0xc bytes), align: 0
  Segment part 2.             Intra module refs:   ?US_SHR

    -------------------------------------------------------------------------
  LIBRARY MODULE, NAME : ?S_SHL

  SEGMENTS IN THE MODULE
  ======================
RCODE
  Relative segment, address: CODE 000009A8 - 000009AA (0x3 bytes), align: 0
  Segment part 0.
           ENTRY                   ADDRESS         REF BY
           =====                   =======         ======
           ?S_SHL                  000009A8        HalFlashRead (hal_flash)
                                                   LL_PowerOffReq (ll_sleep)
                                                   LL_PowerOnReq (ll_sleep)
                                                   llFindTxPowerSettings (ll_common)
                                                   osal_CbTimerProcessEvent (osal_cbtimer)
                                                   osal_pwrmgr_task_state (OSAL_PwrMgr)
                                                   writeWord (osal_snv)
    -------------------------------------------------------------------------
RCODE
  Relative segment, address: CODE 000009AB - 000009AD (0x3 bytes), align: 0
  Segment part 1.             Intra module refs:   Segment part 2
           ENTRY                   ADDRESS         REF BY
           =====                   =======         ======
           ?S_SHL_REW              000009AB 
    -------------------------------------------------------------------------
RCODE
  Relative segment, address: CODE 000009AE - 000009BA (0xd bytes), align: 0
  Segment part 2.             Intra module refs:   ?S_SHL
                                                   ?S_SHL_REW

    -------------------------------------------------------------------------
  LIBRARY MODULE, NAME : ?ALLOC_XSTACK8

  SEGMENTS IN THE MODULE
  ======================
RCODE
  Relative segment, address: CODE 000009BB - 000009D0 (0x16 bytes), align: 0
  Segment part 0.
           ENTRY                   ADDRESS         REF BY
           =====                   =======         ======
           ?ALLOC_XSTACK8          000009BB        BAT_MON_Init (BAT_MON)
                                                   GAPRole_ProcessEvent (broadcaster)
                                                   HCI_EXT_SetBDADDRCmd (hci)
                                                   HCI_LE_ReadBufSizeCmd (hci)
                                                   HCI_LE_SetAdvDataCmd (hci)
                                                   HCI_LE_SetAdvEnableCmd (hci)
                                                   HCI_LE_SetAdvParamCmd (hci)
                                                   HCI_LE_SetScanRspDataCmd (hci)
                                                   HCI_ReadBDADDRCmd (hci)
                                                   LL_ENC_GenerateTrueRandNum (ll_enc)
                                                   LL_EXT_ExtendRfRangeCback (hci)
                                                   LL_EXT_SetRxGainCback (hci)
                                                   LL_EXT_SetTxPowerCback (hci)
                                                   LL_RandCback (hci)
                                                   LL_TimeToNextRfEvent (ll_sleep)
                                                   cleanErasedPage (osal_snv)
                                                   compactPage (osal_snv)
                                                   erasePage (osal_snv)
                                                   findItem (osal_snv)
                                                   findOffset (osal_snv)
                                                   halSleep (hal_sleep)
                                                   halSleepReadTimer (hal_sleep)
                                                   halSleepSetTimer (hal_sleep)
                                                   initNV (osal_snv)
                                                   isLimitedDiscoverableMode (gap_peridevmgr)
                                                   llFindTxPowerSettings (ll_common)
                                                   llGetCurrentTime (ll_timer2)
                                                   llProcessPostRfOps (ll_common)
                                                   llSetT2C1Event1 (ll_timer2)
                                                   llSetT2LongC1Event1 (ll_timer2)
                                                   llSetT2LongC1Timeout (ll_timer2)
                                                   llSetT2OVFC2Event2 (ll_timer2)
                                                   ll_McuPrecisionCount (ll_timer2)
                                                   osalTimerUpdate (OSAL_Timers)
                                                   setActivePage (osal_snv)
                                                   verifyWordM (osal_snv)

    -------------------------------------------------------------------------
  LIBRARY MODULE, NAME : ?DEALLOC_XSTACK8

  SEGMENTS IN THE MODULE
  ======================
RCODE
  Relative segment, address: CODE 000009D1 - 000009EB (0x1b bytes), align: 0
  Segment part 0.
           ENTRY                   ADDRESS         REF BY
           =====                   =======         ======
           ?DEALLOC_XSTACK8        000009D1        ?Subroutine1 (osal_snv)
                                                   ?Subroutine2 (osal_snv)
                                                   BAT_MON_Init (BAT_MON)
                                                   BAT_MON_ProcessEvent (BAT_MON)
                                                   GAPRole_ProcessEvent (broadcaster)
                                                   GAPRole_SetParameter (broadcaster)
                                                   GAPRole_StartDevice (broadcaster)
                                                   GAP_MakeDiscoverable (gap_peridevmgr)
                                                   GAP_UpdateAdvertisingData (gap_peridevmgr)
                                                   HCI_CommandCompleteEvent (hci_event)
                                                   HCI_LE_SetAdvParamCmd (hci)
                                                   HCI_SendCommandCompleteEvent (hci_event)
                                                   HCI_VendorSpecifcCommandCompleteEvent (hci_event)
                                                   LL_ENC_GenerateTrueRandNum (ll_enc)
                                                   LL_Init (ll)
                                                   LL_ProcessEvent (ll)
                                                   LL_RandCback (hci)
                                                   LL_SetAdvData (ll)
                                                   LL_SetScanRspData (ll)
                                                   LL_TimeToNextRfEvent (ll_sleep)
                                                   Segment part 109 (hci)
                                                   Segment part 24 (osal_snv)
                                                   Segment part 32 (ll_timer2)
                                                   Segment part 74 (hci)
                                                   Segment part 99 (hci)
                                                   cleanErasedPage (osal_snv)
                                                   compactPage (osal_snv)
                                                   erasePage (osal_snv)
                                                   findItem (osal_snv)
                                                   findOffset (osal_snv)
                                                   gapProcessAdvertisingEvt (gap_peridevmgr)
                                                   gapProcessRandomAddrComplete (gap_configmgr)
                                                   gapReadBD_ADDRStatus (gap_configmgr)
                                                   gapRole_ProcessGAPMsg (broadcaster)
                                                   gapSendDeviceInitDoneEvent (gap_configmgr)
                                                   gapSetAdvParams (gap_peridevmgr)
                                                   gapWriteAdvEnableStatus (gap_peridevmgr)
                                                   halProcessKeyInterrupt (hal_key)
                                                   halSleep (hal_sleep)
                                                   halSleepReadTimer (hal_sleep)
                                                   halSleepSetTimer (hal_sleep)
                                                   initNV (osal_snv)
                                                   isLimitedDiscoverableMode (gap_peridevmgr)
                                                   llFindNextSecTask (ll_scheduler)
                                                   llFindTxPowerSettings (ll_common)
                                                   llProcessPostRfOps (ll_common)
                                                   llScheduleTask (ll_scheduler)
                                                   llScheduler (ll_scheduler)
                                                   llSetT2OVFC2Event2 (ll_timer2)
                                                   osalTimerUpdate (OSAL_Timers)
                                                   osal_memset (OSAL)
                                                   osal_msg_receive (OSAL)
                                                   osal_start_reload_timer (OSAL_Timers)
                                                   osal_start_timerEx (OSAL_Timers)
                                                   verifyWordM (osal_snv)
                                                   writeWord (osal_snv)

    -------------------------------------------------------------------------
  LIBRARY MODULE, NAME : ?ADD_XSTACK_DISP8

  SEGMENTS IN THE MODULE
  ======================
RCODE
  Relative segment, address: CODE 000009EC - 00000A06 (0x1b bytes), align: 0
  Segment part 1.
           ENTRY                   ADDRESS         REF BY
           =====                   =======         ======
           ?ADD_XSTACK_DISP0_8     000009EC        ?PUSH_XSTACK_I (?PUSH_XSTACK_I)

    -------------------------------------------------------------------------
  LIBRARY MODULE, NAME : ?XSTACK_DISP8

  SEGMENTS IN THE MODULE
  ======================
RCODE
  Relative segment, address: CODE 00000A07 - 00000A10 (0xa bytes), align: 0
  Segment part 1.
           ENTRY                   ADDRESS         REF BY
           =====                   =======         ======
           ?XSTACK_DISP0_8         00000A07        BAT_MON_Init (BAT_MON)
                                                   GAPRole_ProcessEvent (broadcaster)
                                                   HCI_EXT_SetBDADDRCmd (hci)
                                                   HCI_LE_ReadBufSizeCmd (hci)
                                                   HCI_LE_SetAdvParamCmd (hci)
                                                   HCI_ReadBDADDRCmd (hci)
                                                   HCI_SendCommandCompleteEvent (hci_event)
                                                   HalFlashRead (hal_flash)
                                                   HalFlashWrite (hal_flash)
                                                   LL_ENC_GenerateTrueRandNum (ll_enc)
                                                   LL_EXT_ExtendRfRangeCback (hci)
                                                   LL_EXT_SetRxGainCback (hci)
                                                   LL_EXT_SetTxPowerCback (hci)
                                                   LL_RandCback (hci)
                                                   LL_SetAdvParam (ll)
                                                   LL_TimeToNextRfEvent (ll_sleep)
                                                   Segment part 30 (ll_timer2)
                                                   compactPage (osal_snv)
                                                   findItem (osal_snv)
                                                   gapFindADType (gap_devmgr)
                                                   halSleep (hal_sleep)
                                                   halSleepReadTimer (hal_sleep)
                                                   halSleepSetTimer (hal_sleep)
                                                   isLimitedDiscoverableMode (gap_peridevmgr)
                                                   ll24BitTimeCompare (ll_timer2)
                                                   ll24BitTimeDelta (ll_timer2)
                                                   llFindTxPowerSettings (ll_common)
                                                   llSetT2C1Event1 (ll_timer2)
                                                   llSetT2LongC1Event1 (ll_timer2)
                                                   llSetT2LongC1Timeout (ll_timer2)
                                                   llSetT2OVFC2Event2 (ll_timer2)
                                                   ll_McuPrecisionCount (ll_timer2)
                                                   osalAddTimer (OSAL_Timers)
                                                   osalTimerUpdate (OSAL_Timers)
                                                   osal_memcmp (OSAL)
                                                   osal_memcpy (OSAL)
                                                   osal_msg_extract (OSAL)
                                                   osal_start_reload_timer (OSAL_Timers)
                                                   osal_start_timerEx (OSAL_Timers)
                                                   verifyWordM (osal_snv)

    -------------------------------------------------------------------------
  LIBRARY MODULE, NAME : ?XSTACK_DISP8_RP

  SEGMENTS IN THE MODULE
  ======================
RCODE
  Relative segment, address: CODE 00000A11 - 00000A18 (0x8 bytes), align: 0
  Segment part 1.
           ENTRY                   ADDRESS         REF BY
           =====                   =======         ======
           ?XSTACK_DISP101_8       00000A11        halSleep (hal_sleep)
                                                   verifyWordM (osal_snv)
    -------------------------------------------------------------------------
RCODE
  Relative segment, address: CODE 00000A19 - 00000A20 (0x8 bytes), align: 0
  Segment part 2.
           ENTRY                   ADDRESS         REF BY
           =====                   =======         ======
           ?XSTACK_DISP102_8       00000A19        BAT_MON_Init (BAT_MON)
                                                   cleanErasedPage (osal_snv)
                                                   compactPage (osal_snv)
                                                   erasePage (osal_snv)
                                                   findItem (osal_snv)
                                                   findOffset (osal_snv)
                                                   initNV (osal_snv)
                                                   verifyWordM (osal_snv)

    -------------------------------------------------------------------------
  LIBRARY MODULE, NAME : ?CALL_IND

  SEGMENTS IN THE MODULE
  ======================
RCODE
  Relative segment, address: CODE 00000A21 - 00000A22 (0x2 bytes), align: 0
  Segment part 0.
           ENTRY                   ADDRESS         REF BY
           =====                   =======         ======
           ?CALL_IND               00000A21        GAPRole_ProcessEvent (broadcaster)
                                                   GAP_ProcessEvent (gap_simpletask)
                                                   LL_ProcessEvent (ll)
                                                   gapProcessHCICmdCompleteEvt (gap_simpletask)
                                                   gapProcessRandomAddrComplete (gap_configmgr)
                                                   gapRole_ProcessGAPMsg (broadcaster)
                                                   llScheduleTask (ll_scheduler)
                                                   osal_CbTimerProcessEvent (osal_cbtimer)
                                                   osal_run_system (OSAL)

    -------------------------------------------------------------------------
  LIBRARY MODULE, NAME : ?BANKED_ENTER_XDATA

  SEGMENTS IN THE MODULE
  ======================
RCODE
  Relative segment, address: CODE 00000A23 - 00000A8E (0x6c bytes), align: 0
  Segment part 1.
           ENTRY                   ADDRESS         REF BY
           =====                   =======         ======
           ?BANKED_ENTER_XDATA     00000A23        AdcRead (BAT_MON)
                                                   BAT_MON_Init (BAT_MON)
                                                   BAT_MON_ProcessEvent (BAT_MON)
                                                   GAPRole_Init (broadcaster)
                                                   GAPRole_ProcessEvent (broadcaster)
                                                   GAPRole_SetParameter (broadcaster)
                                                   GAPRole_StartDevice (broadcaster)
                                                   GAP_DeviceInit (gap)
                                                   GAP_EndDiscoverable (gap_peridevmgr)
                                                   GAP_Init (gap_simpletask)
                                                   GAP_MakeDiscoverable (gap_peridevmgr)
                                                   GAP_ParamsInit (gap_configmgr)
                                                   GAP_PeriDevMgrInit (gap_peridevmgr)
                                                   GAP_ProcessEvent (gap_simpletask)
                                                   GAP_UpdateAdvertisingData (gap_peridevmgr)
                                                   HCI_CommandCompleteEvent (hci_event)
                                                   HCI_Init (hci_tl)
                                                   HCI_LE_SetAdvDataCmd (hci)
                                                   HCI_LE_SetAdvEnableCmd (hci)
                                                   HCI_LE_SetAdvParamCmd (hci)
                                                   HCI_LE_SetScanRspDataCmd (hci)
                                                   HCI_ProcessEvent (hci_tl)
                                                   HCI_SendCommandCompleteEvent (hci_event)
                                                   HCI_VendorSpecifcCommandCompleteEvent (hci_event)
                                                   HalAdcRead (hal_adc)
                                                   HalFlashRead (hal_flash)
                                                   HalFlashWrite (hal_flash)
                                                   HalKeyRead (hal_key)
                                                   LL_ENC_GenerateTrueRandNum (ll_enc)
                                                   LL_Init (ll)
                                                   LL_ProcessEvent (ll)
                                                   LL_RandCback (hci)
                                                   LL_SetAdvControl (ll)
                                                   LL_SetAdvData (ll)
                                                   LL_SetAdvParam (ll)
                                                   LL_SetScanRspData (ll)
                                                   PHY_SetCRCInit (phy)
                                                   PHY_SetSyncWord (phy)
                                                   cleanErasedPage (osal_snv)
                                                   compactPage (osal_snv)
                                                   erasePage (osal_snv)
                                                   findItem (osal_snv)
                                                   findOffset (osal_snv)
                                                   gapFindADType (gap_devmgr)
                                                   gapPeriProcessHCICmdCompleteEvt (gap_peridevmgr)
                                                   gapProcessAdvertisingEvt (gap_peridevmgr)
                                                   gapProcessHCICmdCompleteEvt (gap_simpletask)
                                                   gapProcessRandomAddrComplete (gap_configmgr)
                                                   gapReadBD_ADDRStatus (gap_configmgr)
                                                   gapReadBufSizeCmdStatus (gap_configmgr)
                                                   gapRole_ProcessGAPMsg (broadcaster)
                                                   gapSendDeviceInitDoneEvent (gap_configmgr)
                                                   gapSendMakeDiscEvent (gap_peridevmgr)
                                                   gapSetAdvParams (gap_peridevmgr)
                                                   gapSetAdvParamsStatus (gap_peridevmgr)
                                                   gapWriteAdvDataStatus (gap_peridevmgr)
                                                   gapWriteAdvEnableStatus (gap_peridevmgr)
                                                   halGetJoyKeyInput (hal_key)
                                                   halSleep (hal_sleep)
                                                   halSleepSetTimer (hal_sleep)
                                                   initNV (osal_snv)
                                                   isLimitedDiscoverableMode (gap_peridevmgr)
                                                   llAllocTask (ll_scheduler)
                                                   llDiscoverableAdvEvt_TaskEndOk (ll_advEndCauses)
                                                   llFindNextSecTask (ll_scheduler)
                                                   llFindTxPowerSettings (ll_common)
                                                   llNonConnAdvEvt_TaskEndOk (ll_advEndCauses)
                                                   llScheduleTask (ll_scheduler)
                                                   llScheduler (ll_scheduler)
                                                   llSetT2OVFC2Event2 (ll_timer2)
                                                   llSetupNonConnectableAdvEvt (ll_common)
                                                   llSetupScannableAdvEvt (ll_common)
                                                   osalAddTimer (OSAL_Timers)
                                                   osalTimeUpdate (OSAL_ClockBLE)
                                                   osalTimerInit (OSAL_Timers)
                                                   osalTimerUpdate (OSAL_Timers)
                                                   osal_CbTimerInit (osal_cbtimer)
                                                   osal_CbTimerProcessEvent (osal_cbtimer)
                                                   osal_bm_free (osal_bufmgr)
                                                   osal_clear_event (OSAL)
                                                   osal_mem_alloc (OSAL_Memory)
                                                   osal_mem_kick (OSAL_Memory)
                                                   osal_memcmp (OSAL)
                                                   osal_memcpy (OSAL)
                                                   osal_memset (OSAL)
                                                   osal_msg_allocate (OSAL)
                                                   osal_msg_enqueue (OSAL)
                                                   osal_msg_enqueue_push (OSAL)
                                                   osal_msg_extract (OSAL)
                                                   osal_msg_push (OSAL)
                                                   osal_msg_receive (OSAL)
                                                   osal_msg_send (OSAL)
                                                   osal_next_timeout (OSAL_Timers)
                                                   osal_pwrmgr_powerconserve (OSAL_PwrMgr)
                                                   osal_pwrmgr_task_state (OSAL_PwrMgr)
                                                   osal_run_system (OSAL)
                                                   osal_set_event (OSAL)
                                                   osal_start_reload_timer (OSAL_Timers)
                                                   osal_start_timerEx (OSAL_Timers)
                                                   osal_stop_timerEx (OSAL_Timers)
                                                   rand (?rand)
                                                   setActivePage (osal_snv)
                                                   verifyWordM (osal_snv)
                                                   writeWord (osal_snv)

    -------------------------------------------------------------------------
  LIBRARY MODULE, NAME : ?FUNC_ENTER_XDATA

  SEGMENTS IN THE MODULE
  ======================
RCODE
  Relative segment, address: CODE 00000A8F - 00000AF4 (0x66 bytes), align: 0
  Segment part 1.
           ENTRY                   ADDRESS         REF BY
           =====                   =======         ======
           ?FUNC_ENTER_XDATA       00000A8F        LL_PowerOffReq (ll_sleep)
                                                   LL_PowerOnReq (ll_sleep)
                                                   LL_TimeToNextRfEvent (ll_sleep)
                                                   ll24BitTimeCompare (ll_timer2)
                                                   ll24BitTimeDelta (ll_timer2)
                                                   llT2OVFC1_ISR (ll_isr)

    -------------------------------------------------------------------------
  LIBRARY MODULE, NAME : ?BANKED_LEAVE_XDATA

  SEGMENTS IN THE MODULE
  ======================
RCODE
  Relative segment, address: CODE 00000AF5 - 00000B3A (0x46 bytes), align: 0
  Segment part 1.
           ENTRY                   ADDRESS         REF BY
           =====                   =======         ======
           ?BANKED_LEAVE_XDATA     00000AF5        ?Subroutine0 (BAT_MON)
                                                   ?Subroutine0 (broadcaster)
                                                   ?Subroutine0 (osal_cbtimer)
                                                   ?Subroutine1 (OSAL_Timers)
                                                   ?Subroutine1 (hal_key)
                                                   ?Subroutine1 (osal_snv)
                                                   ?Subroutine2 (OSAL)
                                                   ?Subroutine2 (OSAL_Timers)
                                                   ?Subroutine3 (OSAL_Timers)
                                                   ?Subroutine4 (OSAL)
                                                   BAT_MON_ProcessEvent (BAT_MON)
                                                   GAPRole_Init (broadcaster)
                                                   GAPRole_SetParameter (broadcaster)
                                                   GAPRole_StartDevice (broadcaster)
                                                   GAP_DeviceInit (gap)
                                                   GAP_Init (gap_simpletask)
                                                   GAP_ProcessEvent (gap_simpletask)
                                                   GAP_UpdateAdvertisingData (gap_peridevmgr)
                                                   HCI_Init (hci_tl)
                                                   HCI_LE_SetAdvParamCmd (hci)
                                                   HCI_ProcessEvent (hci_tl)
                                                   HalAdcRead (hal_adc)
                                                   HalFlashRead (hal_flash)
                                                   HalFlashWrite (hal_flash)
                                                   LL_SetAdvControl (ll)
                                                   Segment part 100 (hci)
                                                   Segment part 101 (ll)
                                                   Segment part 11 (ll_advEndCauses)
                                                   Segment part 13 (hci_event)
                                                   Segment part 13 (ll_scheduler)
                                                   Segment part 16 (hci_event)
                                                   Segment part 21 (ll_enc)
                                                   Segment part 23 (OSAL_ClockBLE)
                                                   Segment part 25 (gap_configmgr)
                                                   Segment part 25 (osal_snv)
                                                   Segment part 32 (gap_configmgr)
                                                   Segment part 34 (gap_peridevmgr)
                                                   Segment part 38 (hci_event)
                                                   Segment part 45 (phy)
                                                   Segment part 47 (gap_configmgr)
                                                   Segment part 50 (osal_snv)
                                                   Segment part 54 (gap_peridevmgr)
                                                   Segment part 58 (ll_common)
                                                   Segment part 60 (gap_peridevmgr)
                                                   Segment part 64 (OSAL)
                                                   Segment part 74 (hci)
                                                   Segment part 81 (ll)
                                                   Segment part 88 (ll_common)
                                                   Segment part 98 (ll)
                                                   gapFindADType (gap_devmgr)
                                                   gapProcessHCICmdCompleteEvt (gap_simpletask)
                                                   gapSetAdvParams (gap_peridevmgr)
                                                   gapWriteAdvEnableStatus (gap_peridevmgr)
                                                   halSleep (hal_sleep)
                                                   halSleepSetTimer (hal_sleep)
                                                   llAllocTask (ll_scheduler)
                                                   llSetT2OVFC2Event2 (ll_timer2)
                                                   osalAddTimer (OSAL_Timers)
                                                   osalTimerInit (OSAL_Timers)
                                                   osal_CbTimerInit (osal_cbtimer)
                                                   osal_bm_free (osal_bufmgr)
                                                   osal_mem_alloc (OSAL_Memory)
                                                   osal_mem_kick (OSAL_Memory)
                                                   osal_memcmp (OSAL)
                                                   osal_pwrmgr_powerconserve (OSAL_PwrMgr)
                                                   osal_pwrmgr_task_state (OSAL_PwrMgr)
                                                   osal_start_timerEx (OSAL_Timers)
                                                   rand (?rand)
                                                   verifyWordM (osal_snv)

    -------------------------------------------------------------------------
  LIBRARY MODULE, NAME : ?FUNC_LEAVE_XDATA

  SEGMENTS IN THE MODULE
  ======================
RCODE
  Relative segment, address: CODE 00000B3B - 00000B7A (0x40 bytes), align: 0
  Segment part 1.
           ENTRY                   ADDRESS         REF BY
           =====                   =======         ======
           ?FUNC_LEAVE_XDATA       00000B3B        LL_TimeToNextRfEvent (ll_sleep)
                                                   Segment part 16 (ll_sleep)
                                                   Segment part 86 (ll_timer2)
                                                   llT2OVFC1_ISR (ll_isr)

    -------------------------------------------------------------------------
  LIBRARY MODULE, NAME : ?INTERRUPT_ENTER_XSP

  SEGMENTS IN THE MODULE
  ======================
RCODE
  Relative segment, address: CODE 00000B7B - 00000BD9 (0x5f bytes), align: 0
  Segment part 1.
           ENTRY                   ADDRESS         REF BY
           =====                   =======         ======
           ?INTERRUPT_ENTER_XSP    00000B7B        halKeyPort0Isr (hal_key)
                                                   halKeyPort2Isr (hal_key)

    -------------------------------------------------------------------------
  LIBRARY MODULE, NAME : ?INTERRUPT_LEAVE_XSP

  SEGMENTS IN THE MODULE
  ======================
RCODE
  Relative segment, address: CODE 00000BDA - 00000C31 (0x58 bytes), align: 0
  Segment part 1.
           ENTRY                   ADDRESS         REF BY
           =====                   =======         ======
           ?INTERRUPT_LEAVE_XSP    00000BDA        ?Subroutine2 (hal_key)

    -------------------------------------------------------------------------
  LIBRARY MODULE, NAME : ?PUSH_XSTACK_I

  SEGMENTS IN THE MODULE
  ======================
RCODE
  Relative segment, address: CODE 00000C32 - 00000C35 (0x4 bytes), align: 0
  Segment part 0.
           ENTRY                   ADDRESS         REF BY
           =====                   =======         ======
           ?PUSH_XSTACK_I_FOUR     00000C32        LL_ProcessEvent (ll)
                                                   gapProcessAdvertisingEvt (gap_peridevmgr)
                                                   gapRole_ProcessGAPMsg (broadcaster)
                                                   gapWriteAdvEnableStatus (gap_peridevmgr)
                                                   halSleep (hal_sleep)
                                                   llFindNextSecTask (ll_scheduler)
                                                   llScheduleTask (ll_scheduler)
                                                   llScheduler (ll_scheduler)
                                                   osal_start_reload_timer (OSAL_Timers)
    -------------------------------------------------------------------------
RCODE
  Relative segment, address: CODE 00000C36 - 00000C39 (0x4 bytes), align: 0
  Segment part 2.
           ENTRY                   ADDRESS         REF BY
           =====                   =======         ======
           ?PUSH_XSTACK_I_TWO      00000C36        GAPRole_ProcessEvent (broadcaster)
                                                   GAPRole_SetParameter (broadcaster)
                                                   GAPRole_StartDevice (broadcaster)
                                                   GAP_MakeDiscoverable (gap_peridevmgr)
                                                   GAP_UpdateAdvertisingData (gap_peridevmgr)
                                                   HCI_CommandCompleteEvent (hci_event)
                                                   HCI_LE_SetAdvParamCmd (hci)
                                                   HCI_SendCommandCompleteEvent (hci_event)
                                                   HCI_VendorSpecifcCommandCompleteEvent (hci_event)
                                                   LL_Init (ll)
                                                   LL_RandCback (hci)
                                                   LL_SetAdvData (ll)
                                                   LL_SetScanRspData (ll)
                                                   cleanErasedPage (osal_snv)
                                                   compactPage (osal_snv)
                                                   erasePage (osal_snv)
                                                   findItem (osal_snv)
                                                   findOffset (osal_snv)
                                                   gapProcessRandomAddrComplete (gap_configmgr)
                                                   gapReadBD_ADDRStatus (gap_configmgr)
                                                   gapRole_ProcessGAPMsg (broadcaster)
                                                   gapSendDeviceInitDoneEvent (gap_configmgr)
                                                   gapSetAdvParams (gap_peridevmgr)
                                                   initNV (osal_snv)
                                                   isLimitedDiscoverableMode (gap_peridevmgr)
                                                   llFindTxPowerSettings (ll_common)
                                                   osal_memset (OSAL)
                                                   osal_msg_receive (OSAL)
                                                   verifyWordM (osal_snv)
                                                   writeWord (osal_snv)
    -------------------------------------------------------------------------
RCODE
  Relative segment, address: CODE 00000C3A - 00000C3B (0x2 bytes), align: 0
  Segment part 3.
           ENTRY                   ADDRESS         REF BY
           =====                   =======         ======
           ?PUSH_XSTACK_I_ONE      00000C3A        HCI_LE_SetAdvParamCmd (hci)
                                                   gapSetAdvParams (gap_peridevmgr)
                                                   writeWord (osal_snv)
    -------------------------------------------------------------------------
RCODE
  Relative segment, address: CODE 00000C3C - 00000C48 (0xd bytes), align: 0
  Segment part 4.             Intra module refs:   ?PUSH_XSTACK_I_FOUR
                                                   ?PUSH_XSTACK_I_ONE
                                                   ?PUSH_XSTACK_I_TWO
           ENTRY                   ADDRESS         REF BY
           =====                   =======         ======
           ?PUSH_XSTACK_I          00000C3C 

    -------------------------------------------------------------------------
  LIBRARY MODULE, NAME : ?PUSH_XSTACK8_X

  SEGMENTS IN THE MODULE
  ======================
RCODE
  Relative segment, address: CODE 00000C49 - 00000C4C (0x4 bytes), align: 0
  Segment part 1.
           ENTRY                   ADDRESS         REF BY
           =====                   =======         ======
           ?PUSH_XSTACK8_X_FOUR    00000C49        BAT_MON_ProcessEvent (BAT_MON)
                                                   GAP_MakeDiscoverable (gap_peridevmgr)
                                                   gapProcessRandomAddrComplete (gap_configmgr)
                                                   gapWriteAdvEnableStatus (gap_peridevmgr)
                                                   halProcessKeyInterrupt (hal_key)
                                                   halSleep (hal_sleep)
                                                   osal_start_timerEx (OSAL_Timers)
    -------------------------------------------------------------------------
RCODE
  Relative segment, address: CODE 00000C4D - 00000C50 (0x4 bytes), align: 0
  Segment part 3.
           ENTRY                   ADDRESS         REF BY
           =====                   =======         ======
           ?PUSH_XSTACK8_X_TWO     00000C4D        llScheduleTask (ll_scheduler)
    -------------------------------------------------------------------------
RCODE
  Relative segment, address: CODE 00000C51 - 00000C79 (0x29 bytes), align: 0
  Segment part 5.             Intra module refs:   ?PUSH_XSTACK8_X_FOUR
                                                   ?PUSH_XSTACK8_X_TWO
           ENTRY                   ADDRESS         REF BY
           =====                   =======         ======
           ?PUSH_XSTACK8_X         00000C51 

    -------------------------------------------------------------------------
  LIBRARY MODULE, NAME : ?US_SWITCH_DENSE

  SEGMENTS IN THE MODULE
  ======================
RCODE
  Relative segment, address: CODE 00000C7A - 00000C80 (0x7 bytes), align: 0
  Segment part 0.
           ENTRY                   ADDRESS         REF BY
           =====                   =======         ======
           ?US_SWITCH_DENSE        00000C7A        GAPRole_SetParameter (broadcaster)
                                                   gapPeriProcessHCICmdCompleteEvt (gap_peridevmgr)
           ?US_SWITCH_DENSE_CFI_INVALID_BEGINS
                                   00000C7A 
    -------------------------------------------------------------------------
RCODE
  Relative segment, address: CODE 00000C81 - 00000CBE (0x3e bytes), align: 0
  Segment part 2.             Intra module refs:   Segment part 0
    -------------------------------------------------------------------------
RCODE
  Relative segment, address: CODE 00000CBF - 00000CBF (0x1 bytes), align: 0
  Segment part 4.             Intra module refs:   Segment part 0
           ENTRY                   ADDRESS         REF BY
           =====                   =======         ======
           ?US_SWITCH_DENSE_CFI_INVALID_ENDS
                                   00000CC0 

    -------------------------------------------------------------------------
  LIBRARY MODULE, NAME : ?US_SWITCH_SPARSE

  SEGMENTS IN THE MODULE
  ======================
RCODE
  Relative segment, address: CODE 00000CC0 - 00000CC9 (0xa bytes), align: 0
  Segment part 0.
           ENTRY                   ADDRESS         REF BY
           =====                   =======         ======
           ?US_SWITCH_SPARSE       00000CC0        gapProcessHCICmdCompleteEvt (gap_simpletask)
           ?US_SWITCH_SPARSE_CFI_INVALID_BEGINS
                                   00000CC0 
    -------------------------------------------------------------------------
RCODE
  Relative segment, address: CODE 00000CCA - 00000D0A (0x41 bytes), align: 0
  Segment part 2.             Intra module refs:   Segment part 0
           ENTRY                   ADDRESS         REF BY
           =====                   =======         ======
           ?US_SWITCH_SPARSE_LEAVE
                                   00000CFC        Segment part 0 (?US_JMP_IF_IN_RANGE)
                                                   Segment part 0 (?US_JMP_IF_VALUE)
    -------------------------------------------------------------------------
RCODE
  Relative segment, address: CODE 00000D0B - 00000D0B (0x1 bytes), align: 0
  Segment part 4.             Intra module refs:   Segment part 0
           ENTRY                   ADDRESS         REF BY
           =====                   =======         ======
           ?US_SWITCH_SPARSE_CFI_INVALID_ENDS
                                   00000D0C 

    -------------------------------------------------------------------------
  LIBRARY MODULE, NAME : ?US_JMP_IF_IN_RANGE

  SEGMENTS IN THE MODULE
  ======================
RCODE
  Relative segment, address: CODE 00000D0C - 00000D4A (0x3f bytes), align: 0
  Segment part 0.
           ENTRY                   ADDRESS         REF BY
           =====                   =======         ======
           ?US_JMP_IF_IN_RANGE     00000D0C        ?US_SWITCH_SPARSE_LEAVE (?US_SWITCH_SPARSE)
           ?US_JMP_IF_IN_RANGE_CFI_INVALID_BEGINS
                                   00000D0C 
           ?US_JMP_IF_IN_RANGE_CFI_INVALID_ENDS
                                   00000D4B 

    -------------------------------------------------------------------------
  LIBRARY MODULE, NAME : ?US_JMP_IF_VALUE

  SEGMENTS IN THE MODULE
  ======================
RCODE
  Relative segment, address: CODE 00000D4B - 00000D75 (0x2b bytes), align: 0
  Segment part 0.
           ENTRY                   ADDRESS         REF BY
           =====                   =======         ======
           ?US_JMP_IF_VALUE        00000D4B        ?US_SWITCH_SPARSE_LEAVE (?US_SWITCH_SPARSE)
           ?US_JMP_IF_VALUE_CFI_INVALID_BEGINS
                                   00000D4B 
           ?US_JMP_IF_VALUE_CFI_INVALID_ENDS
                                   00000D76 

    -------------------------------------------------------------------------
  LIBRARY MODULE, NAME : ?memset

  SEGMENTS IN THE MODULE
  ======================
<BANKED_CODE,CODE_C> 1 (was BANKED_CODE)
  Relative segment, address: CODE 000065CE - 000065F9 (0x2c bytes), align: 0
  Segment part 6.             Intra module refs:   memset::?relay
           ENTRY                   ADDRESS         REF BY
           =====                   =======         ======
           memset                  000065CE 
               XSTACK = 00000002 ( 00000000 )
               ISTACK = 00000000 ( 00000002 )
    -------------------------------------------------------------------------
BANK_RELAYS
  Relative segment, address: CODE 000006A0 - 000006A5 (0x6 bytes), align: 0
  Segment part 7.
           ENTRY                   ADDRESS         REF BY
           =====                   =======         ======
           memset::?relay          000006A0        osal_memset (OSAL)

    -------------------------------------------------------------------------
  LIBRARY MODULE, NAME : ?rand

  SEGMENTS IN THE MODULE
  ======================
XDATA_I
  Relative segment, address: XDATA 00000503 - 00000506 (0x4 bytes), align: 0
  Segment part 6.             Intra module refs:   rand
           ENTRY                   ADDRESS         REF BY
           =====                   =======         ======
           __next_rand             00000503        srand (?srand)
    -------------------------------------------------------------------------
XDATA_I
  Relative segment, address: XDATA 00000507 - 0000050A (0x4 bytes), align: 0
  Segment part 8.             Intra module refs:   rand
           ENTRY                   ADDRESS         REF BY
           =====                   =======         ======
           __Constant_41c64e6d     00000507 
    -------------------------------------------------------------------------
XDATA_I
  Relative segment, address: XDATA 0000050B - 0000050E (0x4 bytes), align: 0
  Segment part 10.            Intra module refs:   rand
           ENTRY                   ADDRESS         REF BY
           =====                   =======         ======
           __Constant_3039         0000050B 
    -------------------------------------------------------------------------
<BANKED_CODE,CODE_C> 1 (was BANKED_CODE)
  Relative segment, address: CODE 00006546 - 0000658C (0x47 bytes), align: 0
  Segment part 12.            Intra module refs:   rand::?relay
           ENTRY                   ADDRESS         REF BY
           =====                   =======         ======
           rand                    00006546 
               XSTACK = 00000000 ( 00000010 )
    -------------------------------------------------------------------------
XDATA_ID
  Relative segment, address: CODE 00000226 - 00000229 (0x4 bytes), align: 0
  Segment part 7.             Intra module refs:   __next_rand
    -------------------------------------------------------------------------
XDATA_ID
  Relative segment, address: CODE 0000022A - 0000022D (0x4 bytes), align: 0
  Segment part 9.             Intra module refs:   __Constant_41c64e6d
    -------------------------------------------------------------------------
XDATA_ID
  Relative segment, address: CODE 0000022E - 00000231 (0x4 bytes), align: 0
  Segment part 11.            Intra module refs:   __Constant_3039
    -------------------------------------------------------------------------
BANK_RELAYS
  Relative segment, address: CODE 000006A6 - 000006AB (0x6 bytes), align: 0
  Segment part 13.
           ENTRY                   ADDRESS         REF BY
           =====                   =======         ======
           rand::?relay            000006A6        BAT_MON_Init (BAT_MON)

    -------------------------------------------------------------------------
  LIBRARY MODULE, NAME : ?srand

  SEGMENTS IN THE MODULE
  ======================
<BANKED_CODE,CODE_C> 1 (was BANKED_CODE)
  Relative segment, address: CODE 0000661C - 00006633 (0x18 bytes), align: 0
  Segment part 6.             Intra module refs:   srand::?relay
           ENTRY                   ADDRESS         REF BY
           =====                   =======         ======
           srand                   0000661C 
               ISTACK = 00000000 ( 00000002 )
    -------------------------------------------------------------------------
BANK_RELAYS
  Relative segment, address: CODE 000006AC - 000006B1 (0x6 bytes), align: 0
  Segment part 7.
           ENTRY                   ADDRESS         REF BY
           =====                   =======         ======
           srand::?relay           000006AC        BAT_MON_Init (BAT_MON)




                ****************************************
                *                                      *
                *            MODULE SUMMARY            *
                *                                      *
                ****************************************

Module                     CODE      DATA      XDATA  IDATA    BIT  CONST
------                     ----      ----      -----  -----    ---  -----
                          (Rel)  (Rel)  (Abs)  (Rel)  (Rel)  (Rel)  (Rel)
?ADD_XSTACK_DISP8            27
?ALLOC_XSTACK8               22
?BANKED_CODE_SUPPORT         30
?BANKED_ENTER_XDATA         108
?BANKED_LEAVE_XDATA          70
?CALL_IND                     2
?DEALLOC_XSTACK8             27
?FUNC_ENTER_XDATA           102
?FUNC_LEAVE_XDATA            64
?INTERRUPT_ENTER_XSP         95
?INTERRUPT_LEAVE_XSP         88
?L_ADD                       19
?L_ADD_TO_X                  19
?L_ADD_X                     19
?L_AND                       19
?L_AND_X                     19
?L_EQ_X                      21
?L_MOV_TO_X                  15
?L_MOV_X                     15
?L_MUL                      128
?L_SHL                       31
?L_SUB                       20
?L_SUB_FROM_X                20
?MOVE_LONG8_XDATA_IDATA      13
?MOVE_LONG8_XDATA_XDATA      33
?PUSH_XSTACK8_X              49
?PUSH_XSTACK_I               23
?SS_SHR                      16
?S_DIV_MOD                   89
?S_SHL                       19
?UL_DIV_MOD                 111
?UL_GE_X                     31
?UL_GT                       16
?UL_GT_X                     16
?UL_SHR                      25
?US_JMP_IF_IN_RANGE          63
?US_JMP_IF_VALUE             43
?US_SHR                      15
?US_SWITCH_DENSE             70
?US_SWITCH_SPARSE            76
?XLOAD_R0123                 12
?XLOAD_R2345                 12
?XSTACK_DISP8                10
?XSTACK_DISP8_RP             16
?XSTORE_R0123                12
?XSTORE_R2345                12
?cexit                        5
?cmain                      132
?memset                      50
?rand                        89                   12
?srand                       30
BAT_MON                     880                   77
  + shared                                  8                           4
BAT_MON_Main                 16
CSTARTUP                     18
  + common                    3
OSAL                      1 282                    3
OSAL_BAT_MON                 84                    2                   13
OSAL_ClockBLE               256                   10
OSAL_Memory                 535                2 051
OSAL_PwrMgr                 176                    7
OSAL_Timers               1 141                    6
OnBoard                       6
VIRTUAL_REGISTERS                   10                           8
broadcaster               1 169                   88
gap                          40
gap_configmgr               810                  106
  + shared                                                              4
gap_devmgr                  189                    2
gap_peridevmgr            1 912                   13
gap_simpletask              539                    6
hal_adc                     171                    1
hal_aes
  + shared                                  3
hal_dma                                     4     40
hal_drivers                  12                    1
hal_flash                   278
  + shared                                  1
hal_key                     304             5                           4
  + shared                  110             8
  + common
hal_lcd                                     6
  + shared                                  3
hal_led                      18
hal_sleep                   655      1      2      2                   24
  + shared                   46             3
  + common
hal_startup                  11
hci                         693                    2
hci_event                   770                    9
hci_tl                      171                    6
ll                        2 246             4    162      2
  + shared                                  2
ll_advEndCauses             879
ll_common                 1 979            10                          12
  + shared                                  1
ll_constData                  8
ll_enc                      315             3
ll_errorEndCauses             9
ll_halt                       7      2
ll_isr                      668
  + shared                  134            10
  + common
ll_scheduler              1 291                   29
ll_sleep                    806
ll_timer2                 1 179             8
osal_bufmgr                 153                    2
osal_cbtimer                269                   62
osal_snv                  5 538                    4                    4
  + shared                                                              4
phy                         681                    1
N/A (command line)                  16           640    192
N/A (alignment)
----------               ------     --     --  -----    ---      -     --
Total:                   30 232     29     81  3 344    194      8     69
  + common                  134


                ****************************************
                *                                      *
                *      SEGMENTS IN ADDRESS ORDER       *
                *                                      *
                ****************************************


SEGMENT              SPACE    START ADDRESS   END ADDRESS     SIZE  TYPE  ALIGN
=======              =====    =============   ===========     ====  ====  =====
INTVEC               CODE          00000000 - 00000085          86   com    0
CSTART               CODE          00000086 - 00000149          C4   rel    0
BDATA_ID             CODE               0000014A                     dse    0
BIT_ID               CODE               0000014A                     dse    0
DATA_ID              CODE          0000014A - 0000014A           1   rel    0
PDATA_ID             CODE               0000014B                     dse    0
IDATA_ID             CODE               0000014B                     dse    0
IXDATA_ID            CODE               0000014B                     dse    0
XDATA_ID             CODE          0000014B - 00000231          E7   rel    0
BANK_RELAYS          CODE          00000232 - 000006B1         480   rel    0
RCODE                CODE          000006B2 - 00000D75         6C4   rel    0
DIFUNCT              CODE               00000D76                     dse    0
CODE_N               CODE               00000D76                     dse    0
NEAR_CODE            CODE          00000D78 - 0000145F         6E8   rel    2
<BANKED_CODE,CODE_C> 1
                     CODE          00001460 - 00006652        51F3   rel    2
SLEEP_CODE           CODE          00007FF8 - 00007FFF           8   rel    0
<XDATA_ROM_C_FLASH> 1
                     CODE          00008000 - 00008044          45   rel    0
BLENV_ADDRESS_SPACE
                     CODE          0003E800 - 0003F7FF        1000   rel    0
REGISTERS            DATA          00000000 - 00000007           8   rel    0
VREG                 DATA          00000008 - 00000017          10   rel    0
PSP                  DATA               00000018                     dse    0
XSP                  DATA          00000018 - 00000019           2   rel    0
DATA_I               DATA          0000001A - 0000001A           1   rel    0
DATA_Z               DATA          0000001B - 0000001C           2   rel    0
BREG                 BIT        00000020.0  -  00000020.7        8   rel    0
SFR_AN               DATA          00000080 - 00000080           1   rel    0
                     DATA          00000087 - 00000089           3 
                     DATA          0000008B - 0000008D           3 
                     DATA          00000090 - 00000091           2 
                     DATA          00000094 - 00000097           4 
                     DATA          0000009A - 0000009C           3 
                     DATA          0000009E - 000000A9           C 
                     DATA          000000AB - 000000AF           5 
                     DATA          000000B3 - 000000B4           2 
                     DATA          000000B6 - 000000B6           1 
                     DATA          000000B8 - 000000C0           9 
                     DATA          000000C3 - 000000C3           1 
                     DATA          000000C6 - 000000C7           2 
                     DATA          000000C9 - 000000C9           1 
                     DATA          000000D1 - 000000D7           7 
                     DATA          000000D9 - 000000DB           3 
                     DATA          000000E1 - 000000E5           5 
                     DATA          000000E8 - 000000E9           2 
                     DATA          000000F1 - 000000F2           2 
                     DATA          000000F2 - 000000F5           4 
                     DATA          000000F7 - 000000FF           9 
XSTACK               XDATA         00000001 - 00000280         280   rel    0
XDATA_Z              XDATA         00000281 - 00000427         1A7   rel    0
XDATA_I              XDATA         00000428 - 0000050E          E7   rel    0
<XDATA_N> 1          XDATA         0000050F - 00000D10         802   rel    0
<XDATA_ROM_C> 1      CONST         00008000 - 00008044          45   rel    0
IDATA_I              IDATA              0000001D                     dse    0
IDATA_Z              IDATA         0000001D - 0000001E           2   rel    0
ISTACK               IDATA         00000040 - 000000FF          C0   rel    0

                ****************************************
                *                                      *
                *        END OF CROSS REFERENCE        *
                *                                      *
                ****************************************

 30 366 bytes of CODE  memory
     29 bytes of DATA  memory (+ 81 absolute )
  3 344 bytes of XDATA memory
    194 bytes of IDATA memory
      8 bits  of BIT   memory
     69 bytes of CONST memory

Errors: none
Warnings: 1

