Warning[w6]: Type conflict for external/entry "osal_pwrmgr_powerconserve", in module OSAL against external/entry in module OSAL_PwrMgr; prototyped function vs K&R function
  /* In module OSAL: */
  /* K&R Function, args 0, attr 0 */
  int (__xdata_reentrant osal_pwrmgr_powerconserve)();
  /* In module OSAL_PwrMgr: */
  /* Function, args 0, attr 0 */
  void (__xdata_reentrant osal_pwrmgr_powerconserve)(void);
Warning[w6]: Type conflict for external/entry "strlen", in module TPMS_OBD against external/entry in module ?strlen; prototyped function vs K&R function
  /* In module TPMS_OBD: */
  /* K&R Function, args 0, attr 0 */
  int (__xdata_reentrant strlen)();
  /* In module ?strlen: */
  /* Function, args 1, attr 0 */
  size_t (__xdata_reentrant strlen)(char const *);
    typedef unsigned int size_t;
################################################################################
#                                                                              #
#      IAR Universal Linker V5.7.0.39                                          #
#                                                                              #
#           Link time     =  27/Nov/2022  11:16:29                             #
#           Target CPU    =  x51                                               #
#           List file     =  "C:\Users\MON\Desktop\IAR_TPMS\IAR Systems\SDK\BL #
#                            E-CC254x-1.4.0\Projects\ble\TPMS_OBD\CC2540DB\CC2 #
#                            540EM\List\TPMS_OBD.map"                          #
#           Output file 1 =  "C:\Users\MON\Desktop\IAR_TPMS\IAR Systems\SDK\BL #
#                            E-CC254x-1.4.0\Projects\ble\TPMS_OBD\cc2540.hex"  #
#                            Format: intel-extended                            #
#           Output file 2 =  "C:\Users\MON\Desktop\IAR_TPMS\IAR Systems\SDK\BL #
#                            E-CC254x-1.4.0\Projects\ble\TPMS_OBD\CC2540DB\CC2 #
#                            540EM\Exe\TPMS_OBD.d51"                           #
#                            Format: debug                                     #
#                            UBROF version 10.0.6                              #
#                            Using library modules for C-SPY (-rt)             #
#           Command line  =  "-IC:\Users\MON\Desktop\IAR_TPMS\IAR Systems\Embe #
#                            dded Workbench 6.5\8051\CONFIG\"                  #
#                            -D_NR_OF_BANKS=0x07 -D_CODEBANK_END=0xFFFF        #
#                            -D_CODEBANK_START=0x8000 -D?CBANK_MASK=0xFF       #
#                            -D?CBANK=0x9F                                     #
#                            "C:\Users\MON\Desktop\IAR_TPMS\IAR Systems\SDK\BL #
#                            E-CC254x-1.4.0\Projects\ble\Libraries\CC2540DB\bi #
#                            n\CC2540_BLE_observ.lib"                          #
#                            "C:\Users\MON\Desktop\IAR_TPMS\IAR Systems\SDK\BL #
#                            E-CC254x-1.4.0\Projects\ble\Libraries\Common\bin\ #
#                            CC254x_BLE_HCI_TL_None.lib"                       #
#                            "C:\Users\MON\Desktop\IAR_TPMS\IAR Systems\SDK\BL #
#                            E-CC254x-1.4.0\Projects\ble\TPMS_OBD\CC2540DB\CC2 #
#                            540EM\Obj\OSAL.r51"                               #
#                            "C:\Users\MON\Desktop\IAR_TPMS\IAR Systems\SDK\BL #
#                            E-CC254x-1.4.0\Projects\ble\TPMS_OBD\CC2540DB\CC2 #
#                            540EM\Obj\OSAL_ClockBLE.r51"                      #
#                            "C:\Users\MON\Desktop\IAR_TPMS\IAR Systems\SDK\BL #
#                            E-CC254x-1.4.0\Projects\ble\TPMS_OBD\CC2540DB\CC2 #
#                            540EM\Obj\OSAL_Memory.r51"                        #
#                            "C:\Users\MON\Desktop\IAR_TPMS\IAR Systems\SDK\BL #
#                            E-CC254x-1.4.0\Projects\ble\TPMS_OBD\CC2540DB\CC2 #
#                            540EM\Obj\OSAL_PwrMgr.r51"                        #
#                            "C:\Users\MON\Desktop\IAR_TPMS\IAR Systems\SDK\BL #
#                            E-CC254x-1.4.0\Projects\ble\TPMS_OBD\CC2540DB\CC2 #
#                            540EM\Obj\OSAL_TPMS_OBD.r51"                      #
#                            "C:\Users\MON\Desktop\IAR_TPMS\IAR Systems\SDK\BL #
#                            E-CC254x-1.4.0\Projects\ble\TPMS_OBD\CC2540DB\CC2 #
#                            540EM\Obj\OSAL_Timers.r51"                        #
#                            "C:\Users\MON\Desktop\IAR_TPMS\IAR Systems\SDK\BL #
#                            E-CC254x-1.4.0\Projects\ble\TPMS_OBD\CC2540DB\CC2 #
#                            540EM\Obj\OnBoard.r51"                            #
#                            "C:\Users\MON\Desktop\IAR_TPMS\IAR Systems\SDK\BL #
#                            E-CC254x-1.4.0\Projects\ble\TPMS_OBD\CC2540DB\CC2 #
#                            540EM\Obj\TPMS_OBD.r51"                           #
#                            "C:\Users\MON\Desktop\IAR_TPMS\IAR Systems\SDK\BL #
#                            E-CC254x-1.4.0\Projects\ble\TPMS_OBD\CC2540DB\CC2 #
#                            540EM\Obj\TPMS_OBD_Main.r51"                      #
#                            "C:\Users\MON\Desktop\IAR_TPMS\IAR Systems\SDK\BL #
#                            E-CC254x-1.4.0\Projects\ble\TPMS_OBD\CC2540DB\CC2 #
#                            540EM\Obj\gap.r51"                                #
#                            "C:\Users\MON\Desktop\IAR_TPMS\IAR Systems\SDK\BL #
#                            E-CC254x-1.4.0\Projects\ble\TPMS_OBD\CC2540DB\CC2 #
#                            540EM\Obj\hal_adc.r51"                            #
#                            "C:\Users\MON\Desktop\IAR_TPMS\IAR Systems\SDK\BL #
#                            E-CC254x-1.4.0\Projects\ble\TPMS_OBD\CC2540DB\CC2 #
#                            540EM\Obj\hal_aes.r51"                            #
#                            "C:\Users\MON\Desktop\IAR_TPMS\IAR Systems\SDK\BL #
#                            E-CC254x-1.4.0\Projects\ble\TPMS_OBD\CC2540DB\CC2 #
#                            540EM\Obj\hal_dma.r51"                            #
#                            "C:\Users\MON\Desktop\IAR_TPMS\IAR Systems\SDK\BL #
#                            E-CC254x-1.4.0\Projects\ble\TPMS_OBD\CC2540DB\CC2 #
#                            540EM\Obj\hal_drivers.r51"                        #
#                            "C:\Users\MON\Desktop\IAR_TPMS\IAR Systems\SDK\BL #
#                            E-CC254x-1.4.0\Projects\ble\TPMS_OBD\CC2540DB\CC2 #
#                            540EM\Obj\hal_flash.r51"                          #
#                            "C:\Users\MON\Desktop\IAR_TPMS\IAR Systems\SDK\BL #
#                            E-CC254x-1.4.0\Projects\ble\TPMS_OBD\CC2540DB\CC2 #
#                            540EM\Obj\hal_key.r51"                            #
#                            "C:\Users\MON\Desktop\IAR_TPMS\IAR Systems\SDK\BL #
#                            E-CC254x-1.4.0\Projects\ble\TPMS_OBD\CC2540DB\CC2 #
#                            540EM\Obj\hal_lcd.r51"                            #
#                            "C:\Users\MON\Desktop\IAR_TPMS\IAR Systems\SDK\BL #
#                            E-CC254x-1.4.0\Projects\ble\TPMS_OBD\CC2540DB\CC2 #
#                            540EM\Obj\hal_led.r51"                            #
#                            "C:\Users\MON\Desktop\IAR_TPMS\IAR Systems\SDK\BL #
#                            E-CC254x-1.4.0\Projects\ble\TPMS_OBD\CC2540DB\CC2 #
#                            540EM\Obj\hal_sleep.r51"                          #
#                            "C:\Users\MON\Desktop\IAR_TPMS\IAR Systems\SDK\BL #
#                            E-CC254x-1.4.0\Projects\ble\TPMS_OBD\CC2540DB\CC2 #
#                            540EM\Obj\hal_startup.r51"                        #
#                            "C:\Users\MON\Desktop\IAR_TPMS\IAR Systems\SDK\BL #
#                            E-CC254x-1.4.0\Projects\ble\TPMS_OBD\CC2540DB\CC2 #
#                            540EM\Obj\hal_timer.r51"                          #
#                            "C:\Users\MON\Desktop\IAR_TPMS\IAR Systems\SDK\BL #
#                            E-CC254x-1.4.0\Projects\ble\TPMS_OBD\CC2540DB\CC2 #
#                            540EM\Obj\hal_uart.r51"                           #
#                            "C:\Users\MON\Desktop\IAR_TPMS\IAR Systems\SDK\BL #
#                            E-CC254x-1.4.0\Projects\ble\TPMS_OBD\CC2540DB\CC2 #
#                            540EM\Obj\npi.r51"                                #
#                            "C:\Users\MON\Desktop\IAR_TPMS\IAR Systems\SDK\BL #
#                            E-CC254x-1.4.0\Projects\ble\TPMS_OBD\CC2540DB\CC2 #
#                            540EM\Obj\observer.r51"                           #
#                            "C:\Users\MON\Desktop\IAR_TPMS\IAR Systems\SDK\BL #
#                            E-CC254x-1.4.0\Projects\ble\TPMS_OBD\CC2540DB\CC2 #
#                            540EM\Obj\osal_bufmgr.r51"                        #
#                            "C:\Users\MON\Desktop\IAR_TPMS\IAR Systems\SDK\BL #
#                            E-CC254x-1.4.0\Projects\ble\TPMS_OBD\CC2540DB\CC2 #
#                            540EM\Obj\osal_cbtimer.r51"                       #
#                            "C:\Users\MON\Desktop\IAR_TPMS\IAR Systems\SDK\BL #
#                            E-CC254x-1.4.0\Projects\ble\TPMS_OBD\CC2540DB\CC2 #
#                            540EM\Obj\osal_snv.r51"                           #
#                            -o                                                #
#                            "C:\Users\MON\Desktop\IAR_TPMS\IAR Systems\SDK\BL #
#                            E-CC254x-1.4.0\Projects\ble\TPMS_OBD\CC2540DB\CC2 #
#                            540EM\Exe\TPMS_OBD.d51"                           #
#                            -l                                                #
#                            "C:\Users\MON\Desktop\IAR_TPMS\IAR Systems\SDK\BL #
#                            E-CC254x-1.4.0\Projects\ble\TPMS_OBD\CC2540DB\CC2 #
#                            540EM\List\TPMS_OBD.map"                          #
#                            -xmsn -f                                          #
#                            "C:\Users\MON\Desktop\IAR_TPMS\IAR Systems\SDK\BL #
#                            E-CC254x-1.4.0\Projects\ble\TPMS_OBD\CC2540DB\..\ #
#                            ..\common\cc2540\ti_51ew_cc2540b.xcl"             #
#                            (-D_IDATA_END=0xFF -D_PDATA_START=0x1E00          #
#                            -D_PDATA_END=0x1EFF -D_IXDATA_START=0x0001        #
#                            -D_IXDATA_END=0x1EFF                              #
#                            -D_XDATA_START=_IXDATA_START                      #
#                            -D_XDATA_END=_IXDATA_END -D_CODE_START=0x0000     #
#                            -D_CODE_END=0x7FFF -D_FIRST_BANK_ADDR=0x10000     #
#                            -D_NEAR_CODE_END=_CODE_END -D?REGISTER_BANK=0     #
#                            -D_REGISTER_BANK_START=0 -D?PBANK_NUMBER=0x1E     #
#                            -D_BREG_START=0x00 -D?VB=0x20                     #
#                            -D_FAR_DATA_NR_OF_BANKS=0x0E                      #
#                            -D_FAR_DATA_START=0x010001                        #
#                            -D_FAR_DATA_END=0xFFFFFF                          #
#                            -D_FAR_CODE_START=_CODE_START                     #
#                            -D_FAR_CODE_END=_CODE_END                         #
#                            -Z(BIT)BREG=_BREG_START -Z(BIT)BIT_N=0-7F         #
#                            -Z(DATA)REGISTERS+8=_REGISTER_BANK_START          #
#                            -Z(DATA)BDATA_Z,BDATA_N,BDATA_I=20-2F             #
#                            -Z(DATA)VREG+_NR_OF_VIRTUAL_REGISTERS=08-7F       #
#                            -Z(DATA)PSP,XSP=08-7F -Z(DATA)DOVERLAY=08-7F      #
#                            -Z(DATA)DATA_I,DATA_Z,DATA_N=08-7F                #
#                            -U(IDATA)0-7F=(DATA)0-7F                          #
#                            -Z(IDATA)IDATA_I,IDATA_Z,IDATA_N=08-_IDATA_END    #
#                            -Z(IDATA)ISTACK+_IDATA_STACK_SIZE#08-_IDATA_END   #
#                            -Z(IDATA)IOVERLAY=08-FF                           #
#                            -Z(CODE)INTVEC=_CODE_START                        #
#                            -Z(CODE)CSTART=_CODE_START-_CODE_END              #
#                            -Z(CODE)BIT_ID,BDATA_ID,DATA_ID,IDATA_ID,IXDATA_I #
#                            D,PDATA_ID,XDATA_ID=_CODE_START-_CODE_END         #
#                            -Z(CODE)HUGE_ID=_FAR_CODE_START-_FAR_CODE_END     #
#                            -D_SLEEP_CODE_SPACE_START=(_CODE_END-7)           #
#                            -D_SLEEP_CODE_SPACE_END=(_CODE_END)               #
#                            -Z(CODE)SLEEP_CODE=_SLEEP_CODE_SPACE_START-_SLEEP #
#                            _CODE_SPACE_END                                   #
#                            -Z(CODE)BANK_RELAYS,RCODE,DIFUNCT,CODE_N,NEAR_COD #
#                            E=_CODE_START-_CODE_END                           #
#                            -P(CODE)CODE_C=_CODE_START-_CODE_END              #
#                            -P(CONST)XDATA_ROM_C=0x8000-0xFFFF                #
#                            -P(CODE)XDATA_ROM_C_FLASH=0x18000-0x1FFFF         #
#                            -QXDATA_ROM_C=XDATA_ROM_C_FLASH                   #
#                            -P(CODE)BANKED_CODE=_CODE_START-_CODE_END,[(_CODE #
#                            BANK_START+_FIRST_BANK_ADDR)-(_CODEBANK_END+_FIRS #
#                            T_BANK_ADDR)]*_NR_OF_BANKS+10000                  #
#                            -P(CODE)FAR_CODE_C,FAR_CODE_N,FAR_CODE=[_FAR_CODE #
#                            _START-_FAR_CODE_END]/10000                       #
#                            -P(CODE)HUGE_CODE_C=_FAR_CODE_START-_FAR_CODE_END #
#                            -Z(CODE)CHECKSUM#_CODE_END                        #
#                            -Z(XDATA)EXT_STACK+_EXTENDED_STACK_SIZE=_EXTENDED #
#                            _STACK_START                                      #
#                            -Z(XDATA)PSTACK+_PDATA_STACK_SIZE=_PDATA_START-_P #
#                            DATA_END                                          #
#                            -Z(XDATA)XSTACK+_XDATA_STACK_SIZE=_XDATA_START-_X #
#                            DATA_END                                          #
#                            -Z(XDATA)PDATA_Z,PDATA_I=_PDATA_START-_PDATA_END  #
#                            -P(XDATA)PDATA_N=_PDATA_START-_PDATA_END          #
#                            -Z(XDATA)IXDATA_Z,IXDATA_I=_IXDATA_START-_IXDATA_ #
#                            END                                               #
#                            -P(XDATA)IXDATA_N=_IXDATA_START-_IXDATA_END       #
#                            -Z(XDATA)XDATA_Z,XDATA_I=_XDATA_START-_XDATA_END  #
#                            -P(XDATA)XDATA_N=_XDATA_START-_XDATA_END          #
#                            -Z(XDATA)XDATA_HEAP+_XDATA_HEAP_SIZE=_XDATA_START #
#                            -_XDATA_END                                       #
#                            -Z(XDATA)FAR_Z=[_FAR_DATA_START-_FAR_DATA_END]/10 #
#                            000                                               #
#                            -Z(XDATA)FAR_I=[_FAR_DATA_START-_FAR_DATA_END]/10 #
#                            000                                               #
#                            -Z(CODE)FAR_ID=[_FAR_CODE_START-_FAR_CODE_END]/10 #
#                            000                                               #
#                            -Z(XDATA)FAR_HEAP+_FAR_HEAP_SIZE=[_FAR_DATA_START #
#                            -_FAR_DATA_END]/10000                             #
#                            -P(XDATA)FAR_N=[_FAR_DATA_START-_FAR_DATA_END]*_F #
#                            AR_DATA_NR_OF_BANKS+10000                         #
#                            -P(CONST)FAR_ROM_C=[_FAR_DATA_START-_FAR_DATA_END #
#                            ]*_FAR_DATA_NR_OF_BANKS+10000                     #
#                            -Z(XDATA)HUGE_Z,HUGE_I=_FAR_DATA_START-_FAR_DATA_ #
#                            END                                               #
#                            -P(XDATA)HUGE_N=_FAR_DATA_START-_FAR_DATA_END     #
#                            -Z(XDATA)HUGE_HEAP+_HUGE_HEAP_SIZE=_FAR_DATA_STAR #
#                            T-_FAR_DATA_END                                   #
#                            -Z(CONST)HUGE_ROM_C=_FAR_DATA_START-_FAR_DATA_END #
#                            -cx51 -D_BLENV_ADDRESS_SPACE_START=0x7E800        #
#                            -D_BLENV_ADDRESS_SPACE_END=0x7F7FF                #
#                            -Z(CODE)BLENV_ADDRESS_SPACE=_BLENV_ADDRESS_SPACE_ #
#                            START-_BLENV_ADDRESS_SPACE_END                    #
#                            -D_BANK0_START=0x00000 -D_BANK0_END=0x07FFF       #
#                            -D_BANK1_START=0x18000 -D_BANK1_END=0x1FFFF       #
#                            -D_BANK2_START=0x28000 -D_BANK2_END=0x2FFFF       #
#                            -D_BANK3_START=0x38000 -D_BANK3_END=0x3FFFF       #
#                            -D_BANK4_START=0x48000 -D_BANK4_END=0x4FFFF       #
#                            -D_BANK5_START=0x58000 -D_BANK5_END=0x5FFFF       #
#                            -D_BANK6_START=0x68000 -D_BANK6_END=0x6FFFF       #
#                            -D_BANK7_START=0x78000                            #
#                            -D_BANK7_END=(_BLENV_ADDRESS_SPACE_START-1)       #
#                            -P(CODE)BANK0=_BANK0_START-_BANK0_END             #
#                            -P(CODE)BANK1=_BANK1_START-_BANK1_END             #
#                            -P(CODE)BANK2=_BANK2_START-_BANK2_END             #
#                            -P(CODE)BANK3=_BANK3_START-_BANK3_END             #
#                            -P(CODE)BANK4=_BANK4_START-_BANK4_END             #
#                            -P(CODE)BANK5=_BANK5_START-_BANK5_END             #
#                            -P(CODE)BANK6=_BANK6_START-_BANK6_END             #
#                            -P(CODE)BANK7=_BANK7_START-_BANK7_END             #
#                            -M(CODE)[(_CODEBANK_START+_FIRST_BANK_ADDR)-(_COD #
#                            EBANK_END+_FIRST_BANK_ADDR)]*_NR_OF_BANKS+0x10000 #
#                            =0x8000                                           #
#                            -ww69=i                                           #
#                            -D_FLASH_LOCK_BITS_START=((_NR_OF_BANKS*_FIRST_BA #
#                            NK_ADDR)+0xFFF0)                                  #
#                            -D_FLASH_LOCK_BITS_END=((_NR_OF_BANKS*_FIRST_BANK #
#                            _ADDR)+0xFFFF)                                    #
#                            -Z(CODE)FLASH_LOCK_BITS=_FLASH_LOCK_BITS_START-_F #
#                            LASH_LOCK_BITS_END                                #
#                            -U(CODE)0x0000=(CODE)_FLASH_LOCK_BITS_START-_FLAS #
#                            H_LOCK_BITS_END)                                  #
#                            -D_NR_OF_VIRTUAL_REGISTERS=8 -D?PBANK=0x93        #
#                            -e?BCALL_FF=?BCALL -e?BRET_FF=?BRET               #
#                            -e?BDISPATCH_FF=?BDISPATCH                        #
#                            -e_small_write=_formatted_write                   #
#                            -e_medium_read=_formatted_read -rt                #
#                            "-Ointel-extended=C:\Users\MON\Desktop\IAR_TPMS\I #
#                            AR Systems\SDK\BLE-CC254x-1.4.0\Projects\ble\TPMS #
#                            _OBD\cc2540.hex"                                  #
#                            -s __program_start                                #
#                            "C:\Users\MON\Desktop\IAR_TPMS\IAR Systems\Embedd #
#                            ed Workbench 6.5\8051\LIB\CLIB\cl-pli-blxd-1e16x0 #
#                            1.r51"                                            #
#                            -D_IDATA_STACK_SIZE=0xC0 -D?ESP=0 -D?ESP_MASK=0   #
#                            -D_EXTENDED_STACK_START=0                         #
#                            -D_EXTENDED_STACK_SIZE=0                          #
#                            -D_PDATA_STACK_SIZE=0x00                          #
#                            -D_XDATA_STACK_SIZE=0x280                         #
#                            -D_XDATA_HEAP_SIZE=0xFF -D_FAR_HEAP_SIZE=0xFFF    #
#                            -D_HUGE_HEAP_SIZE=0xFFF                           #
#                            -D_FAR22_HEAP_SIZE=0xFFF                          #
#                                                                              #
#                           Copyright (C) 1987-2013 IAR Systems AB.            #
################################################################################





                ****************************************
                *                                      *
                *           CROSS REFERENCE            *
                *                                      *
                ****************************************

       Program entry at : CODE      0000011A  Relocatable, from module : CSTARTUP




                ****************************************
                *                                      *
                *            RUNTIME MODEL             *
                *                                      *
                ****************************************

  __SystemLibrary          = CLib
  __calling_convention     = xdata_reentrant
  __code_model             = banked
  __core                   = plain
  __data_model             = large
  __dptr_size              = 16
  __extended_stack         = disabled
  __location_for_constants = data
  __number_of_dptrs        = 1
  __rt_version             = 1

                ****************************************
                *                                      *
                *    AUTOMATIC SYMBOL REDIRECTIONS     *
                *                                      *
                ****************************************

                  There are no automatic symbol redirections.



                ****************************************
                *                                      *
                *              MODULE MAP              *
                *                                      *
                ****************************************


  DEFINED ABSOLUTE ENTRIES
    *************************************************************************

  DEFINED ABSOLUTE ENTRIES
  PROGRAM MODULE, NAME : ?ABS_ENTRY_MOD

Absolute parts
           ENTRY                   ADDRESS         REF BY
           =====                   =======         ======
           _FAR22_HEAP_SIZE        00000FFF 
           _HUGE_HEAP_SIZE         00000FFF 
           _FAR_HEAP_SIZE          00000FFF 
           _XDATA_HEAP_SIZE        000000FF 
           _XDATA_STACK_SIZE       00000280 
           _PDATA_STACK_SIZE       00000000 
           _EXTENDED_STACK_SIZE    00000000 
           _EXTENDED_STACK_START   00000000 
           ?ESP_MASK               00000000 
           ?ESP                    00000000 
           _IDATA_STACK_SIZE       000000C0 
           ?PBANK                  00000093 
           _NR_OF_VIRTUAL_REGISTERS
                                   00000008 
           _FLASH_LOCK_BITS_END    0003FFFF 
           _FLASH_LOCK_BITS_START
                                   0003FFF0 
           _BANK7_END              0003E7FF 
           _BANK7_START            00038000 
           _BANK6_END              00037FFF 
           _BANK6_START            00030000 
           _BANK5_END              0002FFFF 
           _BANK5_START            00028000 
           _BANK4_END              00027FFF 
           _BANK4_START            00020000 
           _BANK3_END              0001FFFF 
           _BANK3_START            00018000 
           _BANK2_END              00017FFF 
           _BANK2_START            00010000 
           _BANK1_END              0000FFFF 
           _BANK1_START            00008000 
           _BANK0_END              00007FFF 
           _BANK0_START            00000000 
           _BLENV_ADDRESS_SPACE_END
                                   0003F7FF 
           _BLENV_ADDRESS_SPACE_START
                                   0003E800 
           _SLEEP_CODE_SPACE_END   00007FFF 
           _SLEEP_CODE_SPACE_START
                                   00007FF8 
           _FAR_CODE_END           00007FFF 
           _FAR_CODE_START         00000000 
           _FAR_DATA_END           00FFFFFF 
           _FAR_DATA_START         00010001 
           _FAR_DATA_NR_OF_BANKS   0000000E 
           ?VB                     00000020        ?BANKED_ENTER_XDATA (?BANKED_ENTER_XDATA)
                                                   ?BANKED_LEAVE_XDATA (?BANKED_LEAVE_XDATA)
                                                   ?FUNC_ENTER_XDATA (?FUNC_ENTER_XDATA)
                                                   ?FUNC_LEAVE_XDATA (?FUNC_LEAVE_XDATA)
                                                   ?INTERRUPT_ENTER_XSP (?INTERRUPT_ENTER_XSP)
                                                   ?INTERRUPT_LEAVE_XSP (?INTERRUPT_LEAVE_XSP)
           _BREG_START             00000000 
           ?PBANK_NUMBER           0000001E 
           _REGISTER_BANK_START    00000000 
           ?REGISTER_BANK          00000000        Segment part 6 (CSTARTUP)
           _NEAR_CODE_END          00007FFF 
           _FIRST_BANK_ADDR        00010000 
           _CODE_END               00007FFF 
           _CODE_START             00000000 
           _XDATA_END              00001EFF 
           _XDATA_START            00000001 
           _IXDATA_END             00001EFF 
           _IXDATA_START           00000001 
           _PDATA_END              00001EFF 
           _PDATA_START            00001E00 
           _IDATA_END              000000FF 
           ?CBANK                  0000009F        ?RESET_CODE_BANK (CSTARTUP)
                                                   Segment part 0 (?BANKED_CODE_SUPPORT)
           ?CBANK_MASK             000000FF 
           _CODEBANK_START         00008000 
           _CODEBANK_END           0000FFFF 
           _NR_OF_BANKS            00000007 
    *************************************************************************

  FILE NAME : C:\Users\MON\Desktop\IAR_TPMS\IAR Systems\SDK\BLE-CC254x-1.4.0\Projects\ble\Libraries\CC2540DB\bin\CC2540_BLE_observ.lib
  LIBRARY MODULE, NAME : gap_centdevmgr

  SEGMENTS IN THE MODULE
  ======================
XDATA_Z
  Relative segment, address: XDATA 00000281 - 00000282 (0x2 bytes), align: 0
  Segment part 6.             Intra module refs:   GAP_CentDevMgrInit
                                                   Segment part 42
                                                   Segment part 50
                                                   gapFreeScanRecs
                                                   gapProcessAdvertDevInfo
                                                   gapSendDevDiscEvent
    -------------------------------------------------------------------------
XDATA_Z
  Relative segment, address: XDATA 00000283 - 00000283 (0x1 bytes), align: 0
  Segment part 7.             Intra module refs:   GAP_CentDevMgrInit
                                                   gapProcessAdvertDevInfo
                                                   gapSendDevDiscEvent
    -------------------------------------------------------------------------
XDATA_I
  Relative segment, address: XDATA 00000483 - 00000486 (0x4 bytes), align: 0
  Segment part 8.             Intra module refs:   GAP_CentDevMgrInit
    -------------------------------------------------------------------------
<BANKED_CODE,CODE_C> 1 (was BANKED_CODE)
  Relative segment, address: CODE 00001418 - 000014F4 (0xdd bytes), align: 0
  Segment part 12.            Intra module refs:   GAP_DeviceDiscoveryRequest::?relay
           ENTRY                   ADDRESS         REF BY
           =====                   =======         ======
           GAP_DeviceDiscoveryRequest
                                   00001418 
               calls direct
               XSTACK = 00000000 ( 0000000E )
    -------------------------------------------------------------------------
<BANKED_CODE,CODE_C> 1 (was BANKED_CODE)
  Relative segment, address: CODE 000014F5 - 000014F9 (0x5 bytes), align: 0
  Segment part 14.            Intra module refs:   GAP_DeviceDiscoveryRequest
                                                   gapProcessScanningEvt
                                                   gapSetScanParamStatus
    -------------------------------------------------------------------------
<BANKED_CODE,CODE_C> 1 (was BANKED_CODE)
  Relative segment, address: CODE 000014FA - 000014FC (0x3 bytes), align: 0
  Segment part 15.            Intra module refs:   GAP_DeviceDiscoveryRequest
                                                   gapSendDevDiscEvent
    -------------------------------------------------------------------------
<BANKED_CODE,CODE_C> 1 (was BANKED_CODE)
  Relative segment, address: CODE 000014FD - 00001502 (0x6 bytes), align: 0
  Segment part 16.            Intra module refs:   Segment part 15
                                                   gapFreeScanRecs
                                                   gapSendDeviceInfoEvent
    -------------------------------------------------------------------------
<BANKED_CODE,CODE_C> 1 (was BANKED_CODE)
  Relative segment, address: CODE 00001503 - 00001504 (0x2 bytes), align: 0
  Segment part 17.            Intra module refs:   GAP_DeviceDiscoveryCancel
                                                   gapSetScanParamStatus
    -------------------------------------------------------------------------
<BANKED_CODE,CODE_C> 1 (was BANKED_CODE)
  Relative segment, address: CODE 00001505 - 00001507 (0x3 bytes), align: 0
  Segment part 18.            Intra module refs:   GAP_DeviceDiscoveryRequest
                                                   Segment part 17
                                                   gapProcessAdvertDevInfo
                                                   gapProcessScanningEvt
                                                   gapSendDevDiscEvent
                                                   gapSendDeviceInfoEvent
    -------------------------------------------------------------------------
<BANKED_CODE,CODE_C> 1 (was BANKED_CODE)
  Relative segment, address: CODE 00001508 - 0000150F (0x8 bytes), align: 0
  Segment part 19.            Intra module refs:   GAP_CentDevMgrInit
                                                   Segment part 18
                                                   gapFreeScanRecs
                                                   gapProcessAdvertDevInfo
                                                   gapSendDevDiscEvent
    -------------------------------------------------------------------------
<BANKED_CODE,CODE_C> 1 (was BANKED_CODE)
  Relative segment, address: CODE 00001510 - 0000153E (0x2f bytes), align: 0
  Segment part 20.            Intra module refs:   GAP_DeviceDiscoveryCancel::?relay
           ENTRY                   ADDRESS         REF BY
           =====                   =======         ======
           GAP_DeviceDiscoveryCancel
                                   00001510 
               calls direct
               XSTACK = 00000000 ( 00000009 )
    -------------------------------------------------------------------------
<BANKED_CODE,CODE_C> 1 (was BANKED_CODE)
  Relative segment, address: CODE 0000153F - 00001543 (0x5 bytes), align: 0
  Segment part 22.            Intra module refs:   GAP_CentDevMgrInit
                                                   GAP_DeviceDiscoveryCancel
    -------------------------------------------------------------------------
<BANKED_CODE,CODE_C> 1 (was BANKED_CODE)
  Relative segment, address: CODE 00001544 - 000015C5 (0x82 bytes), align: 0
  Segment part 23.            Intra module refs:   GAP_CentDevMgrInit::?relay
           ENTRY                   ADDRESS         REF BY
           =====                   =======         ======
           GAP_CentDevMgrInit      00001544 
               calls direct
               XSTACK = 00000000 ( 00000009 )
    -------------------------------------------------------------------------
<BANKED_CODE,CODE_C> 1 (was BANKED_CODE)
  Relative segment, address: CODE 000015C6 - 000015FF (0x3a bytes), align: 0
  Segment part 27.            Intra module refs:   gapCentProcessHCICmdEvt::?relay
           LOCAL                   ADDRESS         
           =====                   =======         
           gapCentProcessHCICmdEvt
                                   000015C6 
               calls direct, is indirectly called
               XSTACK = 00000000 ( 0000000A )
    -------------------------------------------------------------------------
<BANKED_CODE,CODE_C> 1 (was BANKED_CODE)
  Relative segment, address: CODE 00001600 - 00001604 (0x5 bytes), align: 0
  Segment part 29.            Intra module refs:   gapCentProcessHCICmdEvt
                                                   gapSendScanEnable
    -------------------------------------------------------------------------
<BANKED_CODE,CODE_C> 1 (was BANKED_CODE)
  Relative segment, address: CODE 00001605 - 00001607 (0x3 bytes), align: 0
  Segment part 30.            Intra module refs:   gapCentProcessHCICmdEvt
                                                   gapProcessAdvertDevInfo
    -------------------------------------------------------------------------
<BANKED_CODE,CODE_C> 1 (was BANKED_CODE)
  Relative segment, address: CODE 00001608 - 0000160D (0x6 bytes), align: 0
  Segment part 31.            Intra module refs:   GAP_DeviceDiscoveryCancel
                                                   Segment part 30
                                                   gapSetScanParamStatus
    -------------------------------------------------------------------------
<BANKED_CODE,CODE_C> 1 (was BANKED_CODE)
  Relative segment, address: CODE 0000160E - 00001671 (0x64 bytes), align: 0
  Segment part 34.            Intra module refs:   gapSetScanParamStatus::?relay
           ENTRY                   ADDRESS         REF BY
           =====                   =======         ======
           gapSetScanParamStatus   0000160E 
               calls direct
               XSTACK = 0000000A ( 00000010 )
    -------------------------------------------------------------------------
<BANKED_CODE,CODE_C> 1 (was BANKED_CODE)
  Relative segment, address: CODE 00001672 - 000016FE (0x8d bytes), align: 0
  Segment part 36.            Intra module refs:   gapProcessScanningEvt::?relay
           LOCAL                   ADDRESS         
           =====                   =======         
           gapProcessScanningEvt   00001672 
               calls direct, is indirectly called
               XSTACK = 00000000 ( 0000000C )
    -------------------------------------------------------------------------
<BANKED_CODE,CODE_C> 1 (was BANKED_CODE)
  Relative segment, address: CODE 000016FF - 00001791 (0x93 bytes), align: 0
  Segment part 38.            Intra module refs:   gapFreeScanRecs::?relay
           LOCAL                   ADDRESS         
           =====                   =======         
           gapFreeScanRecs         000016FF 
               calls direct
               XSTACK = 00000010 ( 0000000B )
    -------------------------------------------------------------------------
<BANKED_CODE,CODE_C> 1 (was BANKED_CODE)
  Relative segment, address: CODE 00001792 - 00001798 (0x7 bytes), align: 0
  Segment part 40.            Intra module refs:   GAP_CentDevMgrInit
                                                   gapFreeScanRecs
    -------------------------------------------------------------------------
<BANKED_CODE,CODE_C> 1 (was BANKED_CODE)
  Relative segment, address: CODE 00001799 - 0000179C (0x4 bytes), align: 0
  Segment part 41.            Intra module refs:   gapFreeScanRecs
    -------------------------------------------------------------------------
<BANKED_CODE,CODE_C> 1 (was BANKED_CODE)
  Relative segment, address: CODE 0000179D - 000017B2 (0x16 bytes), align: 0
  Segment part 42.            Intra module refs:   Segment part 41
                                                   Segment part 43
    -------------------------------------------------------------------------
<BANKED_CODE,CODE_C> 1 (was BANKED_CODE)
  Relative segment, address: CODE 000017B3 - 000017B8 (0x6 bytes), align: 0
  Segment part 43.            Intra module refs:   gapFreeScanRecs
    -------------------------------------------------------------------------
<BANKED_CODE,CODE_C> 1 (was BANKED_CODE)
  Relative segment, address: CODE 000017B9 - 00001AB6 (0x2fe bytes), align: 0
  Segment part 44.            Intra module refs:   gapProcessAdvertDevInfo::?relay
           LOCAL                   ADDRESS         
           =====                   =======         
           gapProcessAdvertDevInfo
                                   000017B9 
               calls direct
               XSTACK = 0000000C ( 0000001B )
               ISTACK = 00000000 ( 00000001 )
    -------------------------------------------------------------------------
<BANKED_CODE,CODE_C> 1 (was BANKED_CODE)
  Relative segment, address: CODE 00001AB7 - 00001ABF (0x9 bytes), align: 0
  Segment part 46.            Intra module refs:   gapProcessAdvertDevInfo
    -------------------------------------------------------------------------
<BANKED_CODE,CODE_C> 1 (was BANKED_CODE)
  Relative segment, address: CODE 00001AC0 - 00001AC7 (0x8 bytes), align: 0
  Segment part 47.            Intra module refs:   gapFreeScanRecs
                                                   gapProcessAdvertDevInfo
    -------------------------------------------------------------------------
<BANKED_CODE,CODE_C> 1 (was BANKED_CODE)
  Relative segment, address: CODE 00001AC8 - 00001C0E (0x147 bytes), align: 0
  Segment part 48.            Intra module refs:   gapSendDevDiscEvent::?relay
           LOCAL                   ADDRESS         
           =====                   =======         
           gapSendDevDiscEvent     00001AC8 
               calls direct
               XSTACK = 0000000C ( 00000012 )
               ISTACK = 00000000 ( 00000001 )
    -------------------------------------------------------------------------
<BANKED_CODE,CODE_C> 1 (was BANKED_CODE)
  Relative segment, address: CODE 00001C0F - 00001C23 (0x15 bytes), align: 0
  Segment part 50.            Intra module refs:   Segment part 40
                                                   gapSendDevDiscEvent
    -------------------------------------------------------------------------
<BANKED_CODE,CODE_C> 1 (was BANKED_CODE)
  Relative segment, address: CODE 00001C24 - 00001C2E (0xb bytes), align: 0
  Segment part 51.            Intra module refs:   gapProcessAdvertDevInfo
                                                   gapSendDevDiscEvent
    -------------------------------------------------------------------------
<BANKED_CODE,CODE_C> 1 (was BANKED_CODE)
  Relative segment, address: CODE 00001C2F - 00001C40 (0x12 bytes), align: 0
  Segment part 52.            Intra module refs:   gapProcessAdvertDevInfo
                                                   gapSendDevDiscEvent
    -------------------------------------------------------------------------
<BANKED_CODE,CODE_C> 1 (was BANKED_CODE)
  Relative segment, address: CODE 00001C41 - 00001C47 (0x7 bytes), align: 0
  Segment part 53.            Intra module refs:   gapSendDevDiscEvent
                                                   gapSendDeviceInfoEvent
    -------------------------------------------------------------------------
<BANKED_CODE,CODE_C> 1 (was BANKED_CODE)
  Relative segment, address: CODE 00001C48 - 00001C52 (0xb bytes), align: 0
  Segment part 54.            Intra module refs:   Segment part 53
                                                   gapCentProcessHCICmdEvt
    -------------------------------------------------------------------------
<BANKED_CODE,CODE_C> 1 (was BANKED_CODE)
  Relative segment, address: CODE 00001C53 - 00001C75 (0x23 bytes), align: 0
  Segment part 55.            Intra module refs:   gapSendScanEnable::?relay
           LOCAL                   ADDRESS         
           =====                   =======         
           gapSendScanEnable       00001C53 
               calls direct
               XSTACK = 0000000C ( 0000000A )
    -------------------------------------------------------------------------
<BANKED_CODE,CODE_C> 1 (was BANKED_CODE)
  Relative segment, address: CODE 00001C76 - 00001D8F (0x11a bytes), align: 0
  Segment part 57.            Intra module refs:   gapSendDeviceInfoEvent::?relay
           LOCAL                   ADDRESS         
           =====                   =======         
           gapSendDeviceInfoEvent
                                   00001C76 
               calls direct
               XSTACK = 0000000C ( 00000010 )
               ISTACK = 00000000 ( 00000001 )
    -------------------------------------------------------------------------
<BANKED_CODE,CODE_C> 1 (was BANKED_CODE)
  Relative segment, address: CODE 00001D90 - 00001D97 (0x8 bytes), align: 0
  Segment part 59.            Intra module refs:   gapSendDevDiscEvent
                                                   gapSendDeviceInfoEvent
    -------------------------------------------------------------------------
<BANKED_CODE,CODE_C> 1 (was BANKED_CODE)
  Relative segment, address: CODE 00001D98 - 00001DA0 (0x9 bytes), align: 0
  Segment part 60.            Intra module refs:   gapSendDeviceInfoEvent
    -------------------------------------------------------------------------
XDATA_ID
  Relative segment, address: CODE 0000014B - 0000014E (0x4 bytes), align: 0
  Segment part 9.             Intra module refs:   Segment part 8
    -------------------------------------------------------------------------
BANK_RELAYS
  Relative segment, address: CODE 000001C1 - 000001C6 (0x6 bytes), align: 0
  Segment part 13.
           ENTRY                   ADDRESS         REF BY
           =====                   =======         ======
           GAP_DeviceDiscoveryRequest::?relay
                                   000001C1        GAPObserverRole_StartDiscovery (observer)
    -------------------------------------------------------------------------
BANK_RELAYS
  Relative segment, address: CODE 000001C7 - 000001CC (0x6 bytes), align: 0
  Segment part 21.
           ENTRY                   ADDRESS         REF BY
           =====                   =======         ======
           GAP_DeviceDiscoveryCancel::?relay
                                   000001C7        GAPObserverRole_CancelDiscovery (observer)
    -------------------------------------------------------------------------
BANK_RELAYS
  Relative segment, address: CODE 000001CD - 000001D2 (0x6 bytes), align: 0
  Segment part 24.
           ENTRY                   ADDRESS         REF BY
           =====                   =======         ======
           GAP_CentDevMgrInit::?relay
                                   000001CD        GAP_DeviceInit (gap)
    -------------------------------------------------------------------------
BANK_RELAYS
  Relative segment, address: CODE 000001D3 - 000001D8 (0x6 bytes), align: 0
  Segment part 28.            Intra module refs:   Segment part 9
           LOCAL                   ADDRESS         
           =====                   =======         
           gapCentProcessHCICmdEvt::?relay
                                   000001D3 
    -------------------------------------------------------------------------
BANK_RELAYS
  Relative segment, address: CODE 000001D9 - 000001DE (0x6 bytes), align: 0
  Segment part 35.            Intra module refs:   gapCentProcessHCICmdEvt
           ENTRY                   ADDRESS         REF BY
           =====                   =======         ======
           gapSetScanParamStatus::?relay
                                   000001D9 
    -------------------------------------------------------------------------
BANK_RELAYS
  Relative segment, address: CODE 000001DF - 000001E4 (0x6 bytes), align: 0
  Segment part 37.            Intra module refs:   Segment part 9
           LOCAL                   ADDRESS         
           =====                   =======         
           gapProcessScanningEvt::?relay
                                   000001DF 
    -------------------------------------------------------------------------
BANK_RELAYS
  Relative segment, address: CODE 000001E5 - 000001EA (0x6 bytes), align: 0
  Segment part 39.            Intra module refs:   GAP_CentDevMgrInit
                                                   gapSendDevDiscEvent
           LOCAL                   ADDRESS         
           =====                   =======         
           gapFreeScanRecs::?relay
                                   000001E5 
    -------------------------------------------------------------------------
BANK_RELAYS
  Relative segment, address: CODE 000001EB - 000001F0 (0x6 bytes), align: 0
  Segment part 45.            Intra module refs:   gapProcessScanningEvt
           LOCAL                   ADDRESS         
           =====                   =======         
           gapProcessAdvertDevInfo::?relay
                                   000001EB 
    -------------------------------------------------------------------------
BANK_RELAYS
  Relative segment, address: CODE 000001F1 - 000001F6 (0x6 bytes), align: 0
  Segment part 49.            Intra module refs:   GAP_DeviceDiscoveryCancel
                                                   gapProcessScanningEvt
                                                   gapSetScanParamStatus
           LOCAL                   ADDRESS         
           =====                   =======         
           gapSendDevDiscEvent::?relay
                                   000001F1 
    -------------------------------------------------------------------------
BANK_RELAYS
  Relative segment, address: CODE 000001F7 - 000001FC (0x6 bytes), align: 0
  Segment part 56.            Intra module refs:   GAP_DeviceDiscoveryCancel
                                                   gapProcessScanningEvt
                                                   gapSetScanParamStatus
           LOCAL                   ADDRESS         
           =====                   =======         
           gapSendScanEnable::?relay
                                   000001F7 
    -------------------------------------------------------------------------
BANK_RELAYS
  Relative segment, address: CODE 000001FD - 00000202 (0x6 bytes), align: 0
  Segment part 58.            Intra module refs:   gapProcessScanningEvt
           LOCAL                   ADDRESS         
           =====                   =======         
           gapSendDeviceInfoEvent::?relay
                                   000001FD 

    -------------------------------------------------------------------------
  LIBRARY MODULE, NAME : gap_configmgr

  SEGMENTS IN THE MODULE
  ======================
XDATA_I
  Relative segment, address: XDATA 00000487 - 00000487 (0x1 bytes), align: 0
  Segment part 6.             Intra module refs:   GAP_ParamsInit
                                                   gapProcessRandomAddrComplete
                                                   gapSendDeviceInitDoneEvent
           ENTRY                   ADDRESS         REF BY
           =====                   =======         ======
           gapAppTaskID            00000487 
    -------------------------------------------------------------------------
XDATA_Z
  Relative segment, address: XDATA 00000284 - 00000284 (0x1 bytes), align: 0
  Segment part 8.             Intra module refs:   GAP_ParamsInit
           ENTRY                   ADDRESS         REF BY
           =====                   =======         ======
           gapProfileRole          00000284        GAP_CentDevMgrInit (gap_centdevmgr)
                                                   GAP_DeviceDiscoveryRequest (gap_centdevmgr)
    -------------------------------------------------------------------------
XDATA_Z
  Relative segment, address: XDATA 00000285 - 00000285 (0x1 bytes), align: 0
  Segment part 9.             Intra module refs:   gapProcessRandomAddrComplete
           ENTRY                   ADDRESS         REF BY
           =====                   =======         ======
           gapDeviceAddrMode       00000285        GAP_DeviceDiscoveryRequest (gap_centdevmgr)
    -------------------------------------------------------------------------
XDATA_Z
  Relative segment, address: XDATA 00000286 - 00000286 (0x1 bytes), align: 0
  Segment part 11.            Intra module refs:   gapProcessRandomAddrComplete
           ENTRY                   ADDRESS         REF BY
           =====                   =======         ======
           gapAutoAdvPrivateAddrChange
                                   00000286 
    -------------------------------------------------------------------------
XDATA_Z
  Relative segment, address: XDATA 00000287 - 00000296 (0x10 bytes), align: 0
  Segment part 12.            Intra module refs:   GAP_ParamsInit
                                                   gapReadBD_ADDRStatus
                                                   gapReadBufSizeCmdStatus
                                                   gapSendDeviceInitDoneEvent
    -------------------------------------------------------------------------
XDATA_I
  Relative segment, address: XDATA 00000488 - 000004D5 (0x4e bytes), align: 0
  Segment part 13.            Intra module refs:   Segment part 22
    -------------------------------------------------------------------------
XDATA_Z
  Relative segment, address: XDATA 00000297 - 0000029C (0x6 bytes), align: 0
  Segment part 15.            Intra module refs:   gapProcessRandomAddrComplete
    -------------------------------------------------------------------------
<BANKED_CODE,CODE_C> 1 (was BANKED_CODE)
  Relative segment, address: CODE 00005ED1 - 00005EF8 (0x28 bytes), align: 0
  Segment part 18.            Intra module refs:   GAP_SetParamValue::?relay
           ENTRY                   ADDRESS         REF BY
           =====                   =======         ======
           GAP_SetParamValue       00005ED1 
               ISTACK = 00000000 ( 00000002 )
    -------------------------------------------------------------------------
<BANKED_CODE,CODE_C> 1 (was BANKED_CODE)
  Relative segment, address: CODE 00005EF9 - 00005F14 (0x1c bytes), align: 0
  Segment part 20.            Intra module refs:   GAP_GetParamValue::?relay
           ENTRY                   ADDRESS         REF BY
           =====                   =======         ======
           GAP_GetParamValue       00005EF9 
               XSTACK = 00000014 ( 00000000 )
               ISTACK = 00000000 ( 00000002 )
    -------------------------------------------------------------------------
<BANKED_CODE,CODE_C> 1 (was BANKED_CODE)
  Relative segment, address: CODE 00005F15 - 00005F26 (0x12 bytes), align: 0
  Segment part 22.            Intra module refs:   GAP_GetParamValue
                                                   GAP_SetParamValue
    -------------------------------------------------------------------------
<BANKED_CODE,CODE_C> 1 (was BANKED_CODE)
  Relative segment, address: CODE 00005F27 - 00005F58 (0x32 bytes), align: 0
  Segment part 23.            Intra module refs:   GAP_ParamsInit::?relay
           ENTRY                   ADDRESS         REF BY
           =====                   =======         ======
           GAP_ParamsInit          00005F27 
               calls direct
               XSTACK = 00000000 ( 00000009 )
    -------------------------------------------------------------------------
<BANKED_CODE,CODE_C> 1 (was BANKED_CODE)
  Relative segment, address: CODE 00005F59 - 00005F5D (0x5 bytes), align: 0
  Segment part 25.            Intra module refs:   GAP_ParamsInit
                                                   gapReadBufSizeCmdStatus
    -------------------------------------------------------------------------
<BANKED_CODE,CODE_C> 1 (was BANKED_CODE)
  Relative segment, address: CODE 00005F5E - 00005FA3 (0x46 bytes), align: 0
  Segment part 30.            Intra module refs:   gapReadBD_ADDRStatus::?relay
           ENTRY                   ADDRESS         REF BY
           =====                   =======         ======
           gapReadBD_ADDRStatus    00005F5E 
               calls direct
               XSTACK = 00000000 ( 0000000C )
    -------------------------------------------------------------------------
<BANKED_CODE,CODE_C> 1 (was BANKED_CODE)
  Relative segment, address: CODE 00005FA4 - 00005FA8 (0x5 bytes), align: 0
  Segment part 32.            Intra module refs:   gapReadBD_ADDRStatus
    -------------------------------------------------------------------------
<BANKED_CODE,CODE_C> 1 (was BANKED_CODE)
  Relative segment, address: CODE 00005FA9 - 00005FF3 (0x4b bytes), align: 0
  Segment part 33.            Intra module refs:   gapReadBufSizeCmdStatus::?relay
           ENTRY                   ADDRESS         REF BY
           =====                   =======         ======
           gapReadBufSizeCmdStatus
                                   00005FA9 
               calls direct
               XSTACK = 00000000 ( 00000009 )
    -------------------------------------------------------------------------
<BANKED_CODE,CODE_C> 1 (was BANKED_CODE)
  Relative segment, address: CODE 00005FF4 - 00005FFA (0x7 bytes), align: 0
  Segment part 40.            Intra module refs:   GAP_GetParamValue
                                                   GAP_SetParamValue
                                                   gapDetermineAddrType
    -------------------------------------------------------------------------
<BANKED_CODE,CODE_C> 1 (was BANKED_CODE)
  Relative segment, address: CODE 00005FFB - 00006000 (0x6 bytes), align: 0
  Segment part 42.            Intra module refs:   GAP_GetParamValue
    -------------------------------------------------------------------------
<BANKED_CODE,CODE_C> 1 (was BANKED_CODE)
  Relative segment, address: CODE 00006001 - 0000602E (0x2e bytes), align: 0
  Segment part 43.            Intra module refs:   gapDetermineAddrType::?relay
           ENTRY                   ADDRESS         REF BY
           =====                   =======         ======
           gapDetermineAddrType    00006001 
               ISTACK = 00000000 ( 00000002 )
    -------------------------------------------------------------------------
<BANKED_CODE,CODE_C> 1 (was BANKED_CODE)
  Relative segment, address: CODE 0000602F - 000060CD (0x9f bytes), align: 0
  Segment part 45.            Intra module refs:   gapProcessRandomAddrComplete::?relay
           ENTRY                   ADDRESS         REF BY
           =====                   =======         ======
           gapProcessRandomAddrComplete
                                   0000602F 
               calls direct
               XSTACK = 00000000 ( 00000010 )
               ISTACK = 00000000 ( 00000001 )
    -------------------------------------------------------------------------
<BANKED_CODE,CODE_C> 1 (was BANKED_CODE)
  Relative segment, address: CODE 000060CE - 000060D2 (0x5 bytes), align: 0
  Segment part 47.            Intra module refs:   gapProcessRandomAddrComplete
                                                   gapSendDeviceInitDoneEvent
    -------------------------------------------------------------------------
<BANKED_CODE,CODE_C> 1 (was BANKED_CODE)
  Relative segment, address: CODE 000060D3 - 000060D3 (0x1 bytes), align: 0
  Segment part 48.            Intra module refs:   gapProcessRandomAddrComplete
                                                   gapReadBufSizeCmdStatus
    -------------------------------------------------------------------------
<BANKED_CODE,CODE_C> 1 (was BANKED_CODE)
  Relative segment, address: CODE 000060D4 - 000060D9 (0x6 bytes), align: 0
  Segment part 49.            Intra module refs:   Segment part 48
                                                   gapProcessRandomAddrComplete
                                                   gapSendDeviceInitDoneEvent
    -------------------------------------------------------------------------
<BANKED_CODE,CODE_C> 1 (was BANKED_CODE)
  Relative segment, address: CODE 000060DA - 000060E3 (0xa bytes), align: 0
  Segment part 50.            Intra module refs:   gapProcessRandomAddrComplete
                                                   gapSendDeviceInitDoneEvent
    -------------------------------------------------------------------------
<BANKED_CODE,CODE_C> 1 (was BANKED_CODE)
  Relative segment, address: CODE 000060E4 - 000060EB (0x8 bytes), align: 0
  Segment part 51.            Intra module refs:   Segment part 50
    -------------------------------------------------------------------------
<BANKED_CODE,CODE_C> 1 (was BANKED_CODE)
  Relative segment, address: CODE 000060EC - 00006169 (0x7e bytes), align: 0
  Segment part 67.            Intra module refs:   gapSendDeviceInitDoneEvent::?relay
           LOCAL                   ADDRESS         
           =====                   =======         
           gapSendDeviceInitDoneEvent
                                   000060EC 
               calls direct
               XSTACK = 0000000A ( 0000000E )
               ISTACK = 00000000 ( 00000001 )
    -------------------------------------------------------------------------
<BANKED_CODE,CODE_C> 1 (was BANKED_CODE)
  Relative segment, address: CODE 0000616A - 00006172 (0x9 bytes), align: 0
  Segment part 71.            Intra module refs:   gapReadBufSizeCmdStatus
    -------------------------------------------------------------------------
XDATA_ID
  Relative segment, address: CODE 0000014F - 0000014F (0x1 bytes), align: 0
  Segment part 7.             Intra module refs:   gapAppTaskID
    -------------------------------------------------------------------------
XDATA_ID
  Relative segment, address: CODE 00000150 - 0000019D (0x4e bytes), align: 0
  Segment part 14.            Intra module refs:   Segment part 13
    -------------------------------------------------------------------------
<XDATA_ROM_C> 1 (was XDATA_ROM_C)
  Relative segment, address: CONST 00008E71 - 00008E74 (0x4 bytes), align: 0
  Segment part 16.            Intra module refs:   gapProcessRandomAddrComplete
           ENTRY                   ADDRESS         REF BY
           =====                   =======         ======
           __Constant_ea60         00008E71 
    -------------------------------------------------------------------------
BANK_RELAYS
  Relative segment, address: CODE 00000203 - 00000208 (0x6 bytes), align: 0
  Segment part 19.
           ENTRY                   ADDRESS         REF BY
           =====                   =======         ======
           GAP_SetParamValue::?relay
                                   00000203        TPMS_OBD_Init (TPMS_OBD)
    -------------------------------------------------------------------------
BANK_RELAYS
  Relative segment, address: CODE 00000209 - 0000020E (0x6 bytes), align: 0
  Segment part 21.
           ENTRY                   ADDRESS         REF BY
           =====                   =======         ======
           GAP_GetParamValue::?relay
                                   00000209        GAP_DeviceDiscoveryRequest (gap_centdevmgr)
                                                   gapProcessScanningEvt (gap_centdevmgr)
                                                   gapSendScanEnable (gap_centdevmgr)
                                                   gapSetScanParamStatus (gap_centdevmgr)
    -------------------------------------------------------------------------
BANK_RELAYS
  Relative segment, address: CODE 0000020F - 00000214 (0x6 bytes), align: 0
  Segment part 24.
           ENTRY                   ADDRESS         REF BY
           =====                   =======         ======
           GAP_ParamsInit::?relay
                                   0000020F        GAP_DeviceInit (gap)
    -------------------------------------------------------------------------
BANK_RELAYS
  Relative segment, address: CODE 00000215 - 0000021A (0x6 bytes), align: 0
  Segment part 31.
           ENTRY                   ADDRESS         REF BY
           =====                   =======         ======
           gapReadBD_ADDRStatus::?relay
                                   00000215        gapProcessHCICmdCompleteEvt (gap_simpletask)
    -------------------------------------------------------------------------
BANK_RELAYS
  Relative segment, address: CODE 0000021B - 00000220 (0x6 bytes), align: 0
  Segment part 34.
           ENTRY                   ADDRESS         REF BY
           =====                   =======         ======
           gapReadBufSizeCmdStatus::?relay
                                   0000021B        gapProcessHCICmdCompleteEvt (gap_simpletask)
    -------------------------------------------------------------------------
BANK_RELAYS
  Relative segment, address: CODE 00000221 - 00000226 (0x6 bytes), align: 0
  Segment part 44.
           ENTRY                   ADDRESS         REF BY
           =====                   =======         ======
           gapDetermineAddrType::?relay
                                   00000221        gapProcessAdvertDevInfo (gap_centdevmgr)
    -------------------------------------------------------------------------
BANK_RELAYS
  Relative segment, address: CODE 00000227 - 0000022C (0x6 bytes), align: 0
  Segment part 46.
           ENTRY                   ADDRESS         REF BY
           =====                   =======         ======
           gapProcessRandomAddrComplete::?relay
                                   00000227        gapProcessHCICmdCompleteEvt (gap_simpletask)
    -------------------------------------------------------------------------
BANK_RELAYS
  Relative segment, address: CODE 0000022D - 00000232 (0x6 bytes), align: 0
  Segment part 68.            Intra module refs:   gapReadBD_ADDRStatus
                                                   gapReadBufSizeCmdStatus
           LOCAL                   ADDRESS         
           =====                   =======         
           gapSendDeviceInitDoneEvent::?relay
                                   0000022D 
    -------------------------------------------------------------------------
<XDATA_ROM_C_FLASH> 1 (was XDATA_ROM_C_FLASH)
  Relative segment, address: CODE 00008E71 - 00008E74 (0x4 bytes), align: 0
  Segment part 72.            Intra module refs:   __Constant_ea60

    -------------------------------------------------------------------------
  LIBRARY MODULE, NAME : gap_devmgr

  SEGMENTS IN THE MODULE
  ======================
XDATA_Z
  Relative segment, address: XDATA 0000029D - 0000029E (0x2 bytes), align: 0
  Segment part 6.
           ENTRY                   ADDRESS         REF BY
           =====                   =======         ======
           pGapDiscReq             0000029D        GAP_DeviceDiscoveryRequest (gap_centdevmgr)
                                                   Segment part 15 (gap_centdevmgr)
                                                   Segment part 18 (gap_centdevmgr)
                                                   Segment part 53 (gap_centdevmgr)
                                                   gapProcessAdvertDevInfo (gap_centdevmgr)
                                                   gapSendDevDiscEvent (gap_centdevmgr)
    -------------------------------------------------------------------------
<BANKED_CODE,CODE_C> 1 (was BANKED_CODE)
  Relative segment, address: CODE 00007137 - 0000714E (0x18 bytes), align: 0
  Segment part 15.            Intra module refs:   gapValidADType::?relay
           ENTRY                   ADDRESS         REF BY
           =====                   =======         ======
           gapValidADType          00007137 
               XSTACK = 00000012 ( 00000000 )
    -------------------------------------------------------------------------
<BANKED_CODE,CODE_C> 1 (was BANKED_CODE)
  Relative segment, address: CODE 0000714F - 000071E7 (0x99 bytes), align: 0
  Segment part 17.            Intra module refs:   gapFindADType::?relay
           ENTRY                   ADDRESS         REF BY
           =====                   =======         ======
           gapFindADType           0000714F 
               calls direct
               XSTACK = 00000002 ( 00000012 )
               ISTACK = 00000000 ( 00000001 )
    -------------------------------------------------------------------------
BANK_RELAYS
  Relative segment, address: CODE 00000233 - 00000238 (0x6 bytes), align: 0
  Segment part 16.            Intra module refs:   gapFindADType
           ENTRY                   ADDRESS         REF BY
           =====                   =======         ======
           gapValidADType::?relay
                                   00000233 
    -------------------------------------------------------------------------
BANK_RELAYS
  Relative segment, address: CODE 00000239 - 0000023E (0x6 bytes), align: 0
  Segment part 18.
           ENTRY                   ADDRESS         REF BY
           =====                   =======         ======
           gapFindADType::?relay   00000239        gapProcessAdvertDevInfo (gap_centdevmgr)

    -------------------------------------------------------------------------
  LIBRARY MODULE, NAME : gap_simpletask

  SEGMENTS IN THE MODULE
  ======================
XDATA_Z
  Relative segment, address: XDATA 0000029F - 0000029F (0x1 bytes), align: 0
  Segment part 6.             Intra module refs:   GAP_Init
                                                   GAP_ProcessEvent
           ENTRY                   ADDRESS         REF BY
           =====                   =======         ======
           gapTaskID               0000029F        GAP_DeviceDiscoveryCancel (gap_centdevmgr)
                                                   gapProcessRandomAddrComplete (gap_configmgr)
                                                   gapSetScanParamStatus (gap_centdevmgr)
    -------------------------------------------------------------------------
XDATA_I
  Relative segment, address: XDATA 000004D6 - 000004D6 (0x1 bytes), align: 0
  Segment part 7.             Intra module refs:   GAP_ProcessEvent
                                                   GAP_RegisterForHCIMsgs
           ENTRY                   ADDRESS         REF BY
           =====                   =======         ======
           gapUnwantedTaskID       000004D6 
    -------------------------------------------------------------------------
XDATA_Z
  Relative segment, address: XDATA 000002A0 - 000002A1 (0x2 bytes), align: 0
  Segment part 9.             Intra module refs:   GAP_ProcessEvent
                                                   gapProcessHCICmdCompleteEvt
           ENTRY                   ADDRESS         REF BY
           =====                   =======         ======
           pfnPeripheralCBs        000002A0        gapProcessRandomAddrComplete (gap_configmgr)
    -------------------------------------------------------------------------
XDATA_Z
  Relative segment, address: XDATA 000002A2 - 000002A3 (0x2 bytes), align: 0
  Segment part 10.            Intra module refs:   Segment part 26
                                                   gapRegisterCentral
    -------------------------------------------------------------------------
<BANKED_CODE,CODE_C> 1 (was BANKED_CODE)
  Relative segment, address: CODE 000065A7 - 000065B1 (0xb bytes), align: 0
  Segment part 11.            Intra module refs:   GAP_RegisterForHCIMsgs::?relay
           ENTRY                   ADDRESS         REF BY
           =====                   =======         ======
           GAP_RegisterForHCIMsgs
                                   000065A7 
               ISTACK = 00000000 ( 00000002 )
    -------------------------------------------------------------------------
<BANKED_CODE,CODE_C> 1 (was BANKED_CODE)
  Relative segment, address: CODE 000065B2 - 000065C3 (0x12 bytes), align: 0
  Segment part 13.            Intra module refs:   GAP_Init::?relay
           ENTRY                   ADDRESS         REF BY
           =====                   =======         ======
           GAP_Init                000065B2 
               calls direct
               XSTACK = 00000000 ( 00000009 )
    -------------------------------------------------------------------------
<BANKED_CODE,CODE_C> 1 (was BANKED_CODE)
  Relative segment, address: CODE 000065C4 - 0000668E (0xcb bytes), align: 0
  Segment part 15.            Intra module refs:   GAP_ProcessEvent::?relay
           ENTRY                   ADDRESS         REF BY
           =====                   =======         ======
           GAP_ProcessEvent        000065C4 
               calls direct
               XSTACK = 00000000 ( 0000000C )
    -------------------------------------------------------------------------
<BANKED_CODE,CODE_C> 1 (was BANKED_CODE)
  Relative segment, address: CODE 0000668F - 00006693 (0x5 bytes), align: 0
  Segment part 17.            Intra module refs:   GAP_ProcessEvent
    -------------------------------------------------------------------------
<BANKED_CODE,CODE_C> 1 (was BANKED_CODE)
  Relative segment, address: CODE 00006694 - 0000669B (0x8 bytes), align: 0
  Segment part 18.            Intra module refs:   Segment part 17
                                                   gapProcessHCICmdCompleteEvt
    -------------------------------------------------------------------------
<BANKED_CODE,CODE_C> 1 (was BANKED_CODE)
  Relative segment, address: CODE 0000669C - 000066A0 (0x5 bytes), align: 0
  Segment part 19.            Intra module refs:   GAP_NumActiveConnections::?relay
           ENTRY                   ADDRESS         REF BY
           =====                   =======         ======
           GAP_NumActiveConnections
                                   0000669C 
    -------------------------------------------------------------------------
<BANKED_CODE,CODE_C> 1 (was BANKED_CODE)
  Relative segment, address: CODE 000066A1 - 0000675B (0xbb bytes), align: 0
  Segment part 21.            Intra module refs:   gapProcessHCICmdCompleteEvt::?relay
           LOCAL                   ADDRESS         
           =====                   =======         
           gapProcessHCICmdCompleteEvt
                                   000066A1 
               calls direct
               XSTACK = 0000000C ( 0000000B )
    -------------------------------------------------------------------------
<BANKED_CODE,CODE_C> 1 (was BANKED_CODE)
  Relative segment, address: CODE 0000675C - 00006765 (0xa bytes), align: 0
  Segment part 23.            Intra module refs:   Segment part 18
                                                   gapProcessHCICmdCompleteEvt
    -------------------------------------------------------------------------
<BANKED_CODE,CODE_C> 1 (was BANKED_CODE)
  Relative segment, address: CODE 00006766 - 0000676B (0x6 bytes), align: 0
  Segment part 24.            Intra module refs:   Segment part 17
                                                   Segment part 25
                                                   gapProcessHCICmdCompleteEvt
    -------------------------------------------------------------------------
<BANKED_CODE,CODE_C> 1 (was BANKED_CODE)
  Relative segment, address: CODE 0000676C - 0000677C (0x11 bytes), align: 0
  Segment part 25.            Intra module refs:   gapProcessHCICmdCompleteEvt
    -------------------------------------------------------------------------
<BANKED_CODE,CODE_C> 1 (was BANKED_CODE)
  Relative segment, address: CODE 0000677D - 0000677F (0x3 bytes), align: 0
  Segment part 26.            Intra module refs:   GAP_ProcessEvent
                                                   gapProcessHCICmdCompleteEvt
    -------------------------------------------------------------------------
<BANKED_CODE,CODE_C> 1 (was BANKED_CODE)
  Relative segment, address: CODE 00006780 - 00006787 (0x8 bytes), align: 0
  Segment part 27.            Intra module refs:   GAP_ProcessEvent
                                                   Segment part 26
                                                   gapProcessHCICmdCompleteEvt
    -------------------------------------------------------------------------
<BANKED_CODE,CODE_C> 1 (was BANKED_CODE)
  Relative segment, address: CODE 00006788 - 0000678E (0x7 bytes), align: 0
  Segment part 28.            Intra module refs:   gapRegisterCentral::?relay
           ENTRY                   ADDRESS         REF BY
           =====                   =======         ======
           gapRegisterCentral      00006788 
               ISTACK = 00000000 ( 00000002 )
    -------------------------------------------------------------------------
<BANKED_CODE,CODE_C> 1 (was BANKED_CODE)
  Relative segment, address: CODE 0000678F - 00006792 (0x4 bytes), align: 0
  Segment part 30.            Intra module refs:   gapRegisterCentral
    -------------------------------------------------------------------------
<BANKED_CODE,CODE_C> 1 (was BANKED_CODE)
  Relative segment, address: CODE 00006793 - 0000679A (0x8 bytes), align: 0
  Segment part 31.            Intra module refs:   GAP_RegisterForHCIMsgs
                                                   Segment part 30
    -------------------------------------------------------------------------
XDATA_ID
  Relative segment, address: CODE 0000019E - 0000019E (0x1 bytes), align: 0
  Segment part 8.             Intra module refs:   gapUnwantedTaskID
    -------------------------------------------------------------------------
BANK_RELAYS
  Relative segment, address: CODE 0000023F - 00000244 (0x6 bytes), align: 0
  Segment part 12.
           ENTRY                   ADDRESS         REF BY
           =====                   =======         ======
           GAP_RegisterForHCIMsgs::?relay
                                   0000023F        GAPObserverRole_Init (observer)
    -------------------------------------------------------------------------
BANK_RELAYS
  Relative segment, address: CODE 00000245 - 0000024A (0x6 bytes), align: 0
  Segment part 14.
           ENTRY                   ADDRESS         REF BY
           =====                   =======         ======
           GAP_Init::?relay        00000245        osalInitTasks (OSAL_TPMS_OBD)
    -------------------------------------------------------------------------
BANK_RELAYS
  Relative segment, address: CODE 0000024B - 00000250 (0x6 bytes), align: 0
  Segment part 16.
           ENTRY                   ADDRESS         REF BY
           =====                   =======         ======
           GAP_ProcessEvent::?relay
                                   0000024B        tasksArr (OSAL_TPMS_OBD)
    -------------------------------------------------------------------------
BANK_RELAYS
  Relative segment, address: CODE 00000251 - 00000256 (0x6 bytes), align: 0
  Segment part 20.
           ENTRY                   ADDRESS         REF BY
           =====                   =======         ======
           GAP_NumActiveConnections::?relay
                                   00000251        GAP_DeviceDiscoveryRequest (gap_centdevmgr)
    -------------------------------------------------------------------------
BANK_RELAYS
  Relative segment, address: CODE 00000257 - 0000025C (0x6 bytes), align: 0
  Segment part 22.            Intra module refs:   GAP_ProcessEvent
           LOCAL                   ADDRESS         
           =====                   =======         
           gapProcessHCICmdCompleteEvt::?relay
                                   00000257 
    -------------------------------------------------------------------------
BANK_RELAYS
  Relative segment, address: CODE 0000025D - 00000262 (0x6 bytes), align: 0
  Segment part 29.
           ENTRY                   ADDRESS         REF BY
           =====                   =======         ======
           gapRegisterCentral::?relay
                                   0000025D        GAP_CentDevMgrInit (gap_centdevmgr)

    -------------------------------------------------------------------------
  LIBRARY MODULE, NAME : hci

  SEGMENTS IN THE MODULE
  ======================
XDATA_Z
  Relative segment, address: XDATA 000002A4 - 000002A4 (0x1 bytes), align: 0
  Segment part 9.
           ENTRY                   ADDRESS         REF BY
           =====                   =======         ======
           hciPTMenabled           000002A4        HCI_CommandCompleteEvent (hci_event)
                                                   HCI_Init (hci_tl)
    -------------------------------------------------------------------------
XDATA_Z
  Relative segment, address: XDATA 000002A5 - 000002A5 (0x1 bytes), align: 0
  Segment part 12.
           ENTRY                   ADDRESS         REF BY
           =====                   =======         ======
           hciCtrlCmdToken         000002A5        Segment part 35 (hci_event)
    -------------------------------------------------------------------------
<BANKED_CODE,CODE_C> 1 (was BANKED_CODE)
  Relative segment, address: CODE 0000679B - 000067A2 (0x8 bytes), align: 0
  Segment part 30.            Intra module refs:   Segment part 110
                                                   Segment part 45
    -------------------------------------------------------------------------
<BANKED_CODE,CODE_C> 1 (was BANKED_CODE)
  Relative segment, address: CODE 000067A3 - 000067CA (0x28 bytes), align: 0
  Segment part 34.            Intra module refs:   HCI_ReadBDADDRCmd::?relay
           ENTRY                   ADDRESS         REF BY
           =====                   =======         ======
           HCI_ReadBDADDRCmd       000067A3 
               calls direct
               XSTACK = 00000000 ( 00000007 )
               ISTACK = 00000000 ( 00000003 )
    -------------------------------------------------------------------------
<BANKED_CODE,CODE_C> 1 (was BANKED_CODE)
  Relative segment, address: CODE 000067CB - 000067FA (0x30 bytes), align: 0
  Segment part 42.            Intra module refs:   HCI_LE_ReadBufSizeCmd::?relay
           ENTRY                   ADDRESS         REF BY
           =====                   =======         ======
           HCI_LE_ReadBufSizeCmd   000067CB 
               calls direct
               XSTACK = 00000000 ( 00000004 )
               ISTACK = 00000000 ( 00000002 )
    -------------------------------------------------------------------------
<BANKED_CODE,CODE_C> 1 (was BANKED_CODE)
  Relative segment, address: CODE 000067FB - 00006801 (0x7 bytes), align: 0
  Segment part 44.            Intra module refs:   HCI_LE_ReadBufSizeCmd
    -------------------------------------------------------------------------
<BANKED_CODE,CODE_C> 1 (was BANKED_CODE)
  Relative segment, address: CODE 00006802 - 00006807 (0x6 bytes), align: 0
  Segment part 45.            Intra module refs:   HCI_LE_ReadBufSizeCmd
    -------------------------------------------------------------------------
<BANKED_CODE,CODE_C> 1 (was BANKED_CODE)
  Relative segment, address: CODE 00006808 - 00006841 (0x3a bytes), align: 0
  Segment part 50.            Intra module refs:   HCI_LE_SetScanParamCmd::?relay
           ENTRY                   ADDRESS         REF BY
           =====                   =======         ======
           HCI_LE_SetScanParamCmd
                                   00006808 
               calls direct
               XSTACK = 00000002 ( 0000000C )
               ISTACK = 00000000 ( 00000001 )
    -------------------------------------------------------------------------
<BANKED_CODE,CODE_C> 1 (was BANKED_CODE)
  Relative segment, address: CODE 00006842 - 00006856 (0x15 bytes), align: 0
  Segment part 52.            Intra module refs:   HCI_LE_SetScanEnableCmd::?relay
           ENTRY                   ADDRESS         REF BY
           =====                   =======         ======
           HCI_LE_SetScanEnableCmd
                                   00006842 
               calls direct
               XSTACK = 00000000 ( 0000000A )
               ISTACK = 00000000 ( 00000001 )
    -------------------------------------------------------------------------
<BANKED_CODE,CODE_C> 1 (was BANKED_CODE)
  Relative segment, address: CODE 00006857 - 00006863 (0xd bytes), align: 0
  Segment part 56.            Intra module refs:   HCI_ReadBDADDRCmd
    -------------------------------------------------------------------------
<BANKED_CODE,CODE_C> 1 (was BANKED_CODE)
  Relative segment, address: CODE 00006864 - 0000686A (0x7 bytes), align: 0
  Segment part 61.            Intra module refs:   HCI_LE_SetScanEnableCmd
                                                   HCI_LE_SetScanParamCmd
    -------------------------------------------------------------------------
<BANKED_CODE,CODE_C> 1 (was BANKED_CODE)
  Relative segment, address: CODE 0000686B - 00006872 (0x8 bytes), align: 0
  Segment part 62.            Intra module refs:   Segment part 61
    -------------------------------------------------------------------------
<BANKED_CODE,CODE_C> 1 (was BANKED_CODE)
  Relative segment, address: CODE 00006873 - 0000687A (0x8 bytes), align: 0
  Segment part 67.            Intra module refs:   LL_RandCback
    -------------------------------------------------------------------------
<BANKED_CODE,CODE_C> 1 (was BANKED_CODE)
  Relative segment, address: CODE 0000687B - 0000687F (0x5 bytes), align: 0
  Segment part 80.            Intra module refs:   Segment part 140
    -------------------------------------------------------------------------
<BANKED_CODE,CODE_C> 1 (was BANKED_CODE)
  Relative segment, address: CODE 00006880 - 00006887 (0x8 bytes), align: 0
  Segment part 87.            Intra module refs:   Segment part 30
    -------------------------------------------------------------------------
<BANKED_CODE,CODE_C> 1 (was BANKED_CODE)
  Relative segment, address: CODE 00006888 - 00006890 (0x9 bytes), align: 0
  Segment part 91.            Intra module refs:   HCI_LE_SetScanEnableCmd
                                                   HCI_LE_SetScanParamCmd
    -------------------------------------------------------------------------
<BANKED_CODE,CODE_C> 1 (was BANKED_CODE)
  Relative segment, address: CODE 00006891 - 00006898 (0x8 bytes), align: 0
  Segment part 92.            Intra module refs:   Segment part 91
    -------------------------------------------------------------------------
<BANKED_CODE,CODE_C> 1 (was BANKED_CODE)
  Relative segment, address: CODE 00006899 - 0000689B (0x3 bytes), align: 0
  Segment part 105.           Intra module refs:   HCI_ReadBDADDRCmd
                                                   Segment part 44
                                                   Segment part 80
    -------------------------------------------------------------------------
<BANKED_CODE,CODE_C> 1 (was BANKED_CODE)
  Relative segment, address: CODE 0000689C - 000068A2 (0x7 bytes), align: 0
  Segment part 106.           Intra module refs:   Segment part 105
    -------------------------------------------------------------------------
<BANKED_CODE,CODE_C> 1 (was BANKED_CODE)
  Relative segment, address: CODE 000068A3 - 000068A8 (0x6 bytes), align: 0
  Segment part 110.           Intra module refs:   LL_EXT_ExtendRfRangeCback
                                                   LL_EXT_SetRxGainCback
                                                   LL_EXT_SetTxPowerCback
    -------------------------------------------------------------------------
<BANKED_CODE,CODE_C> 1 (was BANKED_CODE)
  Relative segment, address: CODE 000068A9 - 000068F1 (0x49 bytes), align: 0
  Segment part 136.           Intra module refs:   LL_RandCback::?relay
           ENTRY                   ADDRESS         REF BY
           =====                   =======         ======
           LL_RandCback            000068A9 
               calls direct
               XSTACK = 00000000 ( 00000015 )
    -------------------------------------------------------------------------
<BANKED_CODE,CODE_C> 1 (was BANKED_CODE)
  Relative segment, address: CODE 000068F2 - 00006913 (0x22 bytes), align: 0
  Segment part 138.           Intra module refs:   LL_EXT_SetRxGainCback::?relay
           ENTRY                   ADDRESS         REF BY
           =====                   =======         ======
           LL_EXT_SetRxGainCback   000068F2 
               calls direct
               XSTACK = 00000000 ( 00000003 )
               ISTACK = 00000000 ( 00000002 )
    -------------------------------------------------------------------------
<BANKED_CODE,CODE_C> 1 (was BANKED_CODE)
  Relative segment, address: CODE 00006914 - 0000691B (0x8 bytes), align: 0
  Segment part 140.           Intra module refs:   LL_EXT_ExtendRfRangeCback
                                                   LL_EXT_SetRxGainCback
                                                   LL_EXT_SetTxPowerCback
    -------------------------------------------------------------------------
<BANKED_CODE,CODE_C> 1 (was BANKED_CODE)
  Relative segment, address: CODE 0000691C - 00006940 (0x25 bytes), align: 0
  Segment part 141.           Intra module refs:   LL_EXT_SetTxPowerCback::?relay
           ENTRY                   ADDRESS         REF BY
           =====                   =======         ======
           LL_EXT_SetTxPowerCback
                                   0000691C 
               calls direct
               XSTACK = 00000000 ( 00000003 )
               ISTACK = 00000000 ( 00000002 )
    -------------------------------------------------------------------------
<BANKED_CODE,CODE_C> 1 (was BANKED_CODE)
  Relative segment, address: CODE 00006941 - 00006968 (0x28 bytes), align: 0
  Segment part 145.           Intra module refs:   LL_EXT_ExtendRfRangeCback::?relay
           ENTRY                   ADDRESS         REF BY
           =====                   =======         ======
           LL_EXT_ExtendRfRangeCback
                                   00006941 
               calls direct
               XSTACK = 00000000 ( 00000003 )
               ISTACK = 00000000 ( 00000002 )
    -------------------------------------------------------------------------
BANK_RELAYS
  Relative segment, address: CODE 00000263 - 00000268 (0x6 bytes), align: 0
  Segment part 35.
           ENTRY                   ADDRESS         REF BY
           =====                   =======         ======
           HCI_ReadBDADDRCmd::?relay
                                   00000263        GAP_ParamsInit (gap_configmgr)
    -------------------------------------------------------------------------
BANK_RELAYS
  Relative segment, address: CODE 00000269 - 0000026E (0x6 bytes), align: 0
  Segment part 43.
           ENTRY                   ADDRESS         REF BY
           =====                   =======         ======
           HCI_LE_ReadBufSizeCmd::?relay
                                   00000269        gapReadBD_ADDRStatus (gap_configmgr)
    -------------------------------------------------------------------------
BANK_RELAYS
  Relative segment, address: CODE 0000026F - 00000274 (0x6 bytes), align: 0
  Segment part 51.
           ENTRY                   ADDRESS         REF BY
           =====                   =======         ======
           HCI_LE_SetScanParamCmd::?relay
                                   0000026F        GAP_DeviceDiscoveryRequest (gap_centdevmgr)
    -------------------------------------------------------------------------
BANK_RELAYS
  Relative segment, address: CODE 00000275 - 0000027A (0x6 bytes), align: 0
  Segment part 53.
           ENTRY                   ADDRESS         REF BY
           =====                   =======         ======
           HCI_LE_SetScanEnableCmd::?relay
                                   00000275        gapSendScanEnable (gap_centdevmgr)
    -------------------------------------------------------------------------
BANK_RELAYS
  Relative segment, address: CODE 0000027B - 00000280 (0x6 bytes), align: 0
  Segment part 137.
           ENTRY                   ADDRESS         REF BY
           =====                   =======         ======
           LL_RandCback::?relay    0000027B        llProcessPostRfOps (ll_common)
    -------------------------------------------------------------------------
BANK_RELAYS
  Relative segment, address: CODE 00000281 - 00000286 (0x6 bytes), align: 0
  Segment part 139.
           ENTRY                   ADDRESS         REF BY
           =====                   =======         ======
           LL_EXT_SetRxGainCback::?relay
                                   00000281        llProcessPostRfOps (ll_common)
    -------------------------------------------------------------------------
BANK_RELAYS
  Relative segment, address: CODE 00000287 - 0000028C (0x6 bytes), align: 0
  Segment part 142.
           ENTRY                   ADDRESS         REF BY
           =====                   =======         ======
           LL_EXT_SetTxPowerCback::?relay
                                   00000287        llProcessPostRfOps (ll_common)
    -------------------------------------------------------------------------
BANK_RELAYS
  Relative segment, address: CODE 0000028D - 00000292 (0x6 bytes), align: 0
  Segment part 146.
           ENTRY                   ADDRESS         REF BY
           =====                   =======         ======
           LL_EXT_ExtendRfRangeCback::?relay
                                   0000028D        llProcessPostRfOps (ll_common)

    -------------------------------------------------------------------------
  LIBRARY MODULE, NAME : hci_event

  SEGMENTS IN THE MODULE
  ======================
XDATA_Z
  Relative segment, address: XDATA 000002A6 - 000002A6 (0x1 bytes), align: 0
  Segment part 6.             Intra module refs:   LL_AdvReportCback
                                                   hciInitEventMasks
           ENTRY                   ADDRESS         REF BY
           =====                   =======         ======
           bleEvtMask              000002A6 
    -------------------------------------------------------------------------
XDATA_Z
  Relative segment, address: XDATA 000002A7 - 000002AE (0x8 bytes), align: 0
  Segment part 7.             Intra module refs:   LL_AdvReportCback
                                                   hciInitEventMasks
           ENTRY                   ADDRESS         REF BY
           =====                   =======         ======
           pHciEvtMask             000002A7 
    -------------------------------------------------------------------------
<BANKED_CODE,CODE_C> 1 (was BANKED_CODE)
  Relative segment, address: CODE 00003BC5 - 00003BE6 (0x22 bytes), align: 0
  Segment part 8.             Intra module refs:   hciInitEventMasks::?relay
           ENTRY                   ADDRESS         REF BY
           =====                   =======         ======
           hciInitEventMasks       00003BC5 
               ISTACK = 00000000 ( 00000002 )
    -------------------------------------------------------------------------
<BANKED_CODE,CODE_C> 1 (was BANKED_CODE)
  Relative segment, address: CODE 00003BE7 - 00003BED (0x7 bytes), align: 0
  Segment part 10.            Intra module refs:   hciInitEventMasks
    -------------------------------------------------------------------------
<BANKED_CODE,CODE_C> 1 (was BANKED_CODE)
  Relative segment, address: CODE 00003BEE - 00003BF2 (0x5 bytes), align: 0
  Segment part 13.            Intra module refs:   HCI_VendorSpecifcCommandCompleteEvent
    -------------------------------------------------------------------------
<BANKED_CODE,CODE_C> 1 (was BANKED_CODE)
  Relative segment, address: CODE 00003BF3 - 00003BF7 (0x5 bytes), align: 0
  Segment part 16.            Intra module refs:   HCI_CommandCompleteEvent
    -------------------------------------------------------------------------
<BANKED_CODE,CODE_C> 1 (was BANKED_CODE)
  Relative segment, address: CODE 00003BF8 - 00003CD7 (0xe0 bytes), align: 0
  Segment part 22.            Intra module refs:   HCI_CommandCompleteEvent::?relay
           ENTRY                   ADDRESS         REF BY
           =====                   =======         ======
           HCI_CommandCompleteEvent
                                   00003BF8 
               calls direct
               XSTACK = 00000003 ( 00000014 )
               ISTACK = 00000000 ( 00000001 )
    -------------------------------------------------------------------------
<BANKED_CODE,CODE_C> 1 (was BANKED_CODE)
  Relative segment, address: CODE 00003CD8 - 00003CF6 (0x1f bytes), align: 0
  Segment part 24.            Intra module refs:   HCI_VendorSpecifcCommandCompleteEvent::?relay
           ENTRY                   ADDRESS         REF BY
           =====                   =======         ======
           HCI_VendorSpecifcCommandCompleteEvent
                                   00003CD8 
               calls direct
               XSTACK = 00000000 ( 0000000C )
    -------------------------------------------------------------------------
<BANKED_CODE,CODE_C> 1 (was BANKED_CODE)
  Relative segment, address: CODE 00003CF7 - 00003CFC (0x6 bytes), align: 0
  Segment part 35.            Intra module refs:   HCI_CommandCompleteEvent
                                                   HCI_SendCommandCompleteEvent
    -------------------------------------------------------------------------
<BANKED_CODE,CODE_C> 1 (was BANKED_CODE)
  Relative segment, address: CODE 00003CFD - 00003E1E (0x122 bytes), align: 0
  Segment part 36.            Intra module refs:   HCI_SendCommandCompleteEvent::?relay
           ENTRY                   ADDRESS         REF BY
           =====                   =======         ======
           HCI_SendCommandCompleteEvent
                                   00003CFD 
               calls direct
               XSTACK = 00000014 ( 00000010 )
               ISTACK = 00000000 ( 00000001 )
    -------------------------------------------------------------------------
<BANKED_CODE,CODE_C> 1 (was BANKED_CODE)
  Relative segment, address: CODE 00003E1F - 00003E23 (0x5 bytes), align: 0
  Segment part 38.            Intra module refs:   HCI_SendCommandCompleteEvent
    -------------------------------------------------------------------------
<BANKED_CODE,CODE_C> 1 (was BANKED_CODE)
  Relative segment, address: CODE 00003E24 - 00003E27 (0x4 bytes), align: 0
  Segment part 39.            Intra module refs:   HCI_SendCommandCompleteEvent
    -------------------------------------------------------------------------
<BANKED_CODE,CODE_C> 1 (was BANKED_CODE)
  Relative segment, address: CODE 00003E28 - 00003E2C (0x5 bytes), align: 0
  Segment part 40.            Intra module refs:   Segment part 39
                                                   Segment part 42
    -------------------------------------------------------------------------
<BANKED_CODE,CODE_C> 1 (was BANKED_CODE)
  Relative segment, address: CODE 00003E2D - 00003E37 (0xb bytes), align: 0
  Segment part 41.            Intra module refs:   Segment part 40
    -------------------------------------------------------------------------
<BANKED_CODE,CODE_C> 1 (was BANKED_CODE)
  Relative segment, address: CODE 00003E38 - 00003E3C (0x5 bytes), align: 0
  Segment part 42.            Intra module refs:   HCI_SendCommandCompleteEvent
    -------------------------------------------------------------------------
<BANKED_CODE,CODE_C> 1 (was BANKED_CODE)
  Relative segment, address: CODE 00003E3D - 00003E3F (0x3 bytes), align: 0
  Segment part 43.            Intra module refs:   HCI_SendCommandCompleteEvent
    -------------------------------------------------------------------------
<BANKED_CODE,CODE_C> 1 (was BANKED_CODE)
  Relative segment, address: CODE 00003E40 - 00003E46 (0x7 bytes), align: 0
  Segment part 44.            Intra module refs:   Segment part 43
    -------------------------------------------------------------------------
<BANKED_CODE,CODE_C> 1 (was BANKED_CODE)
  Relative segment, address: CODE 00003E47 - 00003E4B (0x5 bytes), align: 0
  Segment part 45.            Intra module refs:   HCI_SendCommandCompleteEvent
    -------------------------------------------------------------------------
<BANKED_CODE,CODE_C> 1 (was BANKED_CODE)
  Relative segment, address: CODE 00003E4C - 00003E52 (0x7 bytes), align: 0
  Segment part 46.            Intra module refs:   HCI_SendCommandCompleteEvent
    -------------------------------------------------------------------------
<BANKED_CODE,CODE_C> 1 (was BANKED_CODE)
  Relative segment, address: CODE 00003E53 - 00003E56 (0x4 bytes), align: 0
  Segment part 49.            Intra module refs:   HCI_SendCommandCompleteEvent
    -------------------------------------------------------------------------
<BANKED_CODE,CODE_C> 1 (was BANKED_CODE)
  Relative segment, address: CODE 00003E57 - 00003E5C (0x6 bytes), align: 0
  Segment part 50.            Intra module refs:   Segment part 49
                                                   Segment part 77
    -------------------------------------------------------------------------
<BANKED_CODE,CODE_C> 1 (was BANKED_CODE)
  Relative segment, address: CODE 00003E5D - 00003E6C (0x10 bytes), align: 0
  Segment part 51.            Intra module refs:   HCI_SendCommandCompleteEvent
    -------------------------------------------------------------------------
<BANKED_CODE,CODE_C> 1 (was BANKED_CODE)
  Relative segment, address: CODE 00003E6D - 00003E78 (0xc bytes), align: 0
  Segment part 52.            Intra module refs:   HCI_CommandCompleteEvent
                                                   Segment part 51
    -------------------------------------------------------------------------
<BANKED_CODE,CODE_C> 1 (was BANKED_CODE)
  Relative segment, address: CODE 00003E79 - 00003E7C (0x4 bytes), align: 0
  Segment part 53.            Intra module refs:   Segment part 45
                                                   Segment part 51
    -------------------------------------------------------------------------
<BANKED_CODE,CODE_C> 1 (was BANKED_CODE)
  Relative segment, address: CODE 00003E7D - 00003E85 (0x9 bytes), align: 0
  Segment part 54.            Intra module refs:   Segment part 53
                                                   Segment part 55
    -------------------------------------------------------------------------
<BANKED_CODE,CODE_C> 1 (was BANKED_CODE)
  Relative segment, address: CODE 00003E86 - 00003E8E (0x9 bytes), align: 0
  Segment part 55.            Intra module refs:   Segment part 46
                                                   Segment part 51
    -------------------------------------------------------------------------
<BANKED_CODE,CODE_C> 1 (was BANKED_CODE)
  Relative segment, address: CODE 00003E8F - 00004094 (0x206 bytes), align: 0
  Segment part 56.            Intra module refs:   LL_AdvReportCback::?relay
           ENTRY                   ADDRESS         REF BY
           =====                   =======         ======
           LL_AdvReportCback       00003E8F 
               calls direct
               XSTACK = 00000003 ( 0000001A )
               ISTACK = 00000000 ( 00000001 )
    -------------------------------------------------------------------------
<BANKED_CODE,CODE_C> 1 (was BANKED_CODE)
  Relative segment, address: CODE 00004095 - 00004099 (0x5 bytes), align: 0
  Segment part 58.            Intra module refs:   LL_AdvReportCback
    -------------------------------------------------------------------------
<BANKED_CODE,CODE_C> 1 (was BANKED_CODE)
  Relative segment, address: CODE 0000409A - 000040A0 (0x7 bytes), align: 0
  Segment part 59.            Intra module refs:   LL_AdvReportCback
    -------------------------------------------------------------------------
<BANKED_CODE,CODE_C> 1 (was BANKED_CODE)
  Relative segment, address: CODE 000040A1 - 000040A8 (0x8 bytes), align: 0
  Segment part 60.            Intra module refs:   LL_AdvReportCback
                                                   Segment part 59
                                                   Segment part 64
    -------------------------------------------------------------------------
<BANKED_CODE,CODE_C> 1 (was BANKED_CODE)
  Relative segment, address: CODE 000040A9 - 000040AC (0x4 bytes), align: 0
  Segment part 61.            Intra module refs:   Segment part 59
    -------------------------------------------------------------------------
<BANKED_CODE,CODE_C> 1 (was BANKED_CODE)
  Relative segment, address: CODE 000040AD - 000040B4 (0x8 bytes), align: 0
  Segment part 62.            Intra module refs:   Segment part 61
                                                   Segment part 64
    -------------------------------------------------------------------------
<BANKED_CODE,CODE_C> 1 (was BANKED_CODE)
  Relative segment, address: CODE 000040B5 - 000040B8 (0x4 bytes), align: 0
  Segment part 63.            Intra module refs:   LL_AdvReportCback
    -------------------------------------------------------------------------
<BANKED_CODE,CODE_C> 1 (was BANKED_CODE)
  Relative segment, address: CODE 000040B9 - 000040C1 (0x9 bytes), align: 0
  Segment part 64.            Intra module refs:   Segment part 63
                                                   Segment part 65
    -------------------------------------------------------------------------
<BANKED_CODE,CODE_C> 1 (was BANKED_CODE)
  Relative segment, address: CODE 000040C2 - 000040C7 (0x6 bytes), align: 0
  Segment part 65.            Intra module refs:   LL_AdvReportCback
    -------------------------------------------------------------------------
<BANKED_CODE,CODE_C> 1 (was BANKED_CODE)
  Relative segment, address: CODE 000040C8 - 000040CD (0x6 bytes), align: 0
  Segment part 68.            Intra module refs:   HCI_SendCommandCompleteEvent
                                                   LL_AdvReportCback
    -------------------------------------------------------------------------
<BANKED_CODE,CODE_C> 1 (was BANKED_CODE)
  Relative segment, address: CODE 000040CE - 000040D6 (0x9 bytes), align: 0
  Segment part 69.            Intra module refs:   LL_AdvReportCback
    -------------------------------------------------------------------------
<BANKED_CODE,CODE_C> 1 (was BANKED_CODE)
  Relative segment, address: CODE 000040D7 - 000040E0 (0xa bytes), align: 0
  Segment part 75.            Intra module refs:   LL_AdvReportCback
    -------------------------------------------------------------------------
<BANKED_CODE,CODE_C> 1 (was BANKED_CODE)
  Relative segment, address: CODE 000040E1 - 000040E4 (0x4 bytes), align: 0
  Segment part 76.            Intra module refs:   Segment part 75
    -------------------------------------------------------------------------
<BANKED_CODE,CODE_C> 1 (was BANKED_CODE)
  Relative segment, address: CODE 000040E5 - 000040EA (0x6 bytes), align: 0
  Segment part 77.            Intra module refs:   Segment part 76
    -------------------------------------------------------------------------
<BANKED_CODE,CODE_C> 1 (was BANKED_CODE)
  Relative segment, address: CODE 000040EB - 000040EE (0x4 bytes), align: 0
  Segment part 78.            Intra module refs:   LL_AdvReportCback
    -------------------------------------------------------------------------
<BANKED_CODE,CODE_C> 1 (was BANKED_CODE)
  Relative segment, address: CODE 000040EF - 000040FD (0xf bytes), align: 0
  Segment part 79.            Intra module refs:   Segment part 78
    -------------------------------------------------------------------------
<BANKED_CODE,CODE_C> 1 (was BANKED_CODE)
  Relative segment, address: CODE 000040FE - 00004102 (0x5 bytes), align: 0
  Segment part 83.            Intra module refs:   LL_AdvReportCback
                                                   Segment part 109
                                                   Segment part 54
                                                   Segment part 62
    -------------------------------------------------------------------------
<BANKED_CODE,CODE_C> 1 (was BANKED_CODE)
  Relative segment, address: CODE 00004103 - 00004107 (0x5 bytes), align: 0
  Segment part 101.           Intra module refs:   LL_AdvReportCback
    -------------------------------------------------------------------------
<BANKED_CODE,CODE_C> 1 (was BANKED_CODE)
  Relative segment, address: CODE 00004108 - 00004109 (0x2 bytes), align: 0
  Segment part 102.           Intra module refs:   HCI_CommandCompleteEvent
                                                   Segment part 101
    -------------------------------------------------------------------------
<BANKED_CODE,CODE_C> 1 (was BANKED_CODE)
  Relative segment, address: CODE 0000410A - 0000410A (0x1 bytes), align: 0
  Segment part 103.           Intra module refs:   Segment part 102
    -------------------------------------------------------------------------
<BANKED_CODE,CODE_C> 1 (was BANKED_CODE)
  Relative segment, address: CODE 0000410B - 0000410C (0x2 bytes), align: 0
  Segment part 104.           Intra module refs:   Segment part 103
    -------------------------------------------------------------------------
<BANKED_CODE,CODE_C> 1 (was BANKED_CODE)
  Relative segment, address: CODE 0000410D - 00004112 (0x6 bytes), align: 0
  Segment part 105.           Intra module refs:   Segment part 104
    -------------------------------------------------------------------------
<BANKED_CODE,CODE_C> 1 (was BANKED_CODE)
  Relative segment, address: CODE 00004113 - 00004117 (0x5 bytes), align: 0
  Segment part 109.           Intra module refs:   LL_AdvReportCback
    -------------------------------------------------------------------------
<BANKED_CODE,CODE_C> 1 (was BANKED_CODE)
  Relative segment, address: CODE 00004118 - 00004119 (0x2 bytes), align: 0
  Segment part 110.           Intra module refs:   HCI_SendCommandCompleteEvent
    -------------------------------------------------------------------------
<BANKED_CODE,CODE_C> 1 (was BANKED_CODE)
  Relative segment, address: CODE 0000411A - 0000411C (0x3 bytes), align: 0
  Segment part 111.           Intra module refs:   LL_AdvReportCback
                                                   Segment part 110
    -------------------------------------------------------------------------
<BANKED_CODE,CODE_C> 1 (was BANKED_CODE)
  Relative segment, address: CODE 0000411D - 00004121 (0x5 bytes), align: 0
  Segment part 112.           Intra module refs:   LL_AdvReportCback
                                                   Segment part 111
    -------------------------------------------------------------------------
BANK_RELAYS
  Relative segment, address: CODE 00000293 - 00000298 (0x6 bytes), align: 0
  Segment part 9.
           ENTRY                   ADDRESS         REF BY
           =====                   =======         ======
           hciInitEventMasks::?relay
                                   00000293        HCI_Init (hci_tl)
    -------------------------------------------------------------------------
BANK_RELAYS
  Relative segment, address: CODE 00000299 - 0000029E (0x6 bytes), align: 0
  Segment part 23.
           ENTRY                   ADDRESS         REF BY
           =====                   =======         ======
           HCI_CommandCompleteEvent::?relay
                                   00000299        HCI_LE_ReadBufSizeCmd (hci)
                                                   HCI_ReadBDADDRCmd (hci)
                                                   LL_RandCback (hci)
                                                   Segment part 91 (hci)
    -------------------------------------------------------------------------
BANK_RELAYS
  Relative segment, address: CODE 0000029F - 000002A4 (0x6 bytes), align: 0
  Segment part 25.
           ENTRY                   ADDRESS         REF BY
           =====                   =======         ======
           HCI_VendorSpecifcCommandCompleteEvent::?relay
                                   0000029F        Segment part 140 (hci)
    -------------------------------------------------------------------------
BANK_RELAYS
  Relative segment, address: CODE 000002A5 - 000002AA (0x6 bytes), align: 0
  Segment part 37.            Intra module refs:   HCI_CommandCompleteEvent
                                                   HCI_VendorSpecifcCommandCompleteEvent
           ENTRY                   ADDRESS         REF BY
           =====                   =======         ======
           HCI_SendCommandCompleteEvent::?relay
                                   000002A5 
    -------------------------------------------------------------------------
BANK_RELAYS
  Relative segment, address: CODE 000002AB - 000002B0 (0x6 bytes), align: 0
  Segment part 57.
           ENTRY                   ADDRESS         REF BY
           =====                   =======         ======
           LL_AdvReportCback::?relay
                                   000002AB        llProcessScanRxFIFO (ll_scanEndCauses)

    -------------------------------------------------------------------------
  LIBRARY MODULE, NAME : ll

  SEGMENTS IN THE MODULE
  ======================
SFR_AN
  Relative segment, address: DATA 0000008D - 0000008D (0x1 bytes), align: 0
  Segment part 1. ROOT.
           ENTRY                   ADDRESS         REF BY
           =====                   =======         ======
           P1IEN                   0000008D 
    -------------------------------------------------------------------------
SFR_AN
  Relative segment, address: DATA 000000AE - 000000AE (0x1 bytes), align: 0
  Segment part 6. ROOT.
           ENTRY                   ADDRESS         REF BY
           =====                   =======         ======
           PMUX                    000000AE 
    -------------------------------------------------------------------------
SFR_AN
  Relative segment, address: DATA 000000C9 - 000000C9 (0x1 bytes), align: 0
  Segment part 8. ROOT.       Intra module refs:   LL_ProcessEvent
           ENTRY                   ADDRESS         REF BY
           =====                   =======         ======
           WDCTL                   000000C9 
    -------------------------------------------------------------------------
SFR_AN
  Relative segment, address: DATA 000000F2 - 000000F2 (0x1 bytes), align: 0
  Segment part 9. ROOT.
           ENTRY                   ADDRESS         REF BY
           =====                   =======         ======
           APCFG                   000000F2 
    -------------------------------------------------------------------------
SFR_AN
  Relative segment, address: DATA 000000D9 - 000000D9 (0x1 bytes), align: 0
  Segment part 17. ROOT.      Intra module refs:   llGetAdvChanPDU (ll_scanEndCauses)
                                                   llSetupScan (ll_common)
           ENTRY                   ADDRESS         REF BY
           =====                   =======         ======
           RFD                     000000D9 
    -------------------------------------------------------------------------
SFR_AN
  Relative segment, address: DATA 000000E1 - 000000E1 (0x1 bytes), align: 0
  Segment part 18. ROOT.      Intra module refs:   LL_ENC_GenerateTrueRandNum (ll_enc)
                                                   LL_PowerOnReq (ll_sleep)
                                                   LL_Reset
                                                   LL_SetScanControl
                                                   PHY_DeallocateRxFifo (phy)
                                                   llProcessScanRxFIFO (ll_scanEndCauses)
                                                   llScanEvt_TaskAbort (ll_scanEndCauses)
                                                   llScheduleTask (ll_scheduler)
                                                   llSetupScan (ll_common)
           ENTRY                   ADDRESS         REF BY
           =====                   =======         ======
           RFST                    000000E1 
    -------------------------------------------------------------------------
XDATA_Z
  Relative segment, address: XDATA 000002AF - 000002B4 (0x6 bytes), align: 0
  Segment part 24.            Intra module refs:   LL_Init
                                                   LL_ReadBDADDR
                                                   LL_SetScanParam
                                                   Segment part 161
           ENTRY                   ADDRESS         REF BY
           =====                   =======         ======
           ownPublicAddr           000002AF 
    -------------------------------------------------------------------------
XDATA_Z
  Relative segment, address: XDATA 000002B5 - 000002BA (0x6 bytes), align: 0
  Segment part 25.            Intra module refs:   LL_Init
                                                   LL_SetScanParam
           ENTRY                   ADDRESS         REF BY
           =====                   =======         ======
           ownRandomAddr           000002B5 
    -------------------------------------------------------------------------
XDATA_Z
  Relative segment, address: XDATA 000002BB - 000002C0 (0x6 bytes), align: 0
  Segment part 26.            Intra module refs:   Segment part 161
           ENTRY                   ADDRESS         REF BY
           =====                   =======         ======
           ownSavedPublicAddr      000002BB 
    -------------------------------------------------------------------------
XDATA_Z
  Relative segment, address: XDATA 000002C1 - 000002C1 (0x1 bytes), align: 0
  Segment part 27.            Intra module refs:   LL_Init
                                                   LL_ProcessEvent
                                                   LL_SetScanControl
           ENTRY                   ADDRESS         REF BY
           =====                   =======         ======
           LL_TaskID               000002C1        LL_PowerOnReq (ll_sleep)
                                                   RF_NormalIsr (ll_isr)
                                                   llScheduleTask (ll_scheduler)
                                                   llT2OVFC1_ISR (ll_isr)
    -------------------------------------------------------------------------
XDATA_Z
  Relative segment, address: XDATA 000002C2 - 000002C2 (0x1 bytes), align: 0
  Segment part 28.            Intra module refs:   LL_Reset
                                                   LL_SetScanControl
           ENTRY                   ADDRESS         REF BY
           =====                   =======         ======
           llState                 000002C2        LL_TimeToNextRfEvent (ll_sleep)
                                                   RF_NormalIsr (ll_isr)
                                                   llFreeTask (ll_scheduler)
                                                   llSetupScan (ll_common)
                                                   llT2OVFC1_ISR (ll_isr)
    -------------------------------------------------------------------------
XDATA_Z
  Relative segment, address: XDATA 000002C3 - 000002C3 (0x1 bytes), align: 0
  Segment part 29.            Intra module refs:   LL_ProcessEvent
           ENTRY                   ADDRESS         REF BY
           =====                   =======         ======
           taskEndCause            000002C3        RF_NormalIsr (ll_isr)
                                                   llScanEvt_TaskEndOk (ll_scanEndCauses)
    -------------------------------------------------------------------------
XDATA_Z
  Relative segment, address: XDATA 000002C4 - 000002C5 (0x2 bytes), align: 0
  Segment part 30.            Intra module refs:   LL_Reset
           ENTRY                   ADDRESS         REF BY
           =====                   =======         ======
           postRfOperations        000002C4        llProcessPostRfOps (ll_common)
    -------------------------------------------------------------------------
XDATA_Z
  Relative segment, address: XDATA 000002C6 - 000002C6 (0x1 bytes), align: 0
  Segment part 31.
           ENTRY                   ADDRESS         REF BY
           =====                   =======         ======
           rssiCorrection          000002C6        llGetAdvChanPDU (ll_scanEndCauses)
                                                   llSetRxGain (ll_common)
    -------------------------------------------------------------------------
XDATA_Z
  Relative segment, address: XDATA 000002C7 - 000002C7 (0x1 bytes), align: 0
  Segment part 32.            Intra module refs:   LL_Reset
           ENTRY                   ADDRESS         REF BY
           =====                   =======         ======
           clkDivOnHalt            000002C7        llT2OVFC1_ISR (ll_isr)
    -------------------------------------------------------------------------
XDATA_Z
  Relative segment, address: XDATA 000002C8 - 000002C8 (0x1 bytes), align: 0
  Segment part 33.            Intra module refs:   LL_ProcessEvent
                                                   LL_Reset
                                                   LL_SetScanControl
           ENTRY                   ADDRESS         REF BY
           =====                   =======         ======
           nvInUse                 000002C8        llScheduleTask (ll_scheduler)
                                                   llT2OVFC1_ISR (ll_isr)
    -------------------------------------------------------------------------
XDATA_Z
  Relative segment, address: XDATA 000002C9 - 000002D1 (0x9 bytes), align: 0
  Segment part 35.
           ENTRY                   ADDRESS         REF BY
           =====                   =======         ======
           deviceFeatureSet        000002C9        llInitFeatureSet (ll_common)
    -------------------------------------------------------------------------
XDATA_Z
  Relative segment, address: XDATA 000002D2 - 000002D2 (0x1 bytes), align: 0
  Segment part 36.            Intra module refs:   LL_Reset
           ENTRY                   ADDRESS         REF BY
           =====                   =======         ======
           maxTxPwrForDTM          000002D2 
    -------------------------------------------------------------------------
XDATA_Z
  Relative segment, address: XDATA 000002D3 - 000002D7 (0x5 bytes), align: 0
  Segment part 37.            Intra module refs:   LL_Init
           ENTRY                   ADDRESS         REF BY
           =====                   =======         ======
           verInfo                 000002D3 
    -------------------------------------------------------------------------
XDATA_Z
  Relative segment, address: XDATA 000002D8 - 000002D9 (0x2 bytes), align: 0
  Segment part 39.            Intra module refs:   LL_Init
           ENTRY                   ADDRESS         REF BY
           =====                   =======         ======
           buildInfo               000002D8 
    -------------------------------------------------------------------------
XDATA_Z
  Relative segment, address: XDATA 000002DA - 000002F0 (0x17 bytes), align: 0
  Segment part 40.            Intra module refs:   LL_Init
                                                   LL_Reset
                                                   LL_SetScanControl
                                                   LL_SetScanParam
                                                   Segment part 126
           ENTRY                   ADDRESS         REF BY
           =====                   =======         ======
           scanInfo                000002DA        Segment part 23 (ll_scheduler)
                                                   Segment part 32 (ll_scheduler)
                                                   Segment part 33 (ll_scanEndCauses)
                                                   Segment part 88 (ll_common)
                                                   llGenerateNextBackoffCount (ll_scanEndCauses)
                                                   llProcessScanRxFIFO (ll_scanEndCauses)
                                                   llScanEvt_TaskAbort (ll_scanEndCauses)
                                                   llScanEvt_TaskRxTimeout (ll_scanEndCauses)
                                                   llScheduler (ll_scheduler)
                                                   llSetupScan (ll_common)
                                                   llSetupScanInit (ll_common)
                                                   llStartScanSetup (ll_common)
    -------------------------------------------------------------------------
XDATA_Z
  Relative segment, address: XDATA 000002F1 - 000002F2 (0x2 bytes), align: 0
  Segment part 41.            Intra module refs:   LL_Init
           ENTRY                   ADDRESS         REF BY
           =====                   =======         ======
           dcdcData                000002F1        LL_PowerOffReq (ll_sleep)
                                                   LL_PowerOnReq (ll_sleep)
    -------------------------------------------------------------------------
XDATA_Z
  Relative segment, address: XDATA 000002F3 - 000002F3 (0x1 bytes), align: 0
  Segment part 42.            Intra module refs:   LL_Init
           ENTRY                   ADDRESS         REF BY
           =====                   =======         ======
           extendRfRange           000002F3        LL_PowerOffReq (ll_sleep)
                                                   LL_PowerOnReq (ll_sleep)
                                                   llExtendRfRange (ll_common)
                                                   llSetRxGain (ll_common)
                                                   llSetTxPower (ll_common)
    -------------------------------------------------------------------------
XDATA_Z
  Relative segment, address: XDATA 000002F4 - 000002F4 (0x1 bytes), align: 0
  Segment part 43.            Intra module refs:   LL_Reset
           ENTRY                   ADDRESS         REF BY
           =====                   =======         ======
           rxFifoFlowCtrl          000002F4 
    -------------------------------------------------------------------------
XDATA_Z
  Relative segment, address: XDATA 000002F5 - 000002F5 (0x1 bytes), align: 0
  Segment part 44.            Intra module refs:   LL_Init
           ENTRY                   ADDRESS         REF BY
           =====                   =======         ======
           haltDuringRf            000002F5        llScheduleTask (ll_scheduler)
                                                   llT2OVFC1_ISR (ll_isr)
    -------------------------------------------------------------------------
XDATA_Z
  Relative segment, address: XDATA 000002F6 - 000002F7 (0x2 bytes), align: 0
  Segment part 45.            Intra module refs:   LL_Init
                                                   LL_ProcessEvent
           ENTRY                   ADDRESS         REF BY
           =====                   =======         ======
           sleepDelay              000002F6 
    -------------------------------------------------------------------------
XDATA_I
  Relative segment, address: XDATA 000004D7 - 000004E4 (0xe bytes), align: 0
  Segment part 46.            Intra module refs:   LL_ProcessEvent
           ENTRY                   ADDRESS         REF BY
           =====                   =======         ======
           taskEndCauses           000004D7        llSetupScan (ll_common)
    -------------------------------------------------------------------------
XDATA_I
  Relative segment, address: XDATA 000004E5 - 000004F0 (0xc bytes), align: 0
  Segment part 48.            Intra module refs:   LL_ProcessEvent
           ENTRY                   ADDRESS         REF BY
           =====                   =======         ======
           taskErrorEndCauses      000004E5        Segment part 100 (ll_common)
    -------------------------------------------------------------------------
XDATA_Z
  Relative segment, address: XDATA 000002F8 - 000002F8 (0x1 bytes), align: 0
  Segment part 51.            Intra module refs:   LL_Init
           ENTRY                   ADDRESS         REF BY
           =====                   =======         ======
           trngCounter             000002F8        RF_NormalIsr (ll_isr)
                                                   llScanEvt_TaskEndOk (ll_scanEndCauses)
    -------------------------------------------------------------------------
IDATA_Z
  Relative segment, address: IDATA 0000001D - 0000001E (0x2 bytes), align: 0
  Segment part 52. ROOT.      Intra module refs:   LL_Init
           ENTRY                   ADDRESS         REF BY
           =====                   =======         ======
           myPC                    0000001D        RF_NormalIsr (ll_isr)
                                                   llScanEvt_TaskEndOk (ll_scanEndCauses)
    -------------------------------------------------------------------------
<BANKED_CODE,CODE_C> 1 (was BANKED_CODE)
  Relative segment, address: CODE 00001DA1 - 00001F27 (0x187 bytes), align: 0
  Segment part 60.            Intra module refs:   LL_Init::?relay
           ENTRY                   ADDRESS         REF BY
           =====                   =======         ======
           LL_Init                 00001DA1 
               calls direct
               XSTACK = 00000000 ( 0000000E )
               ISTACK = 00000000 ( 00000001 )
    -------------------------------------------------------------------------
<BANKED_CODE,CODE_C> 1 (was BANKED_CODE)
  Relative segment, address: CODE 00001F28 - 00001F30 (0x9 bytes), align: 0
  Segment part 62.            Intra module refs:   LL_Init
    -------------------------------------------------------------------------
<BANKED_CODE,CODE_C> 1 (was BANKED_CODE)
  Relative segment, address: CODE 00001F31 - 00001F39 (0x9 bytes), align: 0
  Segment part 63.            Intra module refs:   LL_Init
    -------------------------------------------------------------------------
<BANKED_CODE,CODE_C> 1 (was BANKED_CODE)
  Relative segment, address: CODE 00001F3A - 00002007 (0xce bytes), align: 0
  Segment part 64.            Intra module refs:   LL_ProcessEvent::?relay
           ENTRY                   ADDRESS         REF BY
           =====                   =======         ======
           LL_ProcessEvent         00001F3A 
               calls direct
               XSTACK = 00000000 ( 00000010 )
    -------------------------------------------------------------------------
<BANKED_CODE,CODE_C> 1 (was BANKED_CODE)
  Relative segment, address: CODE 00002008 - 0000208D (0x86 bytes), align: 0
  Segment part 70.            Intra module refs:   LL_Reset::?relay
           ENTRY                   ADDRESS         REF BY
           =====                   =======         ======
           LL_Reset                00002008 
               calls direct
               XSTACK = 0000000C ( 00000000 )
               ISTACK = 00000000 ( 00000002 )
    -------------------------------------------------------------------------
<BANKED_CODE,CODE_C> 1 (was BANKED_CODE)
  Relative segment, address: CODE 0000208E - 000020C0 (0x33 bytes), align: 0
  Segment part 72.            Intra module refs:   LL_ReadBDADDR::?relay
           ENTRY                   ADDRESS         REF BY
           =====                   =======         ======
           LL_ReadBDADDR           0000208E 
               ISTACK = 00000000 ( 00000003 )
    -------------------------------------------------------------------------
<BANKED_CODE,CODE_C> 1 (was BANKED_CODE)
  Relative segment, address: CODE 000020C1 - 000020C5 (0x5 bytes), align: 0
  Segment part 74.            Intra module refs:   LL_ReadBDADDR
    -------------------------------------------------------------------------
<BANKED_CODE,CODE_C> 1 (was BANKED_CODE)
  Relative segment, address: CODE 000020C6 - 000020CD (0x8 bytes), align: 0
  Segment part 75.            Intra module refs:   LL_ReadBDADDR
    -------------------------------------------------------------------------
<BANKED_CODE,CODE_C> 1 (was BANKED_CODE)
  Relative segment, address: CODE 000020CE - 000020D3 (0x6 bytes), align: 0
  Segment part 76.            Intra module refs:   LL_ReadBDADDR
                                                   Segment part 74
                                                   Segment part 75
    -------------------------------------------------------------------------
<BANKED_CODE,CODE_C> 1 (was BANKED_CODE)
  Relative segment, address: CODE 000020D4 - 000020D6 (0x3 bytes), align: 0
  Segment part 83.            Intra module refs:   LL_ReadBDADDR
    -------------------------------------------------------------------------
<BANKED_CODE,CODE_C> 1 (was BANKED_CODE)
  Relative segment, address: CODE 000020D7 - 000020DD (0x7 bytes), align: 0
  Segment part 84.            Intra module refs:   LL_Reset
                                                   Segment part 83
    -------------------------------------------------------------------------
<BANKED_CODE,CODE_C> 1 (was BANKED_CODE)
  Relative segment, address: CODE 000020DE - 000020E2 (0x5 bytes), align: 0
  Segment part 97.            Intra module refs:   LL_Init
                                                   LL_ProcessEvent
    -------------------------------------------------------------------------
<BANKED_CODE,CODE_C> 1 (was BANKED_CODE)
  Relative segment, address: CODE 000020E3 - 000020E8 (0x6 bytes), align: 0
  Segment part 112.           Intra module refs:   LL_Init
    -------------------------------------------------------------------------
<BANKED_CODE,CODE_C> 1 (was BANKED_CODE)
  Relative segment, address: CODE 000020E9 - 000020F1 (0x9 bytes), align: 0
  Segment part 114.           Intra module refs:   Segment part 63
    -------------------------------------------------------------------------
<BANKED_CODE,CODE_C> 1 (was BANKED_CODE)
  Relative segment, address: CODE 000020F2 - 000020F6 (0x5 bytes), align: 0
  Segment part 117.           Intra module refs:   LL_SetScanParam
    -------------------------------------------------------------------------
<BANKED_CODE,CODE_C> 1 (was BANKED_CODE)
  Relative segment, address: CODE 000020F7 - 000020FC (0x6 bytes), align: 0
  Segment part 121.           Intra module refs:   LL_SetScanControl
    -------------------------------------------------------------------------
<BANKED_CODE,CODE_C> 1 (was BANKED_CODE)
  Relative segment, address: CODE 000020FD - 000021E2 (0xe6 bytes), align: 0
  Segment part 122.           Intra module refs:   LL_SetScanParam::?relay
           ENTRY                   ADDRESS         REF BY
           =====                   =======         ======
           LL_SetScanParam         000020FD 
               calls direct
               XSTACK = 00000002 ( 00000009 )
    -------------------------------------------------------------------------
<BANKED_CODE,CODE_C> 1 (was BANKED_CODE)
  Relative segment, address: CODE 000021E3 - 000023A6 (0x1c4 bytes), align: 0
  Segment part 124.           Intra module refs:   LL_SetScanControl::?relay
           ENTRY                   ADDRESS         REF BY
           =====                   =======         ======
           LL_SetScanControl       000021E3 
               calls direct
               XSTACK = 00000000 ( 00000010 )
    -------------------------------------------------------------------------
<BANKED_CODE,CODE_C> 1 (was BANKED_CODE)
  Relative segment, address: CODE 000023A7 - 000023A9 (0x3 bytes), align: 0
  Segment part 126.           Intra module refs:   LL_SetScanControl
    -------------------------------------------------------------------------
<BANKED_CODE,CODE_C> 1 (was BANKED_CODE)
  Relative segment, address: CODE 000023AA - 000023AE (0x5 bytes), align: 0
  Segment part 127.           Intra module refs:   LL_ProcessEvent
                                                   LL_SetScanControl
                                                   Segment part 126
                                                   Segment part 130
    -------------------------------------------------------------------------
<BANKED_CODE,CODE_C> 1 (was BANKED_CODE)
  Relative segment, address: CODE 000023AF - 000023B3 (0x5 bytes), align: 0
  Segment part 128.           Intra module refs:   LL_SetScanControl
                                                   LL_SetScanParam
    -------------------------------------------------------------------------
<BANKED_CODE,CODE_C> 1 (was BANKED_CODE)
  Relative segment, address: CODE 000023B4 - 000023BE (0xb bytes), align: 0
  Segment part 129.           Intra module refs:   LL_SetScanParam
                                                   Segment part 128
    -------------------------------------------------------------------------
<BANKED_CODE,CODE_C> 1 (was BANKED_CODE)
  Relative segment, address: CODE 000023BF - 000023C6 (0x8 bytes), align: 0
  Segment part 130.           Intra module refs:   LL_ProcessEvent
                                                   LL_SetScanControl
    -------------------------------------------------------------------------
<BANKED_CODE,CODE_C> 1 (was BANKED_CODE)
  Relative segment, address: CODE 000023C7 - 000023D3 (0xd bytes), align: 0
  Segment part 131.           Intra module refs:   LL_ProcessEvent
                                                   LL_SetScanControl
    -------------------------------------------------------------------------
<BANKED_CODE,CODE_C> 1 (was BANKED_CODE)
  Relative segment, address: CODE 000023D4 - 000023D8 (0x5 bytes), align: 0
  Segment part 136.           Intra module refs:   LL_SetScanControl
    -------------------------------------------------------------------------
<BANKED_CODE,CODE_C> 1 (was BANKED_CODE)
  Relative segment, address: CODE 000023D9 - 000023DB (0x3 bytes), align: 0
  Segment part 152.           Intra module refs:   LL_SetScanControl
    -------------------------------------------------------------------------
<BANKED_CODE,CODE_C> 1 (was BANKED_CODE)
  Relative segment, address: CODE 000023DC - 000023E0 (0x5 bytes), align: 0
  Segment part 153.           Intra module refs:   Segment part 152
    -------------------------------------------------------------------------
<BANKED_CODE,CODE_C> 1 (was BANKED_CODE)
  Relative segment, address: CODE 000023E1 - 00002411 (0x31 bytes), align: 0
  Segment part 161.           Intra module refs:   LL_Init
    -------------------------------------------------------------------------
XDATA_ID
  Relative segment, address: CODE 0000019F - 000001AC (0xe bytes), align: 0
  Segment part 47.            Intra module refs:   taskEndCauses
    -------------------------------------------------------------------------
XDATA_ID
  Relative segment, address: CODE 000001AD - 000001B8 (0xc bytes), align: 0
  Segment part 49.            Intra module refs:   taskErrorEndCauses
    -------------------------------------------------------------------------
<XDATA_ROM_C> 1 (was XDATA_ROM_C)
  Relative segment, address: CONST 00008E61 - 00008E64 (0x4 bytes), align: 0
  Segment part 53.            Intra module refs:   LL_Reset
                                                   llSetupScan (ll_common)
           ENTRY                   ADDRESS         REF BY
           =====                   =======         ======
           __Constant_555555       00008E61 
    -------------------------------------------------------------------------
<XDATA_ROM_C> 1 (was XDATA_ROM_C)
  Relative segment, address: CONST 00008E45 - 00008E48 (0x4 bytes), align: 0
  Segment part 55.            Intra module refs:   LL_SetScanControl
           ENTRY                   ADDRESS         REF BY
           =====                   =======         ======
           __Constant_10           00008E45 
    -------------------------------------------------------------------------
<XDATA_ROM_C> 1 (was XDATA_ROM_C)
  Relative segment, address: CONST 00008E39 - 00008E3C (0x4 bytes), align: 0
  Segment part 56.            Intra module refs:   LL_SetScanControl
                                                   LL_TimeToNextRfEvent (ll_sleep)
                                                   ll24BitTimeCompare (ll_timer2)
                                                   ll24BitTimeDelta (ll_timer2)
                                                   llScheduler (ll_scheduler)
           ENTRY                   ADDRESS         REF BY
           =====                   =======         ======
           __Constant_ffffff       00008E39 
    -------------------------------------------------------------------------
BANK_RELAYS
  Relative segment, address: CODE 000002B1 - 000002B6 (0x6 bytes), align: 0
  Segment part 61.
           ENTRY                   ADDRESS         REF BY
           =====                   =======         ======
           LL_Init::?relay         000002B1        osalInitTasks (OSAL_TPMS_OBD)
    -------------------------------------------------------------------------
BANK_RELAYS
  Relative segment, address: CODE 000002B7 - 000002BC (0x6 bytes), align: 0
  Segment part 65.
           ENTRY                   ADDRESS         REF BY
           =====                   =======         ======
           LL_ProcessEvent::?relay
                                   000002B7        tasksArr (OSAL_TPMS_OBD)
    -------------------------------------------------------------------------
BANK_RELAYS
  Relative segment, address: CODE 000002BD - 000002C2 (0x6 bytes), align: 0
  Segment part 71.            Intra module refs:   LL_Init
           ENTRY                   ADDRESS         REF BY
           =====                   =======         ======
           LL_Reset::?relay        000002BD 
    -------------------------------------------------------------------------
BANK_RELAYS
  Relative segment, address: CODE 000002C3 - 000002C8 (0x6 bytes), align: 0
  Segment part 73.
           ENTRY                   ADDRESS         REF BY
           =====                   =======         ======
           LL_ReadBDADDR::?relay   000002C3        HCI_ReadBDADDRCmd (hci)
    -------------------------------------------------------------------------
BANK_RELAYS
  Relative segment, address: CODE 000002C9 - 000002CE (0x6 bytes), align: 0
  Segment part 123.
           ENTRY                   ADDRESS         REF BY
           =====                   =======         ======
           LL_SetScanParam::?relay
                                   000002C9        HCI_LE_SetScanParamCmd (hci)
    -------------------------------------------------------------------------
BANK_RELAYS
  Relative segment, address: CODE 000002CF - 000002D4 (0x6 bytes), align: 0
  Segment part 125.
           ENTRY                   ADDRESS         REF BY
           =====                   =======         ======
           LL_SetScanControl::?relay
                                   000002CF        HCI_LE_SetScanEnableCmd (hci)
    -------------------------------------------------------------------------
<XDATA_ROM_C_FLASH> 1 (was XDATA_ROM_C_FLASH)
  Relative segment, address: CODE 00008E61 - 00008E64 (0x4 bytes), align: 0
  Segment part 181.           Intra module refs:   __Constant_555555
    -------------------------------------------------------------------------
<XDATA_ROM_C_FLASH> 1 (was XDATA_ROM_C_FLASH)
  Relative segment, address: CODE 00008E45 - 00008E48 (0x4 bytes), align: 0
  Segment part 183.           Intra module refs:   __Constant_10
    -------------------------------------------------------------------------
<XDATA_ROM_C_FLASH> 1 (was XDATA_ROM_C_FLASH)
  Relative segment, address: CODE 00008E39 - 00008E3C (0x4 bytes), align: 0
  Segment part 184.           Intra module refs:   __Constant_ffffff

    -------------------------------------------------------------------------
  LIBRARY MODULE, NAME : ll_common

  SEGMENTS IN THE MODULE
  ======================
SFR_AN
  Relative segment, address: DATA 000000A9 - 000000A9 (0x1 bytes), align: 0
  Segment part 7. ROOT.       Intra module refs:   llClearSetInts
           ENTRY                   ADDRESS         REF BY
           =====                   =======         ======
           IP0                     000000A9 
    -------------------------------------------------------------------------
SFR_AN
  Relative segment, address: DATA 000000AF - 000000AF (0x1 bytes), align: 0
  Segment part 8. ROOT.
           ENTRY                   ADDRESS         REF BY
           =====                   =======         ======
           T1STAT                  000000AF 
    -------------------------------------------------------------------------
SFR_AN
  Relative segment, address: DATA 000000B9 - 000000B9 (0x1 bytes), align: 0
  Segment part 10. ROOT.      Intra module refs:   llClearSetInts
           ENTRY                   ADDRESS         REF BY
           =====                   =======         ======
           IP1                     000000B9 
    -------------------------------------------------------------------------
SFR_AN
  Relative segment, address: DATA 000000DA - 000000DA (0x1 bytes), align: 0
  Segment part 13. ROOT.
           ENTRY                   ADDRESS         REF BY
           =====                   =======         ======
           T1CC0L                  000000DA 
    -------------------------------------------------------------------------
SFR_AN
  Relative segment, address: DATA 000000DB - 000000DB (0x1 bytes), align: 0
  Segment part 14. ROOT.
           ENTRY                   ADDRESS         REF BY
           =====                   =======         ======
           T1CC0H                  000000DB 
    -------------------------------------------------------------------------
SFR_AN
  Relative segment, address: DATA 000000E2 - 000000E2 (0x1 bytes), align: 0
  Segment part 15. ROOT.
           ENTRY                   ADDRESS         REF BY
           =====                   =======         ======
           T1CNTL                  000000E2 
    -------------------------------------------------------------------------
SFR_AN
  Relative segment, address: DATA 000000E3 - 000000E3 (0x1 bytes), align: 0
  Segment part 16. ROOT.
           ENTRY                   ADDRESS         REF BY
           =====                   =======         ======
           T1CNTH                  000000E3 
    -------------------------------------------------------------------------
SFR_AN
  Relative segment, address: DATA 000000E4 - 000000E4 (0x1 bytes), align: 0
  Segment part 17. ROOT.
           ENTRY                   ADDRESS         REF BY
           =====                   =======         ======
           T1CTL                   000000E4 
    -------------------------------------------------------------------------
SFR_AN
  Relative segment, address: DATA 000000E5 - 000000E5 (0x1 bytes), align: 0
  Segment part 18. ROOT.
           ENTRY                   ADDRESS         REF BY
           =====                   =======         ======
           T1CCTL0                 000000E5 
    -------------------------------------------------------------------------
<BANKED_CODE,CODE_C> 1 (was BANKED_CODE)
  Relative segment, address: CODE 0000307B - 000030C3 (0x49 bytes), align: 0
  Segment part 41.            Intra module refs:   llRfInit::?relay
           ENTRY                   ADDRESS         REF BY
           =====                   =======         ======
           llRfInit                0000307B 
               calls direct
               ISTACK = 00000000 ( 00000002 )
    -------------------------------------------------------------------------
<BANKED_CODE,CODE_C> 1 (was BANKED_CODE)
  Relative segment, address: CODE 000030C4 - 000030F0 (0x2d bytes), align: 0
  Segment part 43.            Intra module refs:   llSetFreqTune::?relay
           ENTRY                   ADDRESS         REF BY
           =====                   =======         ======
           llSetFreqTune           000030C4 
               ISTACK = 00000000 ( 00000002 )
    -------------------------------------------------------------------------
<BANKED_CODE,CODE_C> 1 (was BANKED_CODE)
  Relative segment, address: CODE 000030F1 - 00003120 (0x30 bytes), align: 0
  Segment part 45.            Intra module refs:   llClearSetInts::?relay
           ENTRY                   ADDRESS         REF BY
           =====                   =======         ======
           llClearSetInts          000030F1 
               calls direct
               XSTACK = 00000000 ( 00000009 )
    -------------------------------------------------------------------------
<BANKED_CODE,CODE_C> 1 (was BANKED_CODE)
  Relative segment, address: CODE 00003121 - 00003125 (0x5 bytes), align: 0
  Segment part 47.            Intra module refs:   llClearSetInts
    -------------------------------------------------------------------------
<BANKED_CODE,CODE_C> 1 (was BANKED_CODE)
  Relative segment, address: CODE 00003126 - 00003132 (0xd bytes), align: 0
  Segment part 48.            Intra module refs:   llDisableRfInts::?relay
           ENTRY                   ADDRESS         REF BY
           =====                   =======         ======
           llDisableRfInts         00003126 
               XSTACK = 00000009 ( 00000000 )
               ISTACK = 00000000 ( 00000002 )
    -------------------------------------------------------------------------
<BANKED_CODE,CODE_C> 1 (was BANKED_CODE)
  Relative segment, address: CODE 00003133 - 0000313E (0xc bytes), align: 0
  Segment part 50.            Intra module refs:   llClearRfInts::?relay
           ENTRY                   ADDRESS         REF BY
           =====                   =======         ======
           llClearRfInts           00003133 
               XSTACK = 00000009 ( 00000000 )
    -------------------------------------------------------------------------
<BANKED_CODE,CODE_C> 1 (was BANKED_CODE)
  Relative segment, address: CODE 0000313F - 00003150 (0x12 bytes), align: 0
  Segment part 52.            Intra module refs:   llEnableRfInts::?relay
           ENTRY                   ADDRESS         REF BY
           =====                   =======         ======
           llEnableRfInts          0000313F 
               XSTACK = 00000009 ( 00000000 )
               ISTACK = 00000000 ( 00000002 )
    -------------------------------------------------------------------------
<BANKED_CODE,CODE_C> 1 (was BANKED_CODE)
  Relative segment, address: CODE 00003151 - 00003224 (0xd4 bytes), align: 0
  Segment part 54.            Intra module refs:   llProcessPostRfOps::?relay
           ENTRY                   ADDRESS         REF BY
           =====                   =======         ======
           llProcessPostRfOps      00003151 
               calls direct
               XSTACK = 00000000 ( 00000008 )
               ISTACK = 00000000 ( 00000002 )
    -------------------------------------------------------------------------
<BANKED_CODE,CODE_C> 1 (was BANKED_CODE)
  Relative segment, address: CODE 00003225 - 00003281 (0x5d bytes), align: 0
  Segment part 56.            Intra module refs:   llSetRxGain::?relay
           ENTRY                   ADDRESS         REF BY
           =====                   =======         ======
           llSetRxGain             00003225 
               XSTACK = 00000008 ( 00000000 )
               ISTACK = 00000000 ( 00000002 )
    -------------------------------------------------------------------------
<BANKED_CODE,CODE_C> 1 (was BANKED_CODE)
  Relative segment, address: CODE 00003282 - 000032B5 (0x34 bytes), align: 0
  Segment part 58.            Intra module refs:   llSetTxPower::?relay
           ENTRY                   ADDRESS         REF BY
           =====                   =======         ======
           llSetTxPower            00003282 
               XSTACK = 00000008 ( 00000000 )
               ISTACK = 00000000 ( 00000002 )
    -------------------------------------------------------------------------
<BANKED_CODE,CODE_C> 1 (was BANKED_CODE)
  Relative segment, address: CODE 000032B6 - 000032B7 (0x2 bytes), align: 0
  Segment part 62.            Intra module refs:   llDisableRfInts
    -------------------------------------------------------------------------
<BANKED_CODE,CODE_C> 1 (was BANKED_CODE)
  Relative segment, address: CODE 000032B8 - 000032B8 (0x1 bytes), align: 0
  Segment part 63.            Intra module refs:   Segment part 62
                                                   llEnableRfInts
    -------------------------------------------------------------------------
<BANKED_CODE,CODE_C> 1 (was BANKED_CODE)
  Relative segment, address: CODE 000032B9 - 000032BF (0x7 bytes), align: 0
  Segment part 64.            Intra module refs:   Segment part 63
                                                   llExtendRfRange
                                                   llProcessPostRfOps
                                                   llRfInit
                                                   llSetFreqTune
                                                   llSetRxGain
                                                   llSetTxPower
                                                   llSetupScanInit
                                                   llStartScanSetup
    -------------------------------------------------------------------------
<BANKED_CODE,CODE_C> 1 (was BANKED_CODE)
  Relative segment, address: CODE 000032C0 - 000033F3 (0x134 bytes), align: 0
  Segment part 65.            Intra module refs:   llFindTxPowerSettings::?relay
           ENTRY                   ADDRESS         REF BY
           =====                   =======         ======
           llFindTxPowerSettings   000032C0 
               calls direct
               XSTACK = 00000000 ( 00000020 )
               ISTACK = 00000000 ( 00000002 )
    -------------------------------------------------------------------------
<BANKED_CODE,CODE_C> 1 (was BANKED_CODE)
  Relative segment, address: CODE 000033F4 - 00003402 (0xf bytes), align: 0
  Segment part 67.            Intra module refs:   llFindTxPowerSettings
    -------------------------------------------------------------------------
<BANKED_CODE,CODE_C> 1 (was BANKED_CODE)
  Relative segment, address: CODE 00003403 - 0000344F (0x4d bytes), align: 0
  Segment part 68.            Intra module refs:   llExtendRfRange::?relay
           ENTRY                   ADDRESS         REF BY
           =====                   =======         ======
           llExtendRfRange         00003403 
               calls direct
               XSTACK = 00000008 ( 00000000 )
               ISTACK = 00000000 ( 00000002 )
    -------------------------------------------------------------------------
<BANKED_CODE,CODE_C> 1 (was BANKED_CODE)
  Relative segment, address: CODE 00003450 - 00003455 (0x6 bytes), align: 0
  Segment part 78.            Intra module refs:   llSetupScan
    -------------------------------------------------------------------------
<BANKED_CODE,CODE_C> 1 (was BANKED_CODE)
  Relative segment, address: CODE 00003456 - 0000345C (0x7 bytes), align: 0
  Segment part 84.            Intra module refs:   llSetupScan
    -------------------------------------------------------------------------
<BANKED_CODE,CODE_C> 1 (was BANKED_CODE)
  Relative segment, address: CODE 0000345D - 000034A8 (0x4c bytes), align: 0
  Segment part 86.            Intra module refs:   llSetupScanInit::?relay
           ENTRY                   ADDRESS         REF BY
           =====                   =======         ======
           llSetupScanInit         0000345D 
               calls direct
               XSTACK = 00000010 ( 00000000 )
               ISTACK = 00000000 ( 00000002 )
    -------------------------------------------------------------------------
<BANKED_CODE,CODE_C> 1 (was BANKED_CODE)
  Relative segment, address: CODE 000034A9 - 000034AB (0x3 bytes), align: 0
  Segment part 88.            Intra module refs:   llSetupScan
                                                   llSetupScanInit
    -------------------------------------------------------------------------
<BANKED_CODE,CODE_C> 1 (was BANKED_CODE)
  Relative segment, address: CODE 000034AC - 000034B1 (0x6 bytes), align: 0
  Segment part 89.            Intra module refs:   Segment part 108
                                                   Segment part 88
    -------------------------------------------------------------------------
<BANKED_CODE,CODE_C> 1 (was BANKED_CODE)
  Relative segment, address: CODE 000034B2 - 000035A5 (0xf4 bytes), align: 0
  Segment part 90.            Intra module refs:   llSetupScan::?relay
           ENTRY                   ADDRESS         REF BY
           =====                   =======         ======
           llSetupScan             000034B2 
               calls direct
               XSTACK = 00000000 ( 00000010 )
               ISTACK = 00000000 ( 00000002 )
    -------------------------------------------------------------------------
<BANKED_CODE,CODE_C> 1 (was BANKED_CODE)
  Relative segment, address: CODE 000035A6 - 000035B0 (0xb bytes), align: 0
  Segment part 92.            Intra module refs:   llSetupScan
    -------------------------------------------------------------------------
<BANKED_CODE,CODE_C> 1 (was BANKED_CODE)
  Relative segment, address: CODE 000035B1 - 000035B9 (0x9 bytes), align: 0
  Segment part 93.            Intra module refs:   llSetupScan
    -------------------------------------------------------------------------
<BANKED_CODE,CODE_C> 1 (was BANKED_CODE)
  Relative segment, address: CODE 000035BA - 000035BD (0x4 bytes), align: 0
  Segment part 97.            Intra module refs:   llSetupScan
    -------------------------------------------------------------------------
<BANKED_CODE,CODE_C> 1 (was BANKED_CODE)
  Relative segment, address: CODE 000035BE - 000035CE (0x11 bytes), align: 0
  Segment part 98.            Intra module refs:   Segment part 101
                                                   Segment part 97
    -------------------------------------------------------------------------
<BANKED_CODE,CODE_C> 1 (was BANKED_CODE)
  Relative segment, address: CODE 000035CF - 000035D2 (0x4 bytes), align: 0
  Segment part 99.            Intra module refs:   llSetupScan
    -------------------------------------------------------------------------
<BANKED_CODE,CODE_C> 1 (was BANKED_CODE)
  Relative segment, address: CODE 000035D3 - 000035DE (0xc bytes), align: 0
  Segment part 100.           Intra module refs:   Segment part 99
    -------------------------------------------------------------------------
<BANKED_CODE,CODE_C> 1 (was BANKED_CODE)
  Relative segment, address: CODE 000035DF - 000035E9 (0xb bytes), align: 0
  Segment part 101.           Intra module refs:   Segment part 100
    -------------------------------------------------------------------------
<BANKED_CODE,CODE_C> 1 (was BANKED_CODE)
  Relative segment, address: CODE 000035EA - 00003601 (0x18 bytes), align: 0
  Segment part 106.           Intra module refs:   llStartScanSetup::?relay
           ENTRY                   ADDRESS         REF BY
           =====                   =======         ======
           llStartScanSetup        000035EA 
               calls direct, is indirectly called
               ISTACK = 00000000 ( 00000002 )
    -------------------------------------------------------------------------
<BANKED_CODE,CODE_C> 1 (was BANKED_CODE)
  Relative segment, address: CODE 00003602 - 0000360B (0xa bytes), align: 0
  Segment part 108.           Intra module refs:   llStartScanSetup
    -------------------------------------------------------------------------
<BANKED_CODE,CODE_C> 1 (was BANKED_CODE)
  Relative segment, address: CODE 0000360C - 0000360D (0x2 bytes), align: 0
  Segment part 138.           Intra module refs:   llFindTxPowerSettings
    -------------------------------------------------------------------------
<BANKED_CODE,CODE_C> 1 (was BANKED_CODE)
  Relative segment, address: CODE 0000360E - 00003611 (0x4 bytes), align: 0
  Segment part 139.           Intra module refs:   Segment part 138
                                                   llProcessPostRfOps
    -------------------------------------------------------------------------
<BANKED_CODE,CODE_C> 1 (was BANKED_CODE)
  Relative segment, address: CODE 00003612 - 00003617 (0x6 bytes), align: 0
  Segment part 140.           Intra module refs:   Segment part 139
    -------------------------------------------------------------------------
<BANKED_CODE,CODE_C> 1 (was BANKED_CODE)
  Relative segment, address: CODE 00003618 - 0000361B (0x4 bytes), align: 0
  Segment part 145.           Intra module refs:   llFindTxPowerSettings
                                                   llSetupScan
                                                   llSetupScanInit
    -------------------------------------------------------------------------
<BANKED_CODE,CODE_C> 1 (was BANKED_CODE)
  Relative segment, address: CODE 0000361C - 0000361E (0x3 bytes), align: 0
  Segment part 146.           Intra module refs:   Segment part 108
    -------------------------------------------------------------------------
<BANKED_CODE,CODE_C> 1 (was BANKED_CODE)
  Relative segment, address: CODE 0000361F - 00003623 (0x5 bytes), align: 0
  Segment part 147.           Intra module refs:   Segment part 145
                                                   Segment part 146
    -------------------------------------------------------------------------
<BANKED_CODE,CODE_C> 1 (was BANKED_CODE)
  Relative segment, address: CODE 00003624 - 0000362E (0xb bytes), align: 0
  Segment part 151.           Intra module refs:   Segment part 78
    -------------------------------------------------------------------------
<BANKED_CODE,CODE_C> 1 (was BANKED_CODE)
  Relative segment, address: CODE 0000362F - 0000362F (0x1 bytes), align: 0
  Segment part 153.           Intra module refs:   llInitFeatureSet
    -------------------------------------------------------------------------
<BANKED_CODE,CODE_C> 1 (was BANKED_CODE)
  Relative segment, address: CODE 00003630 - 00003634 (0x5 bytes), align: 0
  Segment part 154.           Intra module refs:   Segment part 153
                                                   llSetupScan
    -------------------------------------------------------------------------
<BANKED_CODE,CODE_C> 1 (was BANKED_CODE)
  Relative segment, address: CODE 00003635 - 00003638 (0x4 bytes), align: 0
  Segment part 177.           Intra module refs:   llInitFeatureSet
    -------------------------------------------------------------------------
<BANKED_CODE,CODE_C> 1 (was BANKED_CODE)
  Relative segment, address: CODE 00003639 - 0000363F (0x7 bytes), align: 0
  Segment part 192.           Intra module refs:   Segment part 177
    -------------------------------------------------------------------------
<BANKED_CODE,CODE_C> 1 (was BANKED_CODE)
  Relative segment, address: CODE 00003640 - 00003661 (0x22 bytes), align: 0
  Segment part 201.           Intra module refs:   llInitFeatureSet::?relay
           ENTRY                   ADDRESS         REF BY
           =====                   =======         ======
           llInitFeatureSet        00003640 
               XSTACK = 00000000 ( 0000000A )
    -------------------------------------------------------------------------
<BANKED_CODE,CODE_C> 1 (was BANKED_CODE)
  Relative segment, address: CODE 00003662 - 00003666 (0x5 bytes), align: 0
  Segment part 204.           Intra module refs:   llInitFeatureSet
                                                   llSetupScan
    -------------------------------------------------------------------------
BANK_RELAYS
  Relative segment, address: CODE 000002D5 - 000002DA (0x6 bytes), align: 0
  Segment part 42.
           ENTRY                   ADDRESS         REF BY
           =====                   =======         ======
           llRfInit::?relay        000002D5        LL_ENC_GenerateTrueRandNum (ll_enc)
                                                   LL_Reset (ll)
    -------------------------------------------------------------------------
BANK_RELAYS
  Relative segment, address: CODE 000002DB - 000002E0 (0x6 bytes), align: 0
  Segment part 44.            Intra module refs:   llRfInit
           ENTRY                   ADDRESS         REF BY
           =====                   =======         ======
           llSetFreqTune::?relay   000002DB        LL_PowerOnReq (ll_sleep)
    -------------------------------------------------------------------------
BANK_RELAYS
  Relative segment, address: CODE 000002E1 - 000002E6 (0x6 bytes), align: 0
  Segment part 46.
           ENTRY                   ADDRESS         REF BY
           =====                   =======         ======
           llClearSetInts::?relay
                                   000002E1        LL_Reset (ll)
    -------------------------------------------------------------------------
BANK_RELAYS
  Relative segment, address: CODE 000002E7 - 000002EC (0x6 bytes), align: 0
  Segment part 49.            Intra module refs:   llClearSetInts
           ENTRY                   ADDRESS         REF BY
           =====                   =======         ======
           llDisableRfInts::?relay
                                   000002E7 
    -------------------------------------------------------------------------
BANK_RELAYS
  Relative segment, address: CODE 000002ED - 000002F2 (0x6 bytes), align: 0
  Segment part 51.            Intra module refs:   llClearSetInts
           ENTRY                   ADDRESS         REF BY
           =====                   =======         ======
           llClearRfInts::?relay   000002ED 
    -------------------------------------------------------------------------
BANK_RELAYS
  Relative segment, address: CODE 000002F3 - 000002F8 (0x6 bytes), align: 0
  Segment part 53.            Intra module refs:   llClearSetInts
           ENTRY                   ADDRESS         REF BY
           =====                   =======         ======
           llEnableRfInts::?relay
                                   000002F3 
    -------------------------------------------------------------------------
BANK_RELAYS
  Relative segment, address: CODE 000002F9 - 000002FE (0x6 bytes), align: 0
  Segment part 55.
           ENTRY                   ADDRESS         REF BY
           =====                   =======         ======
           llProcessPostRfOps::?relay
                                   000002F9        RF_NormalIsr (ll_isr)
                                                   llScheduler (ll_scheduler)
    -------------------------------------------------------------------------
BANK_RELAYS
  Relative segment, address: CODE 000002FF - 00000304 (0x6 bytes), align: 0
  Segment part 57.            Intra module refs:   llExtendRfRange
                                                   llProcessPostRfOps
                                                   llRfInit
           ENTRY                   ADDRESS         REF BY
           =====                   =======         ======
           llSetRxGain::?relay     000002FF 
    -------------------------------------------------------------------------
BANK_RELAYS
  Relative segment, address: CODE 00000305 - 0000030A (0x6 bytes), align: 0
  Segment part 59.            Intra module refs:   llProcessPostRfOps
                                                   llRfInit
           ENTRY                   ADDRESS         REF BY
           =====                   =======         ======
           llSetTxPower::?relay    00000305 
    -------------------------------------------------------------------------
BANK_RELAYS
  Relative segment, address: CODE 0000030B - 00000310 (0x6 bytes), align: 0
  Segment part 66.
           ENTRY                   ADDRESS         REF BY
           =====                   =======         ======
           llFindTxPowerSettings::?relay
                                   0000030B        LL_Init (ll)
    -------------------------------------------------------------------------
BANK_RELAYS
  Relative segment, address: CODE 00000311 - 00000316 (0x6 bytes), align: 0
  Segment part 69.            Intra module refs:   llProcessPostRfOps
           ENTRY                   ADDRESS         REF BY
           =====                   =======         ======
           llExtendRfRange::?relay
                                   00000311        LL_PowerOnReq (ll_sleep)
    -------------------------------------------------------------------------
BANK_RELAYS
  Relative segment, address: CODE 00000317 - 0000031C (0x6 bytes), align: 0
  Segment part 87.            Intra module refs:   llSetupScan
           ENTRY                   ADDRESS         REF BY
           =====                   =======         ======
           llSetupScanInit::?relay
                                   00000317 
    -------------------------------------------------------------------------
BANK_RELAYS
  Relative segment, address: CODE 0000031D - 00000322 (0x6 bytes), align: 0
  Segment part 91.
           ENTRY                   ADDRESS         REF BY
           =====                   =======         ======
           llSetupScan::?relay     0000031D        LL_SetScanControl (ll)
                                                   llScheduler (ll_scheduler)
    -------------------------------------------------------------------------
BANK_RELAYS
  Relative segment, address: CODE 00000323 - 00000328 (0x6 bytes), align: 0
  Segment part 107.           Intra module refs:   llSetupScanInit
           ENTRY                   ADDRESS         REF BY
           =====                   =======         ======
           llStartScanSetup::?relay
                                   00000323        llScanEvt_TaskRxTimeout (ll_scanEndCauses)
    -------------------------------------------------------------------------
BANK_RELAYS
  Relative segment, address: CODE 00000329 - 0000032E (0x6 bytes), align: 0
  Segment part 202.
           ENTRY                   ADDRESS         REF BY
           =====                   =======         ======
           llInitFeatureSet::?relay
                                   00000329        LL_Reset (ll)
    -------------------------------------------------------------------------
<XDATA_ROM_C> 1 (was XDATA_ROM_C)
  Relative segment, address: CONST 00008E35 - 00008E38 (0x4 bytes), align: 0
  Segment part 31.            Intra module refs:   llFindTxPowerSettings
    -------------------------------------------------------------------------
<XDATA_ROM_C> 1 (was XDATA_ROM_C)
  Relative segment, address: CONST 00008E27 - 00008E2E (0x8 bytes), align: 0
  Segment part 32.            Intra module refs:   llFindTxPowerSettings
    -------------------------------------------------------------------------
<XDATA_ROM_C> 1 (was XDATA_ROM_C)
  Relative segment, address: CONST 00008E2F - 00008E34 (0x6 bytes), align: 0
  Segment part 33.            Intra module refs:   llSetupScan
    -------------------------------------------------------------------------
<XDATA_ROM_C> 1 (was XDATA_ROM_C)
  Relative segment, address: CONST 00008E3D - 00008E40 (0x4 bytes), align: 0
  Segment part 36.            Intra module refs:   llSetupScan
           ENTRY                   ADDRESS         REF BY
           =====                   =======         ======
           __Constant_8e89bed6     00008E3D 
    -------------------------------------------------------------------------
<XDATA_ROM_C> 1 (was XDATA_ROM_C)
  Relative segment, address: CONST 00008E41 - 00008E44 (0x4 bytes), align: 0
  Segment part 40.            Intra module refs:   _small_write (?smallwr)
           ENTRY                   ADDRESS         REF BY
           =====                   =======         ======
           __Constant_2            00008E41 
    -------------------------------------------------------------------------
<XDATA_ROM_C_FLASH> 1 (was XDATA_ROM_C_FLASH)
  Relative segment, address: CODE 00008E35 - 00008E38 (0x4 bytes), align: 0
  Segment part 238.           Intra module refs:   Segment part 31
    -------------------------------------------------------------------------
<XDATA_ROM_C_FLASH> 1 (was XDATA_ROM_C_FLASH)
  Relative segment, address: CODE 00008E27 - 00008E2E (0x8 bytes), align: 0
  Segment part 239.           Intra module refs:   Segment part 32
    -------------------------------------------------------------------------
<XDATA_ROM_C_FLASH> 1 (was XDATA_ROM_C_FLASH)
  Relative segment, address: CODE 00008E2F - 00008E34 (0x6 bytes), align: 0
  Segment part 240.           Intra module refs:   Segment part 33
    -------------------------------------------------------------------------
<XDATA_ROM_C_FLASH> 1 (was XDATA_ROM_C_FLASH)
  Relative segment, address: CODE 00008E3D - 00008E40 (0x4 bytes), align: 0
  Segment part 243.           Intra module refs:   __Constant_8e89bed6
    -------------------------------------------------------------------------
<XDATA_ROM_C_FLASH> 1 (was XDATA_ROM_C_FLASH)
  Relative segment, address: CODE 00008E41 - 00008E44 (0x4 bytes), align: 0
  Segment part 247.           Intra module refs:   __Constant_2

    -------------------------------------------------------------------------
  LIBRARY MODULE, NAME : ll_constData

  SEGMENTS IN THE MODULE
  ======================
<BANKED_CODE,CODE_C> 1 (was CODE_C)
  Relative segment, address: CODE 00001414 - 00001417 (0x4 bytes), align: 2
  Segment part 6.
           ENTRY                   ADDRESS         REF BY
           =====                   =======         ======
           savedTxPowerSetting     00001414        llExtendRfRange (ll_common)
                                                   llFindTxPowerSettings (ll_common)
                                                   llSetTxPower (ll_common)
    -------------------------------------------------------------------------
<BANKED_CODE,CODE_C> 1 (was CODE_C)
  Relative segment, address: CODE 00001410 - 00001413 (0x4 bytes), align: 2
  Segment part 8.
           ENTRY                   ADDRESS         REF BY
           =====                   =======         ======
           ptmFreqTune             00001410        LL_PowerOnReq (ll_sleep)
                                                   llRfInit (ll_common)

    -------------------------------------------------------------------------
  LIBRARY MODULE, NAME : ll_enc

  SEGMENTS IN THE MODULE
  ======================
SFR_AN
  Relative segment, address: DATA 000000BC - 000000BC (0x1 bytes), align: 0
  Segment part 3. ROOT.       Intra module refs:   LL_ENC_GenerateTrueRandNum
           ENTRY                   ADDRESS         REF BY
           =====                   =======         ======
           RNDL                    000000BC 
    -------------------------------------------------------------------------
SFR_AN
  Relative segment, address: DATA 000000BD - 000000BD (0x1 bytes), align: 0
  Segment part 4. ROOT.       Intra module refs:   LL_ENC_GenerateTrueRandNum
           ENTRY                   ADDRESS         REF BY
           =====                   =======         ======
           RNDH                    000000BD 
    -------------------------------------------------------------------------
SFR_AN
  Relative segment, address: DATA 000000D7 - 000000D7 (0x1 bytes), align: 0
  Segment part 7. ROOT.
           ENTRY                   ADDRESS         REF BY
           =====                   =======         ======
           DMAREQ                  000000D7 
    -------------------------------------------------------------------------
<BANKED_CODE,CODE_C> 1 (was BANKED_CODE)
  Relative segment, address: CODE 00006C47 - 00006C52 (0xc bytes), align: 0
  Segment part 17.            Intra module refs:   LL_ENC_GeneratePseudoRandNum::?relay
           ENTRY                   ADDRESS         REF BY
           =====                   =======         ======
           LL_ENC_GeneratePseudoRandNum
                                   00006C47 
               ISTACK = 00000000 ( 00000002 )
    -------------------------------------------------------------------------
<BANKED_CODE,CODE_C> 1 (was BANKED_CODE)
  Relative segment, address: CODE 00006C53 - 00006D1E (0xcc bytes), align: 0
  Segment part 19.            Intra module refs:   LL_ENC_GenerateTrueRandNum::?relay
           ENTRY                   ADDRESS         REF BY
           =====                   =======         ======
           LL_ENC_GenerateTrueRandNum
                                   00006C53 
               calls direct
               XSTACK = 00000000 ( 0000000D )
               ISTACK = 00000000 ( 00000001 )
    -------------------------------------------------------------------------
<BANKED_CODE,CODE_C> 1 (was BANKED_CODE)
  Relative segment, address: CODE 00006D1F - 00006D2B (0xd bytes), align: 0
  Segment part 21.            Intra module refs:   LL_ENC_GenerateTrueRandNum
    -------------------------------------------------------------------------
<BANKED_CODE,CODE_C> 1 (was BANKED_CODE)
  Relative segment, address: CODE 00006D2C - 00006D30 (0x5 bytes), align: 0
  Segment part 25.            Intra module refs:   LL_ENC_GenerateTrueRandNum
    -------------------------------------------------------------------------
<BANKED_CODE,CODE_C> 1 (was BANKED_CODE)
  Relative segment, address: CODE 00006D31 - 00006D68 (0x38 bytes), align: 0
  Segment part 28.            Intra module refs:   LL_ENC_InitAesDMA::?relay
           ENTRY                   ADDRESS         REF BY
           =====                   =======         ======
           LL_ENC_InitAesDMA       00006D31 
               ISTACK = 00000000 ( 00000002 )
    -------------------------------------------------------------------------
<BANKED_CODE,CODE_C> 1 (was BANKED_CODE)
  Relative segment, address: CODE 00006D69 - 00006D6F (0x7 bytes), align: 0
  Segment part 31.            Intra module refs:   LL_ENC_GeneratePseudoRandNum
                                                   LL_ENC_InitAesDMA
    -------------------------------------------------------------------------
BANK_RELAYS
  Relative segment, address: CODE 0000032F - 00000334 (0x6 bytes), align: 0
  Segment part 18.
           ENTRY                   ADDRESS         REF BY
           =====                   =======         ======
           LL_ENC_GeneratePseudoRandNum::?relay
                                   0000032F        llGenerateNextBackoffCount (ll_scanEndCauses)
    -------------------------------------------------------------------------
BANK_RELAYS
  Relative segment, address: CODE 00000335 - 0000033A (0x6 bytes), align: 0
  Segment part 20.
           ENTRY                   ADDRESS         REF BY
           =====                   =======         ======
           LL_ENC_GenerateTrueRandNum::?relay
                                   00000335        LL_Init (ll)
                                                   llProcessPostRfOps (ll_common)
    -------------------------------------------------------------------------
BANK_RELAYS
  Relative segment, address: CODE 0000033B - 00000340 (0x6 bytes), align: 0
  Segment part 29.
           ENTRY                   ADDRESS         REF BY
           =====                   =======         ======
           LL_ENC_InitAesDMA::?relay
                                   0000033B        LL_Init (ll)

    -------------------------------------------------------------------------
  LIBRARY MODULE, NAME : ll_errorEndCauses

  SEGMENTS IN THE MODULE
  ======================
<BANKED_CODE,CODE_C> 1 (was BANKED_CODE)
  Relative segment, address: CODE 00007668 - 0000766A (0x3 bytes), align: 0
  Segment part 6.             Intra module refs:   llUnexpectedEndCauseHandler::?relay
           ENTRY                   ADDRESS         REF BY
           =====                   =======         ======
           llUnexpectedEndCauseHandler
                                   00007668 
    -------------------------------------------------------------------------
BANK_RELAYS
  Relative segment, address: CODE 00000341 - 00000346 (0x6 bytes), align: 0
  Segment part 7.
           ENTRY                   ADDRESS         REF BY
           =====                   =======         ======
           llUnexpectedEndCauseHandler::?relay
                                   00000341        Segment part 101 (ll_common)
                                                   Segment part 47 (ll)
                                                   Segment part 49 (ll)
                                                   Segment part 98 (ll_common)

    -------------------------------------------------------------------------
  PROGRAM MODULE, NAME : ll_halt

  SEGMENTS IN THE MODULE
  ======================
NEAR_CODE
  Relative segment, address: CODE 00000DF4 - 00000DFA (0x7 bytes), align: 2
  Segment part 0.
           ENTRY                   ADDRESS         REF BY
           =====                   =======         ======
           HaltMcuUsingPhyFlag     00000DF4        llT2OVFC1_ISR (ll_isr)
    -------------------------------------------------------------------------
DATA_Z
  Relative segment, address: DATA 0000001B - 0000001C (0x2 bytes), align: 0
  Segment part 1.             Intra module refs:   HaltMcuUsingPhyFlag
           ENTRY                   ADDRESS         REF BY
           =====                   =======         ======
           phyState                0000001B        LL_Reset (ll)
                                                   RF_NormalIsr (ll_isr)
                                                   llT2OVFC1_ISR (ll_isr)
           clkState                0000001C        llT2OVFC1_ISR (ll_isr)

    -------------------------------------------------------------------------
  PROGRAM MODULE, NAME : ll_isr

  SEGMENTS IN THE MODULE
  ======================
SFR_AN
  Relative segment, address: DATA 0000009B - 0000009B (0x1 bytes), align: 0
  Segment part 1. ROOT.       Intra module refs:   RF_NormalIsr
                                                   llClearSetInts (ll_common)
           ENTRY                   ADDRESS         REF BY
           =====                   =======         ======
           S1CON                   0000009B 
    -------------------------------------------------------------------------
SFR_AN
  Relative segment, address: DATA 0000009F - 0000009F (0x1 bytes), align: 0
  Segment part 2. ROOT.       Intra module refs:   LL_Init (ll)
                                                   RF_NormalIsr
                                                   llScanEvt_TaskEndOk (ll_scanEndCauses)
           ENTRY                   ADDRESS         REF BY
           =====                   =======         ======
           FMAP                    0000009F 
    -------------------------------------------------------------------------
SFR_AN
  Relative segment, address: DATA 000000A1 - 000000A1 (0x1 bytes), align: 0
  Segment part 3. ROOT.       Intra module refs:   T2_Isr
                                                   llDisableT2Ints (ll_timer2)
                                                   llDisableT2IntsEvts (ll_timer2)
                                                   llInitTimer2 (ll_timer2)
                                                   llScanEvt_TaskEndOk (ll_scanEndCauses)
                                                   llSetT2C1Event1 (ll_timer2)
                                                   llSetT2OVFC1Event1 (ll_timer2)
                                                   llSetT2OVFC1Timeout (ll_timer2)
                                                   llSetT2OVFC2Event2 (ll_timer2)
           ENTRY                   ADDRESS         REF BY
           =====                   =======         ======
           T2IRQF                  000000A1 
    -------------------------------------------------------------------------
SFR_AN
  Relative segment, address: DATA 000000A7 - 000000A7 (0x1 bytes), align: 0
  Segment part 4. ROOT.       Intra module refs:   T2_Isr
                                                   llDisableT2Ints (ll_timer2)
                                                   llDisableT2IntsEvts (ll_timer2)
                                                   llInitTimer2 (ll_timer2)
                                                   llSetT2C1Event1 (ll_timer2)
                                                   llSetT2OVFC1Event1 (ll_timer2)
                                                   llSetT2OVFC1Timeout (ll_timer2)
                                                   llSetT2OVFC2Event2 (ll_timer2)
           ENTRY                   ADDRESS         REF BY
           =====                   =======         ======
           T2IRQM                  000000A7 
    -------------------------------------------------------------------------
SFR_AN
  Relative segment, address: DATA 000000A8 - 000000A8 (0x1 bytes), align: 0
  Segment part 5. ROOT.       Intra module refs:   HalFlashRead (hal_flash)
                                                   InitUART1 (TPMS_OBD)
                                                   LL_Init (ll)
                                                   LL_ProcessEvent (ll)
                                                   LL_Reset (ll)
                                                   LL_SetScanControl (ll)
                                                   Onboard_soft_reset (OnBoard)
                                                   RF_NormalIsr
                                                   halKeyPort0Isr (hal_key)
                                                   halKeyPort2Isr (hal_key)
                                                   halSetSleepMode (hal_sleep)
                                                   halSleep (hal_sleep)
                                                   halSleepSetTimer (hal_sleep)
                                                   halSleepTimerIsr (hal_sleep)
                                                   llClearSetInts (ll_common)
                                                   llDisableT2E1 (ll_timer2)
                                                   llDisableT2Ints (ll_timer2)
                                                   llDisableT2IntsEvts (ll_timer2)
                                                   llGetCurrentFineTime (ll_timer2)
                                                   llGetCurrentTime (ll_timer2)
                                                   llGetFullCTandST (ll_timer2)
                                                   llScanEvt_TaskEndOk (ll_scanEndCauses)
                                                   llSetT2C1Event1 (ll_timer2)
                                                   llSetT2Delta (ll_timer2)
                                                   llSetT2OVFC1Event1 (ll_timer2)
                                                   llSetT2OVFC1Timeout (ll_timer2)
                                                   llSetT2OVFC2Event2 (ll_timer2)
                                                   llStartTimer2 (ll_timer2)
                                                   llStopTimer2 (ll_timer2)
                                                   llT2OVFC1_ISR
                                                   ll_McuPrecisionCount (ll_timer2)
                                                   main (TPMS_OBD_Main)
                                                   osalTimerUpdate (OSAL_Timers)
                                                   osal_bm_free (osal_bufmgr)
                                                   osal_clear_event (OSAL)
                                                   osal_int_disable (OSAL)
                                                   osal_mem_alloc (OSAL_Memory)
                                                   osal_mem_free (OSAL_Memory)
                                                   osal_mem_kick (OSAL_Memory)
                                                   osal_msg_enqueue (OSAL)
                                                   osal_msg_extract (OSAL)
                                                   osal_msg_push (OSAL)
                                                   osal_msg_receive (OSAL)
                                                   osal_pwrmgr_powerconserve (OSAL_PwrMgr)
                                                   osal_run_system (OSAL)
                                                   osal_set_event (OSAL)
                                                   osal_start_reload_timer (OSAL_Timers)
                                                   osal_start_timerEx (OSAL_Timers)
                                                   osal_stop_timerEx (OSAL_Timers)
           ENTRY                   ADDRESS         REF BY
           =====                   =======         ======
           _A_IEN0                 000000A8 
    -------------------------------------------------------------------------
SFR_AN
  Relative segment, address: DATA 000000BE - 000000BE (0x1 bytes), align: 0
  Segment part 6. ROOT.       Intra module refs:   halSleep (hal_sleep)
                                                   llT2OVFC1_ISR
           ENTRY                   ADDRESS         REF BY
           =====                   =======         ======
           SLEEPCMD                000000BE 
    -------------------------------------------------------------------------
SFR_AN
  Relative segment, address: DATA 000000C6 - 000000C6 (0x1 bytes), align: 0
  Segment part 7. ROOT.       Intra module refs:   InitClock (TPMS_OBD)
                                                   LL_PowerOffReq (ll_sleep)
                                                   LL_PowerOnReq (ll_sleep)
                                                   llSetFreqTune (ll_common)
                                                   llT2OVFC1_ISR
           ENTRY                   ADDRESS         REF BY
           =====                   =======         ======
           CLKCONCMD               000000C6 
    -------------------------------------------------------------------------
SFR_AN
  Relative segment, address: DATA 00000091 - 00000091 (0x1 bytes), align: 0
  Segment part 8. ROOT.       Intra module refs:   LL_SetScanControl (ll)
                                                   RF_NormalIsr
                                                   llClearRfInts (ll_common)
                                                   llScheduleTask (ll_scheduler)
           ENTRY                   ADDRESS         REF BY
           =====                   =======         ======
           RFIRQF1                 00000091 
    -------------------------------------------------------------------------
SFR_AN
  Relative segment, address: DATA 000000BF - 000000BF (0x1 bytes), align: 0
  Segment part 9. ROOT.       Intra module refs:   RF_ErrorIsr
                                                   llClearRfInts (ll_common)
                                                   llScanEvt_TaskAbort (ll_scanEndCauses)
           ENTRY                   ADDRESS         REF BY
           =====                   =======         ======
           RFERRF                  000000BF 
    -------------------------------------------------------------------------
SFR_AN
  Relative segment, address: DATA 000000E9 - 000000E9 (0x1 bytes), align: 0
  Segment part 10. ROOT.      Intra module refs:   RF_NormalIsr
                                                   llClearRfInts (ll_common)
           ENTRY                   ADDRESS         REF BY
           =====                   =======         ======
           RFIRQF0                 000000E9 
    -------------------------------------------------------------------------
NEAR_CODE
  Relative segment, address: CODE 00000DFB - 00000EF7 (0xfd bytes), align: 0
  Segment part 19.            Intra module refs:   RF_NormalIsr::??INTVEC 131
           ENTRY                   ADDRESS         REF BY
           =====                   =======         ======
           RF_NormalIsr            00000DFB 
               interrupt function
               calls direct
               XSTACK = 00000000 ( 00000011 )
               ISTACK = 00000000 ( 00000001 )
    -------------------------------------------------------------------------
NEAR_CODE
  Relative segment, address: CODE 00000EF8 - 00000F6D (0x76 bytes), align: 0
  Segment part 20.            Intra module refs:   RF_ErrorIsr::??INTVEC 3
           ENTRY                   ADDRESS         REF BY
           =====                   =======         ======
           RF_ErrorIsr             00000EF8 
               interrupt function
               ISTACK = 00000000 ( 00000004 )
    -------------------------------------------------------------------------
NEAR_CODE
  Relative segment, address: CODE 00000F6E - 00000FC1 (0x54 bytes), align: 0
  Segment part 21.            Intra module refs:   T2_Isr::??INTVEC 83
           ENTRY                   ADDRESS         REF BY
           =====                   =======         ======
           T2_Isr                  00000F6E 
               interrupt function
               calls direct
               XSTACK = 00000000 ( 0000000E )
    -------------------------------------------------------------------------
NEAR_CODE
  Relative segment, address: CODE 00000FC2 - 00001037 (0x76 bytes), align: 0
  Segment part 22.            Intra module refs:   T2_Isr
           ENTRY                   ADDRESS         REF BY
           =====                   =======         ======
           llT2OVFC1_ISR           00000FC2 
               calls direct
               XSTACK = 0000000E ( 00000008 )
    -------------------------------------------------------------------------
INTVEC
  Common segment, address: CODE 00000000 - 00000005 (0x6 bytes), align: 0
  Segment part 11. ROOT.
           ENTRY                   ADDRESS         REF BY
           =====                   =======         ======
           RF_ErrorIsr::??INTVEC 3
                                   00000003 
    -------------------------------------------------------------------------
INTVEC
  Common segment, address: CODE 00000000 - 00000055 (0x56 bytes), align: 0
  Segment part 12. ROOT.
           ENTRY                   ADDRESS         REF BY
           =====                   =======         ======
           T2_Isr::??INTVEC 83     00000053 
    -------------------------------------------------------------------------
INTVEC
  Common segment, address: CODE 00000000 - 00000085 (0x86 bytes), align: 0
  Segment part 13. ROOT.
           ENTRY                   ADDRESS         REF BY
           =====                   =======         ======
           RF_NormalIsr::??INTVEC 131
                                   00000083 

    -------------------------------------------------------------------------
  LIBRARY MODULE, NAME : ll_scanEndCauses

  SEGMENTS IN THE MODULE
  ======================
XDATA_Z
  Relative segment, address: XDATA 000002F9 - 0000031D (0x25 bytes), align: 0
  Segment part 12.            Intra module refs:   Segment part 28
                                                   llProcessScanRxFIFO
    -------------------------------------------------------------------------
<BANKED_CODE,CODE_C> 1 (was BANKED_CODE)
  Relative segment, address: CODE 00004602 - 00004692 (0x91 bytes), align: 0
  Segment part 13.            Intra module refs:   llScanEvt_TaskEndOk::?relay
           ENTRY                   ADDRESS         REF BY
           =====                   =======         ======
           llScanEvt_TaskEndOk     00004602 
               calls direct
               XSTACK = 00000000 ( 0000000C )
               ISTACK = 00000000 ( 00000001 )
    -------------------------------------------------------------------------
<BANKED_CODE,CODE_C> 1 (was BANKED_CODE)
  Relative segment, address: CODE 00004693 - 00004697 (0x5 bytes), align: 0
  Segment part 15.            Intra module refs:   llScanEvt_TaskEndOk
                                                   llScanEvt_TaskRxTimeout
    -------------------------------------------------------------------------
<BANKED_CODE,CODE_C> 1 (was BANKED_CODE)
  Relative segment, address: CODE 00004698 - 00004737 (0xa0 bytes), align: 0
  Segment part 16.            Intra module refs:   llScanEvt_TaskRxTimeout::?relay
           ENTRY                   ADDRESS         REF BY
           =====                   =======         ======
           llScanEvt_TaskRxTimeout
                                   00004698 
               calls direct
               XSTACK = 0000000C ( 0000000C )
               ISTACK = 00000000 ( 00000002 )
    -------------------------------------------------------------------------
<BANKED_CODE,CODE_C> 1 (was BANKED_CODE)
  Relative segment, address: CODE 00004738 - 0000473C (0x5 bytes), align: 0
  Segment part 18.            Intra module refs:   llScanEvt_TaskRxTimeout
    -------------------------------------------------------------------------
<BANKED_CODE,CODE_C> 1 (was BANKED_CODE)
  Relative segment, address: CODE 0000473D - 00004746 (0xa bytes), align: 0
  Segment part 19.            Intra module refs:   llScanEvt_TaskEndOk
                                                   llScanEvt_TaskRxTimeout
    -------------------------------------------------------------------------
<BANKED_CODE,CODE_C> 1 (was BANKED_CODE)
  Relative segment, address: CODE 00004747 - 00004749 (0x3 bytes), align: 0
  Segment part 20.            Intra module refs:   Segment part 19
                                                   llScanEvt_TaskRxTimeout
    -------------------------------------------------------------------------
<BANKED_CODE,CODE_C> 1 (was BANKED_CODE)
  Relative segment, address: CODE 0000474A - 0000474E (0x5 bytes), align: 0
  Segment part 21.            Intra module refs:   Segment part 20
                                                   Segment part 31
    -------------------------------------------------------------------------
<BANKED_CODE,CODE_C> 1 (was BANKED_CODE)
  Relative segment, address: CODE 0000474F - 00004778 (0x2a bytes), align: 0
  Segment part 22.            Intra module refs:   llScanEvt_TaskAbort::?relay
           ENTRY                   ADDRESS         REF BY
           =====                   =======         ======
           llScanEvt_TaskAbort     0000474F 
               calls direct
               ISTACK = 00000000 ( 00000002 )
    -------------------------------------------------------------------------
<BANKED_CODE,CODE_C> 1 (was BANKED_CODE)
  Relative segment, address: CODE 00004779 - 0000495A (0x1e2 bytes), align: 0
  Segment part 24.            Intra module refs:   llProcessScanRxFIFO::?relay
           LOCAL                   ADDRESS         
           =====                   =======         
           llProcessScanRxFIFO     00004779 
               calls direct
               XSTACK = 0000000C ( 00000016 )
    -------------------------------------------------------------------------
<BANKED_CODE,CODE_C> 1 (was BANKED_CODE)
  Relative segment, address: CODE 0000495B - 0000495D (0x3 bytes), align: 0
  Segment part 26.            Intra module refs:   llGetAdvChanPDU
                                                   llProcessScanRxFIFO
    -------------------------------------------------------------------------
<BANKED_CODE,CODE_C> 1 (was BANKED_CODE)
  Relative segment, address: CODE 0000495E - 00004962 (0x5 bytes), align: 0
  Segment part 27.            Intra module refs:   Segment part 26
                                                   llGenerateNextBackoffCount
    -------------------------------------------------------------------------
<BANKED_CODE,CODE_C> 1 (was BANKED_CODE)
  Relative segment, address: CODE 00004963 - 0000496B (0x9 bytes), align: 0
  Segment part 28.            Intra module refs:   llProcessScanRxFIFO
    -------------------------------------------------------------------------
<BANKED_CODE,CODE_C> 1 (was BANKED_CODE)
  Relative segment, address: CODE 0000496C - 00004A79 (0x10e bytes), align: 0
  Segment part 29.            Intra module refs:   llGetAdvChanPDU::?relay
           LOCAL                   ADDRESS         
           =====                   =======         
           llGetAdvChanPDU         0000496C 
               XSTACK = 00000016 ( 0000000C )
               ISTACK = 00000000 ( 00000001 )
    -------------------------------------------------------------------------
<BANKED_CODE,CODE_C> 1 (was BANKED_CODE)
  Relative segment, address: CODE 00004A7A - 00004A85 (0xc bytes), align: 0
  Segment part 31.            Intra module refs:   llGetAdvChanPDU
    -------------------------------------------------------------------------
<BANKED_CODE,CODE_C> 1 (was BANKED_CODE)
  Relative segment, address: CODE 00004A86 - 00004A8B (0x6 bytes), align: 0
  Segment part 32.            Intra module refs:   llGetAdvChanPDU
                                                   llProcessScanRxFIFO
    -------------------------------------------------------------------------
<BANKED_CODE,CODE_C> 1 (was BANKED_CODE)
  Relative segment, address: CODE 00004A8C - 00004A8E (0x3 bytes), align: 0
  Segment part 33.            Intra module refs:   Segment part 18
                                                   Segment part 19
    -------------------------------------------------------------------------
<BANKED_CODE,CODE_C> 1 (was BANKED_CODE)
  Relative segment, address: CODE 00004A8F - 00004A93 (0x5 bytes), align: 0
  Segment part 34.            Intra module refs:   Segment part 32
                                                   Segment part 33
                                                   llGetAdvChanPDU
                                                   llProcessScanRxFIFO
    -------------------------------------------------------------------------
<BANKED_CODE,CODE_C> 1 (was BANKED_CODE)
  Relative segment, address: CODE 00004A94 - 00004ACA (0x37 bytes), align: 0
  Segment part 35.            Intra module refs:   llGenerateNextBackoffCount::?relay
           LOCAL                   ADDRESS         
           =====                   =======         
           llGenerateNextBackoffCount
                                   00004A94 
               calls direct
               XSTACK = 0000000E ( 0000000A )
    -------------------------------------------------------------------------
BANK_RELAYS
  Relative segment, address: CODE 00000347 - 0000034C (0x6 bytes), align: 0
  Segment part 14.
           ENTRY                   ADDRESS         REF BY
           =====                   =======         ======
           llScanEvt_TaskEndOk::?relay
                                   00000347        Segment part 93 (ll_common)
    -------------------------------------------------------------------------
BANK_RELAYS
  Relative segment, address: CODE 0000034D - 00000352 (0x6 bytes), align: 0
  Segment part 17.            Intra module refs:   llScanEvt_TaskEndOk
           ENTRY                   ADDRESS         REF BY
           =====                   =======         ======
           llScanEvt_TaskRxTimeout::?relay
                                   0000034D        llSetupScan (ll_common)
    -------------------------------------------------------------------------
BANK_RELAYS
  Relative segment, address: CODE 00000353 - 00000358 (0x6 bytes), align: 0
  Segment part 23.
           ENTRY                   ADDRESS         REF BY
           =====                   =======         ======
           llScanEvt_TaskAbort::?relay
                                   00000353        llSetupScan (ll_common)
    -------------------------------------------------------------------------
BANK_RELAYS
  Relative segment, address: CODE 00000359 - 0000035E (0x6 bytes), align: 0
  Segment part 25.            Intra module refs:   llScanEvt_TaskEndOk
                                                   llScanEvt_TaskRxTimeout
           LOCAL                   ADDRESS         
           =====                   =======         
           llProcessScanRxFIFO::?relay
                                   00000359 
    -------------------------------------------------------------------------
BANK_RELAYS
  Relative segment, address: CODE 0000035F - 00000364 (0x6 bytes), align: 0
  Segment part 30.            Intra module refs:   llProcessScanRxFIFO
           LOCAL                   ADDRESS         
           =====                   =======         
           llGetAdvChanPDU::?relay
                                   0000035F 
    -------------------------------------------------------------------------
BANK_RELAYS
  Relative segment, address: CODE 00000365 - 0000036A (0x6 bytes), align: 0
  Segment part 36.            Intra module refs:   llProcessScanRxFIFO
           LOCAL                   ADDRESS         
           =====                   =======         
           llGenerateNextBackoffCount::?relay
                                   00000365 

    -------------------------------------------------------------------------
  LIBRARY MODULE, NAME : ll_scheduler

  SEGMENTS IN THE MODULE
  ======================
XDATA_Z
  Relative segment, address: XDATA 0000031E - 0000033A (0x1d bytes), align: 0
  Segment part 8.             Intra module refs:   llAllocTask
                                                   llFindNextSecTask
                                                   llFreeTask
                                                   llGetCurrentTask
                                                   llGetNumTasks
                                                   llGetTask
                                                   llGetTaskState
                                                   llScheduleTask
                                                   llScheduler
                                                   llSchedulerInit
    -------------------------------------------------------------------------
<BANKED_CODE,CODE_C> 1 (was BANKED_CODE)
  Relative segment, address: CODE 00002412 - 00002436 (0x25 bytes), align: 0
  Segment part 18.            Intra module refs:   llSchedulerInit::?relay
           ENTRY                   ADDRESS         REF BY
           =====                   =======         ======
           llSchedulerInit         00002412 
               ISTACK = 00000000 ( 00000002 )
    -------------------------------------------------------------------------
<BANKED_CODE,CODE_C> 1 (was BANKED_CODE)
  Relative segment, address: CODE 00002437 - 00002651 (0x21b bytes), align: 0
  Segment part 20.            Intra module refs:   llScheduler::?relay
           ENTRY                   ADDRESS         REF BY
           =====                   =======         ======
           llScheduler             00002437 
               calls direct
               XSTACK = 00000000 ( 00000018 )
               ISTACK = 00000000 ( 00000002 )
    -------------------------------------------------------------------------
<BANKED_CODE,CODE_C> 1 (was BANKED_CODE)
  Relative segment, address: CODE 00002652 - 00002656 (0x5 bytes), align: 0
  Segment part 22.            Intra module refs:   llScheduler
    -------------------------------------------------------------------------
<BANKED_CODE,CODE_C> 1 (was BANKED_CODE)
  Relative segment, address: CODE 00002657 - 00002669 (0x13 bytes), align: 0
  Segment part 23.            Intra module refs:   llScheduler
    -------------------------------------------------------------------------
<BANKED_CODE,CODE_C> 1 (was BANKED_CODE)
  Relative segment, address: CODE 0000266A - 000027BC (0x153 bytes), align: 0
  Segment part 24.            Intra module refs:   llScheduleTask::?relay
           ENTRY                   ADDRESS         REF BY
           =====                   =======         ======
           llScheduleTask          0000266A 
               calls direct
               XSTACK = 00000014 ( 00000014 )
    -------------------------------------------------------------------------
<BANKED_CODE,CODE_C> 1 (was BANKED_CODE)
  Relative segment, address: CODE 000027BD - 000027BF (0x3 bytes), align: 0
  Segment part 26.            Intra module refs:   llScheduleTask
    -------------------------------------------------------------------------
<BANKED_CODE,CODE_C> 1 (was BANKED_CODE)
  Relative segment, address: CODE 000027C0 - 000027C4 (0x5 bytes), align: 0
  Segment part 27.            Intra module refs:   Segment part 26
    -------------------------------------------------------------------------
<BANKED_CODE,CODE_C> 1 (was BANKED_CODE)
  Relative segment, address: CODE 000027C5 - 000027D0 (0xc bytes), align: 0
  Segment part 28.            Intra module refs:   llScheduleTask
    -------------------------------------------------------------------------
<BANKED_CODE,CODE_C> 1 (was BANKED_CODE)
  Relative segment, address: CODE 000027D1 - 000027E0 (0x10 bytes), align: 0
  Segment part 31.            Intra module refs:   llScheduler
    -------------------------------------------------------------------------
<BANKED_CODE,CODE_C> 1 (was BANKED_CODE)
  Relative segment, address: CODE 000027E1 - 000027EC (0xc bytes), align: 0
  Segment part 32.            Intra module refs:   llScheduler
    -------------------------------------------------------------------------
<BANKED_CODE,CODE_C> 1 (was BANKED_CODE)
  Relative segment, address: CODE 000027ED - 0000296C (0x180 bytes), align: 0
  Segment part 33.            Intra module refs:   llFindNextSecTask::?relay
           ENTRY                   ADDRESS         REF BY
           =====                   =======         ======
           llFindNextSecTask       000027ED 
               calls direct
               XSTACK = 00000014 ( 00000016 )
    -------------------------------------------------------------------------
<BANKED_CODE,CODE_C> 1 (was BANKED_CODE)
  Relative segment, address: CODE 0000296D - 000029DD (0x71 bytes), align: 0
  Segment part 35.            Intra module refs:   llAllocTask::?relay
           ENTRY                   ADDRESS         REF BY
           =====                   =======         ======
           llAllocTask             0000296D 
               calls direct
               XSTACK = 00000000 ( 00000009 )
    -------------------------------------------------------------------------
<BANKED_CODE,CODE_C> 1 (was BANKED_CODE)
  Relative segment, address: CODE 000029DE - 00002A1A (0x3d bytes), align: 0
  Segment part 37.            Intra module refs:   llFreeTask::?relay
           ENTRY                   ADDRESS         REF BY
           =====                   =======         ======
           llFreeTask              000029DE 
               ISTACK = 00000000 ( 00000002 )
    -------------------------------------------------------------------------
<BANKED_CODE,CODE_C> 1 (was BANKED_CODE)
  Relative segment, address: CODE 00002A1B - 00002A34 (0x1a bytes), align: 0
  Segment part 39.            Intra module refs:   llGetCurrentTask::?relay
           ENTRY                   ADDRESS         REF BY
           =====                   =======         ======
           llGetCurrentTask        00002A1B 
               ISTACK = 00000000 ( 00000002 )
    -------------------------------------------------------------------------
<BANKED_CODE,CODE_C> 1 (was BANKED_CODE)
  Relative segment, address: CODE 00002A35 - 00002A36 (0x2 bytes), align: 0
  Segment part 41.            Intra module refs:   llGetNumTasks
    -------------------------------------------------------------------------
<BANKED_CODE,CODE_C> 1 (was BANKED_CODE)
  Relative segment, address: CODE 00002A37 - 00002A3D (0x7 bytes), align: 0
  Segment part 42.            Intra module refs:   Segment part 41
                                                   llFreeTask
                                                   llGetCurrentTask
                                                   llGetTask
                                                   llGetTaskState
                                                   llSchedulerInit
    -------------------------------------------------------------------------
<BANKED_CODE,CODE_C> 1 (was BANKED_CODE)
  Relative segment, address: CODE 00002A3E - 00002A53 (0x16 bytes), align: 0
  Segment part 43.            Intra module refs:   llGetTaskState::?relay
           ENTRY                   ADDRESS         REF BY
           =====                   =======         ======
           llGetTaskState          00002A3E 
               XSTACK = 00000012 ( 00000000 )
               ISTACK = 00000000 ( 00000002 )
    -------------------------------------------------------------------------
<BANKED_CODE,CODE_C> 1 (was BANKED_CODE)
  Relative segment, address: CODE 00002A54 - 00002A70 (0x1d bytes), align: 0
  Segment part 47.            Intra module refs:   llGetTask::?relay
           ENTRY                   ADDRESS         REF BY
           =====                   =======         ======
           llGetTask               00002A54 
               XSTACK = 00000012 ( 00000000 )
               ISTACK = 00000000 ( 00000002 )
    -------------------------------------------------------------------------
<BANKED_CODE,CODE_C> 1 (was BANKED_CODE)
  Relative segment, address: CODE 00002A71 - 00002A79 (0x9 bytes), align: 0
  Segment part 49.            Intra module refs:   llGetNumTasks::?relay
           ENTRY                   ADDRESS         REF BY
           =====                   =======         ======
           llGetNumTasks           00002A71 
               ISTACK = 00000000 ( 00000002 )
    -------------------------------------------------------------------------
<XDATA_ROM_C> 1 (was XDATA_ROM_C)
  Relative segment, address: CONST 00008E65 - 00008E68 (0x4 bytes), align: 0
  Segment part 9.             Intra module refs:   llScheduler
           ENTRY                   ADDRESS         REF BY
           =====                   =======         ======
           __Constant_a            00008E65 
    -------------------------------------------------------------------------
<XDATA_ROM_C> 1 (was XDATA_ROM_C)
  Relative segment, address: CONST 00008E49 - 00008E4C (0x4 bytes), align: 0
  Segment part 10.            Intra module refs:   llScheduler
           ENTRY                   ADDRESS         REF BY
           =====                   =======         ======
           __Constant_3            00008E49 
    -------------------------------------------------------------------------
<XDATA_ROM_C> 1 (was XDATA_ROM_C)
  Relative segment, address: CONST 00008E4D - 00008E50 (0x4 bytes), align: 0
  Segment part 12.            Intra module refs:   llScheduleTask
           ENTRY                   ADDRESS         REF BY
           =====                   =======         ======
           __Constant_5            00008E4D 
    -------------------------------------------------------------------------
<XDATA_ROM_C> 1 (was XDATA_ROM_C)
  Relative segment, address: CONST 00008E51 - 00008E54 (0x4 bytes), align: 0
  Segment part 17.            Intra module refs:   llFindNextSecTask
           ENTRY                   ADDRESS         REF BY
           =====                   =======         ======
           __Constant_fffffff6     00008E51 
    -------------------------------------------------------------------------
BANK_RELAYS
  Relative segment, address: CODE 0000036B - 00000370 (0x6 bytes), align: 0
  Segment part 19.
           ENTRY                   ADDRESS         REF BY
           =====                   =======         ======
           llSchedulerInit::?relay
                                   0000036B        LL_Reset (ll)
    -------------------------------------------------------------------------
BANK_RELAYS
  Relative segment, address: CODE 00000371 - 00000376 (0x6 bytes), align: 0
  Segment part 21.
           ENTRY                   ADDRESS         REF BY
           =====                   =======         ======
           llScheduler::?relay     00000371        LL_SetScanControl (ll)
                                                   llScanEvt_TaskAbort (ll_scanEndCauses)
                                                   llScanEvt_TaskEndOk (ll_scanEndCauses)
                                                   llScanEvt_TaskRxTimeout (ll_scanEndCauses)
    -------------------------------------------------------------------------
BANK_RELAYS
  Relative segment, address: CODE 00000377 - 0000037C (0x6 bytes), align: 0
  Segment part 25.            Intra module refs:   llScheduler
           ENTRY                   ADDRESS         REF BY
           =====                   =======         ======
           llScheduleTask::?relay
                                   00000377 
    -------------------------------------------------------------------------
BANK_RELAYS
  Relative segment, address: CODE 0000037D - 00000382 (0x6 bytes), align: 0
  Segment part 34.            Intra module refs:   llScheduler
           ENTRY                   ADDRESS         REF BY
           =====                   =======         ======
           llFindNextSecTask::?relay
                                   0000037D 
    -------------------------------------------------------------------------
BANK_RELAYS
  Relative segment, address: CODE 00000383 - 00000388 (0x6 bytes), align: 0
  Segment part 36.
           ENTRY                   ADDRESS         REF BY
           =====                   =======         ======
           llAllocTask::?relay     00000383        LL_SetScanControl (ll)
    -------------------------------------------------------------------------
BANK_RELAYS
  Relative segment, address: CODE 00000389 - 0000038E (0x6 bytes), align: 0
  Segment part 38.
           ENTRY                   ADDRESS         REF BY
           =====                   =======         ======
           llFreeTask::?relay      00000389        LL_SetScanControl (ll)
                                                   llScanEvt_TaskAbort (ll_scanEndCauses)
    -------------------------------------------------------------------------
BANK_RELAYS
  Relative segment, address: CODE 0000038F - 00000394 (0x6 bytes), align: 0
  Segment part 40.
           ENTRY                   ADDRESS         REF BY
           =====                   =======         ======
           llGetCurrentTask::?relay
                                   0000038F        LL_PowerOnReq (ll_sleep)
                                                   LL_TimeToNextRfEvent (ll_sleep)
    -------------------------------------------------------------------------
BANK_RELAYS
  Relative segment, address: CODE 00000395 - 0000039A (0x6 bytes), align: 0
  Segment part 44.            Intra module refs:   llFindNextSecTask
           ENTRY                   ADDRESS         REF BY
           =====                   =======         ======
           llGetTaskState::?relay
                                   00000395        llScanEvt_TaskAbort (ll_scanEndCauses)
                                                   llScanEvt_TaskEndOk (ll_scanEndCauses)
                                                   llScanEvt_TaskRxTimeout (ll_scanEndCauses)
    -------------------------------------------------------------------------
BANK_RELAYS
  Relative segment, address: CODE 0000039B - 000003A0 (0x6 bytes), align: 0
  Segment part 48.            Intra module refs:   llFindNextSecTask
           ENTRY                   ADDRESS         REF BY
           =====                   =======         ======
           llGetTask::?relay       0000039B 
    -------------------------------------------------------------------------
BANK_RELAYS
  Relative segment, address: CODE 000003A1 - 000003A6 (0x6 bytes), align: 0
  Segment part 50.
           ENTRY                   ADDRESS         REF BY
           =====                   =======         ======
           llGetNumTasks::?relay   000003A1        LL_SetScanControl (ll)
    -------------------------------------------------------------------------
<XDATA_ROM_C_FLASH> 1 (was XDATA_ROM_C_FLASH)
  Relative segment, address: CODE 00008E65 - 00008E68 (0x4 bytes), align: 0
  Segment part 70.            Intra module refs:   __Constant_a
    -------------------------------------------------------------------------
<XDATA_ROM_C_FLASH> 1 (was XDATA_ROM_C_FLASH)
  Relative segment, address: CODE 00008E49 - 00008E4C (0x4 bytes), align: 0
  Segment part 71.            Intra module refs:   __Constant_3
    -------------------------------------------------------------------------
<XDATA_ROM_C_FLASH> 1 (was XDATA_ROM_C_FLASH)
  Relative segment, address: CODE 00008E4D - 00008E50 (0x4 bytes), align: 0
  Segment part 73.            Intra module refs:   __Constant_5
    -------------------------------------------------------------------------
<XDATA_ROM_C_FLASH> 1 (was XDATA_ROM_C_FLASH)
  Relative segment, address: CODE 00008E51 - 00008E54 (0x4 bytes), align: 0
  Segment part 78.            Intra module refs:   __Constant_fffffff6

    -------------------------------------------------------------------------
  LIBRARY MODULE, NAME : ll_sleep

  SEGMENTS IN THE MODULE
  ======================
NEAR_CODE
  Relative segment, address: CODE 00001038 - 00001180 (0x149 bytes), align: 0
  Segment part 19.
           ENTRY                   ADDRESS         REF BY
           =====                   =======         ======
           LL_TimeToNextRfEvent    00001038        halSleep (hal_sleep)
               calls direct
               XSTACK = 00000000 ( 0000001D )
    -------------------------------------------------------------------------
NEAR_CODE
  Relative segment, address: CODE 00001181 - 000011F2 (0x72 bytes), align: 0
  Segment part 20.
           ENTRY                   ADDRESS         REF BY
           =====                   =======         ======
           LL_PowerOffReq          00001181        halSleep (hal_sleep)
               calls direct
               XSTACK = 00000000 ( 00000009 )
    -------------------------------------------------------------------------
NEAR_CODE
  Relative segment, address: CODE 000011F3 - 000011F7 (0x5 bytes), align: 0
  Segment part 21.            Intra module refs:   LL_PowerOffReq
                                                   LL_PowerOnReq
    -------------------------------------------------------------------------
NEAR_CODE
  Relative segment, address: CODE 000011F8 - 000012A5 (0xae bytes), align: 0
  Segment part 22.
           ENTRY                   ADDRESS         REF BY
           =====                   =======         ======
           LL_PowerOnReq           000011F8        halSleep (hal_sleep)
               calls direct
               XSTACK = 00000000 ( 00000009 )
    -------------------------------------------------------------------------
<XDATA_ROM_C> 1 (was XDATA_ROM_C)
  Relative segment, address: CONST 00008E55 - 00008E58 (0x4 bytes), align: 0
  Segment part 15.            Intra module refs:   LL_TimeToNextRfEvent
                                                   ll24BitTimeCompare (ll_timer2)
           ENTRY                   ADDRESS         REF BY
           =====                   =======         ======
           __Constant_c801         00008E55 
    -------------------------------------------------------------------------
<XDATA_ROM_C> 1 (was XDATA_ROM_C)
  Relative segment, address: CONST 00008E59 - 00008E5C (0x4 bytes), align: 0
  Segment part 17.            Intra module refs:   LL_TimeToNextRfEvent
           ENTRY                   ADDRESS         REF BY
           =====                   =======         ======
           __Constant_6            00008E59 
    -------------------------------------------------------------------------
<XDATA_ROM_C> 1 (was XDATA_ROM_C)
  Relative segment, address: CONST 00008E5D - 00008E60 (0x4 bytes), align: 0
  Segment part 18.            Intra module refs:   LL_TimeToNextRfEvent
           ENTRY                   ADDRESS         REF BY
           =====                   =======         ======
           __Constant_fffffffb     00008E5D 
    -------------------------------------------------------------------------
<XDATA_ROM_C_FLASH> 1 (was XDATA_ROM_C_FLASH)
  Relative segment, address: CODE 00008E55 - 00008E58 (0x4 bytes), align: 0
  Segment part 24.            Intra module refs:   __Constant_c801
    -------------------------------------------------------------------------
<XDATA_ROM_C_FLASH> 1 (was XDATA_ROM_C_FLASH)
  Relative segment, address: CODE 00008E59 - 00008E5C (0x4 bytes), align: 0
  Segment part 26.            Intra module refs:   __Constant_6
    -------------------------------------------------------------------------
<XDATA_ROM_C_FLASH> 1 (was XDATA_ROM_C_FLASH)
  Relative segment, address: CODE 00008E5D - 00008E60 (0x4 bytes), align: 0
  Segment part 27.            Intra module refs:   __Constant_fffffffb

    -------------------------------------------------------------------------
  LIBRARY MODULE, NAME : ll_timer2

  SEGMENTS IN THE MODULE
  ======================
SFR_AN
  Relative segment, address: DATA 00000094 - 00000094 (0x1 bytes), align: 0
  Segment part 1. ROOT.       Intra module refs:   llInitTimer2
                                                   llStartTimer2
                                                   llStopTimer2
           ENTRY                   ADDRESS         REF BY
           =====                   =======         ======
           T2CTRL                  00000094 
    -------------------------------------------------------------------------
SFR_AN
  Relative segment, address: DATA 0000009C - 0000009C (0x1 bytes), align: 0
  Segment part 5. ROOT.       Intra module refs:   llDisableT2E1
                                                   llDisableT2IntsEvts
                                                   llInitTimer2
                                                   llSetT2C1Event1
                                                   llSetT2OVFC1Event1
                                                   llSetT2OVFC2Event2
           ENTRY                   ADDRESS         REF BY
           =====                   =======         ======
           T2CSPCFG                0000009C 
    -------------------------------------------------------------------------
SFR_AN
  Relative segment, address: DATA 000000A2 - 000000A2 (0x1 bytes), align: 0
  Segment part 7. ROOT.       Intra module refs:   llGetCurrentFineTime
                                                   llGetCurrentTime
                                                   llGetFullCTandST
                                                   llInitTimer2
                                                   llSetT2C1Event1
                                                   llSetT2Delta
                                                   ll_McuPrecisionCount
           ENTRY                   ADDRESS         REF BY
           =====                   =======         ======
           T2M0                    000000A2 
    -------------------------------------------------------------------------
SFR_AN
  Relative segment, address: DATA 000000A3 - 000000A3 (0x1 bytes), align: 0
  Segment part 8. ROOT.       Intra module refs:   llGetCurrentFineTime
                                                   llGetFullCTandST
                                                   llInitTimer2
                                                   llSetT2C1Event1
                                                   llSetT2Delta
           ENTRY                   ADDRESS         REF BY
           =====                   =======         ======
           T2M1                    000000A3 
    -------------------------------------------------------------------------
SFR_AN
  Relative segment, address: DATA 000000A4 - 000000A4 (0x1 bytes), align: 0
  Segment part 9. ROOT.       Intra module refs:   llGetCurrentTime
                                                   llGetFullCTandST
                                                   llInitTimer2
                                                   llSetT2OVFC1Event1
                                                   llSetT2OVFC1Timeout
                                                   llSetT2OVFC2Event2
                                                   ll_McuPrecisionCount
           ENTRY                   ADDRESS         REF BY
           =====                   =======         ======
           T2MOVF0                 000000A4 
    -------------------------------------------------------------------------
SFR_AN
  Relative segment, address: DATA 000000A5 - 000000A5 (0x1 bytes), align: 0
  Segment part 10. ROOT.      Intra module refs:   llGetCurrentTime
                                                   llGetFullCTandST
                                                   llInitTimer2
                                                   llSetT2OVFC1Event1
                                                   llSetT2OVFC1Timeout
                                                   llSetT2OVFC2Event2
                                                   ll_McuPrecisionCount
           ENTRY                   ADDRESS         REF BY
           =====                   =======         ======
           T2MOVF1                 000000A5 
    -------------------------------------------------------------------------
SFR_AN
  Relative segment, address: DATA 000000A6 - 000000A6 (0x1 bytes), align: 0
  Segment part 11. ROOT.      Intra module refs:   llGetCurrentTime
                                                   llGetFullCTandST
                                                   llInitTimer2
                                                   llSetT2OVFC1Event1
                                                   llSetT2OVFC1Timeout
                                                   llSetT2OVFC2Event2
           ENTRY                   ADDRESS         REF BY
           =====                   =======         ======
           T2MOVF2                 000000A6 
    -------------------------------------------------------------------------
SFR_AN
  Relative segment, address: DATA 000000C3 - 000000C3 (0x1 bytes), align: 0
  Segment part 14. ROOT.      Intra module refs:   llGetCurrentFineTime
                                                   llGetCurrentTime
                                                   llGetFullCTandST
                                                   llInitTimer2
                                                   llSetT2C1Event1
                                                   llSetT2Delta
                                                   llSetT2OVFC1Event1
                                                   llSetT2OVFC1Timeout
                                                   llSetT2OVFC2Event2
                                                   ll_McuPrecisionCount
           ENTRY                   ADDRESS         REF BY
           =====                   =======         ======
           T2MSEL                  000000C3 
    -------------------------------------------------------------------------
<BANKED_CODE,CODE_C> 1 (was BANKED_CODE)
  Relative segment, address: CODE 000057F2 - 00005867 (0x76 bytes), align: 0
  Segment part 24.            Intra module refs:   llInitTimer2::?relay
           ENTRY                   ADDRESS         REF BY
           =====                   =======         ======
           llInitTimer2            000057F2 
               calls direct
               ISTACK = 00000000 ( 00000002 )
    -------------------------------------------------------------------------
<BANKED_CODE,CODE_C> 1 (was BANKED_CODE)
  Relative segment, address: CODE 00005868 - 00005877 (0x10 bytes), align: 0
  Segment part 26.            Intra module refs:   llStopTimer2::?relay
           ENTRY                   ADDRESS         REF BY
           =====                   =======         ======
           llStopTimer2            00005868 
    -------------------------------------------------------------------------
<BANKED_CODE,CODE_C> 1 (was BANKED_CODE)
  Relative segment, address: CODE 00005878 - 0000587D (0x6 bytes), align: 0
  Segment part 28.            Intra module refs:   llStartTimer2
                                                   llStopTimer2
    -------------------------------------------------------------------------
<BANKED_CODE,CODE_C> 1 (was BANKED_CODE)
  Relative segment, address: CODE 0000587E - 0000588F (0x12 bytes), align: 0
  Segment part 29.            Intra module refs:   llStartTimer2::?relay
           ENTRY                   ADDRESS         REF BY
           =====                   =======         ======
           llStartTimer2           0000587E 
    -------------------------------------------------------------------------
<BANKED_CODE,CODE_C> 1 (was BANKED_CODE)
  Relative segment, address: CODE 00005890 - 00005898 (0x9 bytes), align: 0
  Segment part 33.            Intra module refs:   llSetT2C1Event1
    -------------------------------------------------------------------------
<BANKED_CODE,CODE_C> 1 (was BANKED_CODE)
  Relative segment, address: CODE 00005899 - 0000589B (0x3 bytes), align: 0
  Segment part 34.            Intra module refs:   llSetT2C1Event1
    -------------------------------------------------------------------------
<BANKED_CODE,CODE_C> 1 (was BANKED_CODE)
  Relative segment, address: CODE 0000589C - 000058A7 (0xc bytes), align: 0
  Segment part 35.            Intra module refs:   Segment part 34
                                                   llSetT2Delta
    -------------------------------------------------------------------------
<BANKED_CODE,CODE_C> 1 (was BANKED_CODE)
  Relative segment, address: CODE 000058A8 - 000058B9 (0x12 bytes), align: 0
  Segment part 38.            Intra module refs:   llGetCurrentFineTime
                                                   ll_McuPrecisionCount
    -------------------------------------------------------------------------
<BANKED_CODE,CODE_C> 1 (was BANKED_CODE)
  Relative segment, address: CODE 000058BA - 000058BE (0x5 bytes), align: 0
  Segment part 39.            Intra module refs:   Segment part 33
                                                   Segment part 38
                                                   llSetT2Delta
    -------------------------------------------------------------------------
<BANKED_CODE,CODE_C> 1 (was BANKED_CODE)
  Relative segment, address: CODE 000058BF - 000058DF (0x21 bytes), align: 0
  Segment part 40.            Intra module refs:   llSetT2OVFC1Timeout::?relay
           ENTRY                   ADDRESS         REF BY
           =====                   =======         ======
           llSetT2OVFC1Timeout     000058BF 
               XSTACK = 00000000 ( 00000004 )
               ISTACK = 00000000 ( 00000002 )
    -------------------------------------------------------------------------
<BANKED_CODE,CODE_C> 1 (was BANKED_CODE)
  Relative segment, address: CODE 000058E0 - 000058E9 (0xa bytes), align: 0
  Segment part 42.            Intra module refs:   llSetT2OVFC1Event1
                                                   llSetT2OVFC1Timeout
    -------------------------------------------------------------------------
<BANKED_CODE,CODE_C> 1 (was BANKED_CODE)
  Relative segment, address: CODE 000058EA - 000058EC (0x3 bytes), align: 0
  Segment part 43.            Intra module refs:   llSetT2OVFC1Event1
                                                   llSetT2OVFC1Timeout
    -------------------------------------------------------------------------
<BANKED_CODE,CODE_C> 1 (was BANKED_CODE)
  Relative segment, address: CODE 000058ED - 000058F8 (0xc bytes), align: 0
  Segment part 44.            Intra module refs:   Segment part 43
                                                   llSetT2OVFC2Event2
    -------------------------------------------------------------------------
<BANKED_CODE,CODE_C> 1 (was BANKED_CODE)
  Relative segment, address: CODE 000058F9 - 0000591B (0x23 bytes), align: 0
  Segment part 47.            Intra module refs:   llSetT2C1Event1::?relay
           ENTRY                   ADDRESS         REF BY
           =====                   =======         ======
           llSetT2C1Event1         000058F9 
               XSTACK = 00000000 ( 00000002 )
               ISTACK = 00000000 ( 00000002 )
    -------------------------------------------------------------------------
<BANKED_CODE,CODE_C> 1 (was BANKED_CODE)
  Relative segment, address: CODE 0000591C - 00005922 (0x7 bytes), align: 0
  Segment part 49.            Intra module refs:   llSetT2C1Event1
    -------------------------------------------------------------------------
<BANKED_CODE,CODE_C> 1 (was BANKED_CODE)
  Relative segment, address: CODE 00005923 - 00005933 (0x11 bytes), align: 0
  Segment part 50.            Intra module refs:   Segment part 49
    -------------------------------------------------------------------------
<BANKED_CODE,CODE_C> 1 (was BANKED_CODE)
  Relative segment, address: CODE 00005934 - 00005965 (0x32 bytes), align: 0
  Segment part 51.            Intra module refs:   llGetCurrentTime
    -------------------------------------------------------------------------
<BANKED_CODE,CODE_C> 1 (was BANKED_CODE)
  Relative segment, address: CODE 00005966 - 00005967 (0x2 bytes), align: 0
  Segment part 52.            Intra module refs:   Segment part 42
                                                   Segment part 51
    -------------------------------------------------------------------------
<BANKED_CODE,CODE_C> 1 (was BANKED_CODE)
  Relative segment, address: CODE 00005968 - 0000596A (0x3 bytes), align: 0
  Segment part 53.            Intra module refs:   Segment part 39
                                                   Segment part 52
    -------------------------------------------------------------------------
<BANKED_CODE,CODE_C> 1 (was BANKED_CODE)
  Relative segment, address: CODE 0000596B - 00005971 (0x7 bytes), align: 0
  Segment part 54.            Intra module refs:   Segment part 53
                                                   Segment part 77
                                                   llInitTimer2
    -------------------------------------------------------------------------
<BANKED_CODE,CODE_C> 1 (was BANKED_CODE)
  Relative segment, address: CODE 00005972 - 0000599A (0x29 bytes), align: 0
  Segment part 55.            Intra module refs:   llSetT2OVFC1Event1::?relay
           ENTRY                   ADDRESS         REF BY
           =====                   =======         ======
           llSetT2OVFC1Event1      00005972 
               XSTACK = 00000000 ( 00000004 )
               ISTACK = 00000000 ( 00000002 )
    -------------------------------------------------------------------------
<BANKED_CODE,CODE_C> 1 (was BANKED_CODE)
  Relative segment, address: CODE 0000599B - 000059A0 (0x6 bytes), align: 0
  Segment part 57.            Intra module refs:   llSetT2OVFC1Event1
                                                   llSetT2OVFC1Timeout
                                                   llSetT2OVFC2Event2
    -------------------------------------------------------------------------
<BANKED_CODE,CODE_C> 1 (was BANKED_CODE)
  Relative segment, address: CODE 000059A1 - 000059AC (0xc bytes), align: 0
  Segment part 58.            Intra module refs:   llSetT2OVFC1Event1
                                                   llSetT2OVFC1Timeout
    -------------------------------------------------------------------------
<BANKED_CODE,CODE_C> 1 (was BANKED_CODE)
  Relative segment, address: CODE 000059AD - 00005A09 (0x5d bytes), align: 0
  Segment part 59.            Intra module refs:   llSetT2OVFC2Event2::?relay
           ENTRY                   ADDRESS         REF BY
           =====                   =======         ======
           llSetT2OVFC2Event2      000059AD 
               XSTACK = 00000000 ( 00000010 )
    -------------------------------------------------------------------------
<BANKED_CODE,CODE_C> 1 (was BANKED_CODE)
  Relative segment, address: CODE 00005A0A - 00005A0D (0x4 bytes), align: 0
  Segment part 61.            Intra module refs:   llSetT2OVFC2Event2
    -------------------------------------------------------------------------
<BANKED_CODE,CODE_C> 1 (was BANKED_CODE)
  Relative segment, address: CODE 00005A0E - 00005A1F (0x12 bytes), align: 0
  Segment part 62.            Intra module refs:   Segment part 58
                                                   Segment part 61
    -------------------------------------------------------------------------
<BANKED_CODE,CODE_C> 1 (was BANKED_CODE)
  Relative segment, address: CODE 00005A20 - 00005A5D (0x3e bytes), align: 0
  Segment part 63.            Intra module refs:   llSetT2Delta::?relay
           ENTRY                   ADDRESS         REF BY
           =====                   =======         ======
           llSetT2Delta            00005A20 
               XSTACK = 00000000 ( 00000002 )
               ISTACK = 00000000 ( 00000002 )
    -------------------------------------------------------------------------
<BANKED_CODE,CODE_C> 1 (was BANKED_CODE)
  Relative segment, address: CODE 00005A5E - 00005A66 (0x9 bytes), align: 0
  Segment part 65.            Intra module refs:   llDisableT2Ints::?relay
           ENTRY                   ADDRESS         REF BY
           =====                   =======         ======
           llDisableT2Ints         00005A5E 
    -------------------------------------------------------------------------
<BANKED_CODE,CODE_C> 1 (was BANKED_CODE)
  Relative segment, address: CODE 00005A67 - 00005A72 (0xc bytes), align: 0
  Segment part 67.            Intra module refs:   llDisableT2IntsEvts::?relay
           ENTRY                   ADDRESS         REF BY
           =====                   =======         ======
           llDisableT2IntsEvts     00005A67 
    -------------------------------------------------------------------------
<BANKED_CODE,CODE_C> 1 (was BANKED_CODE)
  Relative segment, address: CODE 00005A73 - 00005A82 (0x10 bytes), align: 0
  Segment part 69.            Intra module refs:   llDisableT2E1::?relay
           ENTRY                   ADDRESS         REF BY
           =====                   =======         ======
           llDisableT2E1           00005A73 
    -------------------------------------------------------------------------
<BANKED_CODE,CODE_C> 1 (was BANKED_CODE)
  Relative segment, address: CODE 00005A83 - 00005A85 (0x3 bytes), align: 0
  Segment part 71.            Intra module refs:   llDisableT2Ints
                                                   llDisableT2IntsEvts
    -------------------------------------------------------------------------
<BANKED_CODE,CODE_C> 1 (was BANKED_CODE)
  Relative segment, address: CODE 00005A86 - 00005A89 (0x4 bytes), align: 0
  Segment part 72.            Intra module refs:   Segment part 71
                                                   llDisableT2E1
    -------------------------------------------------------------------------
<BANKED_CODE,CODE_C> 1 (was BANKED_CODE)
  Relative segment, address: CODE 00005A8A - 00005A8E (0x5 bytes), align: 0
  Segment part 73.            Intra module refs:   Segment part 28
                                                   Segment part 72
    -------------------------------------------------------------------------
<BANKED_CODE,CODE_C> 1 (was BANKED_CODE)
  Relative segment, address: CODE 00005A8F - 00005A97 (0x9 bytes), align: 0
  Segment part 77.            Intra module refs:   llGetFullCTandST
    -------------------------------------------------------------------------
<BANKED_CODE,CODE_C> 1 (was BANKED_CODE)
  Relative segment, address: CODE 00005A98 - 00005AA1 (0xa bytes), align: 0
  Segment part 78.            Intra module refs:   Segment part 51
                                                   Segment part 77
    -------------------------------------------------------------------------
<BANKED_CODE,CODE_C> 1 (was BANKED_CODE)
  Relative segment, address: CODE 00005AA2 - 00005AB7 (0x16 bytes), align: 0
  Segment part 79.            Intra module refs:   llGetCurrentTime::?relay
           ENTRY                   ADDRESS         REF BY
           =====                   =======         ======
           llGetCurrentTime        00005AA2 
               XSTACK = 00000000 ( 00000004 )
               ISTACK = 00000000 ( 00000003 )
    -------------------------------------------------------------------------
<BANKED_CODE,CODE_C> 1 (was BANKED_CODE)
  Relative segment, address: CODE 00005AB8 - 00005AE0 (0x29 bytes), align: 0
  Segment part 81.            Intra module refs:   llGetCurrentFineTime::?relay
           ENTRY                   ADDRESS         REF BY
           =====                   =======         ======
           llGetCurrentFineTime    00005AB8 
               XSTACK = 00000000 ( 00000002 )
               ISTACK = 00000000 ( 00000003 )
    -------------------------------------------------------------------------
<BANKED_CODE,CODE_C> 1 (was BANKED_CODE)
  Relative segment, address: CODE 00005AE1 - 00005B28 (0x48 bytes), align: 0
  Segment part 85.            Intra module refs:   llGetFullCTandST::?relay
           ENTRY                   ADDRESS         REF BY
           =====                   =======         ======
           llGetFullCTandST        00005AE1 
               ISTACK = 00000000 ( 00000003 )
    -------------------------------------------------------------------------
<BANKED_CODE,CODE_C> 1 (was BANKED_CODE)
  Relative segment, address: CODE 00005B29 - 00005B43 (0x1b bytes), align: 0
  Segment part 87.            Intra module refs:   llGetFullCTandST
    -------------------------------------------------------------------------
NEAR_CODE
  Relative segment, address: CODE 000012A6 - 000012FC (0x57 bytes), align: 0
  Segment part 94.
           ENTRY                   ADDRESS         REF BY
           =====                   =======         ======
           ll24BitTimeCompare      000012A6        llFindNextSecTask (ll_scheduler)
                                                   llScheduler (ll_scheduler)
               XSTACK = 00000004 ( 0000000F )
    -------------------------------------------------------------------------
NEAR_CODE
  Relative segment, address: CODE 000012FD - 00001301 (0x5 bytes), align: 0
  Segment part 95.            Intra module refs:   ll24BitTimeCompare
    -------------------------------------------------------------------------
NEAR_CODE
  Relative segment, address: CODE 00001302 - 00001369 (0x68 bytes), align: 0
  Segment part 96.
           ENTRY                   ADDRESS         REF BY
           =====                   =======         ======
           ll24BitTimeDelta        00001302        llScheduleTask (ll_scheduler)
               XSTACK = 00000004 ( 00000013 )
    -------------------------------------------------------------------------
<BANKED_CODE,CODE_C> 1 (was BANKED_CODE)
  Relative segment, address: CODE 00005B44 - 00005B73 (0x30 bytes), align: 0
  Segment part 92.            Intra module refs:   ll_McuPrecisionCount::?relay
           ENTRY                   ADDRESS         REF BY
           =====                   =======         ======
           ll_McuPrecisionCount    00005B44 
               XSTACK = 00000000 ( 00000002 )
               ISTACK = 00000000 ( 00000003 )
    -------------------------------------------------------------------------
BANK_RELAYS
  Relative segment, address: CODE 000003A7 - 000003AC (0x6 bytes), align: 0
  Segment part 25.
           ENTRY                   ADDRESS         REF BY
           =====                   =======         ======
           llInitTimer2::?relay    000003A7        LL_Init (ll)
    -------------------------------------------------------------------------
BANK_RELAYS
  Relative segment, address: CODE 000003AD - 000003B2 (0x6 bytes), align: 0
  Segment part 27.            Intra module refs:   llInitTimer2
           ENTRY                   ADDRESS         REF BY
           =====                   =======         ======
           llStopTimer2::?relay    000003AD        LL_PowerOffReq (ll_sleep)
    -------------------------------------------------------------------------
BANK_RELAYS
  Relative segment, address: CODE 000003B3 - 000003B8 (0x6 bytes), align: 0
  Segment part 30.            Intra module refs:   llInitTimer2
           ENTRY                   ADDRESS         REF BY
           =====                   =======         ======
           llStartTimer2::?relay   000003B3        LL_PowerOnReq (ll_sleep)
    -------------------------------------------------------------------------
BANK_RELAYS
  Relative segment, address: CODE 000003B9 - 000003BE (0x6 bytes), align: 0
  Segment part 41.
           ENTRY                   ADDRESS         REF BY
           =====                   =======         ======
           llSetT2OVFC1Timeout::?relay
                                   000003B9        llScheduleTask (ll_scheduler)
    -------------------------------------------------------------------------
BANK_RELAYS
  Relative segment, address: CODE 000003BF - 000003C4 (0x6 bytes), align: 0
  Segment part 48.
           ENTRY                   ADDRESS         REF BY
           =====                   =======         ======
           llSetT2C1Event1::?relay
                                   000003BF        llT2OVFC1_ISR (ll_isr)
    -------------------------------------------------------------------------
BANK_RELAYS
  Relative segment, address: CODE 000003C5 - 000003CA (0x6 bytes), align: 0
  Segment part 56.
           ENTRY                   ADDRESS         REF BY
           =====                   =======         ======
           llSetT2OVFC1Event1::?relay
                                   000003C5        llScheduleTask (ll_scheduler)
    -------------------------------------------------------------------------
BANK_RELAYS
  Relative segment, address: CODE 000003CB - 000003D0 (0x6 bytes), align: 0
  Segment part 60.
           ENTRY                   ADDRESS         REF BY
           =====                   =======         ======
           llSetT2OVFC2Event2::?relay
                                   000003CB        llScheduleTask (ll_scheduler)
    -------------------------------------------------------------------------
BANK_RELAYS
  Relative segment, address: CODE 000003D1 - 000003D6 (0x6 bytes), align: 0
  Segment part 64.
           ENTRY                   ADDRESS         REF BY
           =====                   =======         ======
           llSetT2Delta::?relay    000003D1        llScheduleTask (ll_scheduler)
    -------------------------------------------------------------------------
BANK_RELAYS
  Relative segment, address: CODE 000003D7 - 000003DC (0x6 bytes), align: 0
  Segment part 66.
           ENTRY                   ADDRESS         REF BY
           =====                   =======         ======
           llDisableT2Ints::?relay
                                   000003D7        RF_NormalIsr (ll_isr)
    -------------------------------------------------------------------------
BANK_RELAYS
  Relative segment, address: CODE 000003DD - 000003E2 (0x6 bytes), align: 0
  Segment part 68.
           ENTRY                   ADDRESS         REF BY
           =====                   =======         ======
           llDisableT2IntsEvts::?relay
                                   000003DD        LL_Reset (ll)
                                                   LL_SetScanControl (ll)
                                                   RF_NormalIsr (ll_isr)
    -------------------------------------------------------------------------
BANK_RELAYS
  Relative segment, address: CODE 000003E3 - 000003E8 (0x6 bytes), align: 0
  Segment part 70.
           ENTRY                   ADDRESS         REF BY
           =====                   =======         ======
           llDisableT2E1::?relay   000003E3        RF_NormalIsr (ll_isr)
    -------------------------------------------------------------------------
BANK_RELAYS
  Relative segment, address: CODE 000003E9 - 000003EE (0x6 bytes), align: 0
  Segment part 80.
           ENTRY                   ADDRESS         REF BY
           =====                   =======         ======
           llGetCurrentTime::?relay
                                   000003E9        LL_SetScanControl (ll)
                                                   llAllocTask (ll_scheduler)
                                                   llScheduleTask (ll_scheduler)
                                                   llScheduler (ll_scheduler)
    -------------------------------------------------------------------------
BANK_RELAYS
  Relative segment, address: CODE 000003EF - 000003F4 (0x6 bytes), align: 0
  Segment part 82.
           ENTRY                   ADDRESS         REF BY
           =====                   =======         ======
           llGetCurrentFineTime::?relay
                                   000003EF        LL_TimeToNextRfEvent (ll_sleep)
    -------------------------------------------------------------------------
BANK_RELAYS
  Relative segment, address: CODE 000003F5 - 000003FA (0x6 bytes), align: 0
  Segment part 86.
           ENTRY                   ADDRESS         REF BY
           =====                   =======         ======
           llGetFullCTandST::?relay
                                   000003F5        LL_TimeToNextRfEvent (ll_sleep)
    -------------------------------------------------------------------------
BANK_RELAYS
  Relative segment, address: CODE 000003FB - 00000400 (0x6 bytes), align: 0
  Segment part 93.
           ENTRY                   ADDRESS         REF BY
           =====                   =======         ======
           ll_McuPrecisionCount::?relay
                                   000003FB        osalTimeUpdate (OSAL_ClockBLE)

    -------------------------------------------------------------------------
  LIBRARY MODULE, NAME : phy

  SEGMENTS IN THE MODULE
  ======================
XDATA_Z
  Relative segment, address: XDATA 0000033B - 0000033B (0x1 bytes), align: 0
  Segment part 11.            Intra module refs:   PHY_AddWlEntry
                                                   PHY_ClearWhitelist
           ENTRY                   ADDRESS         REF BY
           =====                   =======         ======
           numWLEntries            0000033B 
    -------------------------------------------------------------------------
<BANKED_CODE,CODE_C> 1 (was BANKED_CODE)
  Relative segment, address: CODE 00002A7A - 00002A8C (0x13 bytes), align: 0
  Segment part 12.            Intra module refs:   PHY_Init::?relay
           ENTRY                   ADDRESS         REF BY
           =====                   =======         ======
           PHY_Init                00002A7A 
               calls direct
               ISTACK = 00000000 ( 00000002 )
    -------------------------------------------------------------------------
<BANKED_CODE,CODE_C> 1 (was BANKED_CODE)
  Relative segment, address: CODE 00002A8D - 00002AA6 (0x1a bytes), align: 0
  Segment part 18.            Intra module refs:   PHY_Reset::?relay
           ENTRY                   ADDRESS         REF BY
           =====                   =======         ======
           PHY_Reset               00002A8D 
               ISTACK = 00000000 ( 00000002 )
    -------------------------------------------------------------------------
<BANKED_CODE,CODE_C> 1 (was BANKED_CODE)
  Relative segment, address: CODE 00002AA7 - 00002ACF (0x29 bytes), align: 0
  Segment part 20.            Intra module refs:   PHY_LoadNR::?relay
           ENTRY                   ADDRESS         REF BY
           =====                   =======         ======
           PHY_LoadNR              00002AA7 
               ISTACK = 00000000 ( 00000002 )
    -------------------------------------------------------------------------
<BANKED_CODE,CODE_C> 1 (was BANKED_CODE)
  Relative segment, address: CODE 00002AD0 - 00002B06 (0x37 bytes), align: 0
  Segment part 22.            Intra module refs:   PHY_VerifyNR::?relay
           ENTRY                   ADDRESS         REF BY
           =====                   =======         ======
           PHY_VerifyNR            00002AD0 
               ISTACK = 00000000 ( 00000002 )
    -------------------------------------------------------------------------
<BANKED_CODE,CODE_C> 1 (was BANKED_CODE)
  Relative segment, address: CODE 00002B07 - 00002B12 (0xc bytes), align: 0
  Segment part 24.            Intra module refs:   PHY_LoadNR
                                                   PHY_VerifyNR
    -------------------------------------------------------------------------
<BANKED_CODE,CODE_C> 1 (was BANKED_CODE)
  Relative segment, address: CODE 00002B13 - 00002B41 (0x2f bytes), align: 0
  Segment part 25.            Intra module refs:   PHY_ClearAllRegsAndFifos::?relay
           ENTRY                   ADDRESS         REF BY
           =====                   =======         ======
           PHY_ClearAllRegsAndFifos
                                   00002B13 
               ISTACK = 00000000 ( 00000002 )
    -------------------------------------------------------------------------
<BANKED_CODE,CODE_C> 1 (was BANKED_CODE)
  Relative segment, address: CODE 00002B42 - 00002B46 (0x5 bytes), align: 0
  Segment part 27.            Intra module refs:   PHY_ClearAllRegsAndFifos
                                                   PHY_LoadNR
    -------------------------------------------------------------------------
<BANKED_CODE,CODE_C> 1 (was BANKED_CODE)
  Relative segment, address: CODE 00002B47 - 00002B51 (0xb bytes), align: 0
  Segment part 28.            Intra module refs:   PHY_VerifyNR
                                                   Segment part 27
    -------------------------------------------------------------------------
<BANKED_CODE,CODE_C> 1 (was BANKED_CODE)
  Relative segment, address: CODE 00002B52 - 00002B8F (0x3e bytes), align: 0
  Segment part 33.            Intra module refs:   PHY_SetOwnAddr::?relay
           ENTRY                   ADDRESS         REF BY
           =====                   =======         ======
           PHY_SetOwnAddr          00002B52 
               ISTACK = 00000000 ( 00000002 )
    -------------------------------------------------------------------------
<BANKED_CODE,CODE_C> 1 (was BANKED_CODE)
  Relative segment, address: CODE 00002B90 - 00002B98 (0x9 bytes), align: 0
  Segment part 37.            Intra module refs:   PHY_SetOwnAddr
    -------------------------------------------------------------------------
<BANKED_CODE,CODE_C> 1 (was BANKED_CODE)
  Relative segment, address: CODE 00002B99 - 00002B9D (0x5 bytes), align: 0
  Segment part 38.            Intra module refs:   PHY_SetOwnAddr
    -------------------------------------------------------------------------
<BANKED_CODE,CODE_C> 1 (was BANKED_CODE)
  Relative segment, address: CODE 00002B9E - 00002BA2 (0x5 bytes), align: 0
  Segment part 39.            Intra module refs:   PHY_SetOwnAddr
    -------------------------------------------------------------------------
<BANKED_CODE,CODE_C> 1 (was BANKED_CODE)
  Relative segment, address: CODE 00002BA3 - 00002BA8 (0x6 bytes), align: 0
  Segment part 40.            Intra module refs:   PHY_SetOwnAddr
    -------------------------------------------------------------------------
<BANKED_CODE,CODE_C> 1 (was BANKED_CODE)
  Relative segment, address: CODE 00002BA9 - 00002BAD (0x5 bytes), align: 0
  Segment part 41.            Intra module refs:   Segment part 39
                                                   Segment part 40
    -------------------------------------------------------------------------
<BANKED_CODE,CODE_C> 1 (was BANKED_CODE)
  Relative segment, address: CODE 00002BAE - 00002BB6 (0x9 bytes), align: 0
  Segment part 42.            Intra module refs:   Segment part 38
                                                   Segment part 41
    -------------------------------------------------------------------------
<BANKED_CODE,CODE_C> 1 (was BANKED_CODE)
  Relative segment, address: CODE 00002BB7 - 00002BC4 (0xe bytes), align: 0
  Segment part 43.            Intra module refs:   PHY_SetCRCInit::?relay
           ENTRY                   ADDRESS         REF BY
           =====                   =======         ======
           PHY_SetCRCInit          00002BB7 
               XSTACK = 00000000 ( 00000010 )
    -------------------------------------------------------------------------
<BANKED_CODE,CODE_C> 1 (was BANKED_CODE)
  Relative segment, address: CODE 00002BC5 - 00002BCB (0x7 bytes), align: 0
  Segment part 45.            Intra module refs:   PHY_SetCRCInit
                                                   PHY_SetSyncWord
    -------------------------------------------------------------------------
NEAR_CODE
  Relative segment, address: CODE 0000136A - 00001372 (0x9 bytes), align: 0
  Segment part 238.
           ENTRY                   ADDRESS         REF BY
           =====                   =======         ======
           PHY_SetDataChan         0000136A        llSetupScan (ll_common)
                                                   llStartScanSetup (ll_common)
               ISTACK = 00000000 ( 00000002 )
    -------------------------------------------------------------------------
NEAR_CODE
  Relative segment, address: CODE 00001373 - 00001377 (0x5 bytes), align: 0
  Segment part 239.           Intra module refs:   PHY_SetDataChan
    -------------------------------------------------------------------------
<BANKED_CODE,CODE_C> 1 (was BANKED_CODE)
  Relative segment, address: CODE 00002BCC - 00002BE2 (0x17 bytes), align: 0
  Segment part 50.            Intra module refs:   PHY_SetEndConnection::?relay
           ENTRY                   ADDRESS         REF BY
           =====                   =======         ======
           PHY_SetEndConnection    00002BCC 
               ISTACK = 00000000 ( 00000002 )
    -------------------------------------------------------------------------
<BANKED_CODE,CODE_C> 1 (was BANKED_CODE)
  Relative segment, address: CODE 00002BE3 - 00002BF0 (0xe bytes), align: 0
  Segment part 52.            Intra module refs:   PHY_ConfigureMD::?relay
           ENTRY                   ADDRESS         REF BY
           =====                   =======         ======
           PHY_ConfigureMD         00002BE3 
               ISTACK = 00000000 ( 00000002 )
    -------------------------------------------------------------------------
<BANKED_CODE,CODE_C> 1 (was BANKED_CODE)
  Relative segment, address: CODE 00002BF1 - 00002BFF (0xf bytes), align: 0
  Segment part 54.            Intra module refs:   PHY_SetBackoffCnt::?relay
           ENTRY                   ADDRESS         REF BY
           =====                   =======         ======
           PHY_SetBackoffCnt       00002BF1 
               ISTACK = 00000000 ( 00000002 )
    -------------------------------------------------------------------------
<BANKED_CODE,CODE_C> 1 (was BANKED_CODE)
  Relative segment, address: CODE 00002C00 - 00002C14 (0x15 bytes), align: 0
  Segment part 56.            Intra module refs:   PHY_SetScanMode::?relay
           ENTRY                   ADDRESS         REF BY
           =====                   =======         ======
           PHY_SetScanMode         00002C00 
               ISTACK = 00000000 ( 00000002 )
    -------------------------------------------------------------------------
<BANKED_CODE,CODE_C> 1 (was BANKED_CODE)
  Relative segment, address: CODE 00002C15 - 00002C29 (0x15 bytes), align: 0
  Segment part 58.            Intra module refs:   PHY_SetScanEnd::?relay
           ENTRY                   ADDRESS         REF BY
           =====                   =======         ======
           PHY_SetScanEnd          00002C15 
               ISTACK = 00000000 ( 00000002 )
    -------------------------------------------------------------------------
<BANKED_CODE,CODE_C> 1 (was BANKED_CODE)
  Relative segment, address: CODE 00002C2A - 00002C34 (0xb bytes), align: 0
  Segment part 60.            Intra module refs:   PHY_GetEndCause::?relay
           ENTRY                   ADDRESS         REF BY
           =====                   =======         ======
           PHY_GetEndCause         00002C2A 
               ISTACK = 00000000 ( 00000002 )
    -------------------------------------------------------------------------
<BANKED_CODE,CODE_C> 1 (was BANKED_CODE)
  Relative segment, address: CODE 00002C35 - 00002C47 (0x13 bytes), align: 0
  Segment part 70.            Intra module refs:   PHY_SetSyncWord::?relay
           ENTRY                   ADDRESS         REF BY
           =====                   =======         ======
           PHY_SetSyncWord         00002C35 
               XSTACK = 00000000 ( 00000010 )
    -------------------------------------------------------------------------
<BANKED_CODE,CODE_C> 1 (was BANKED_CODE)
  Relative segment, address: CODE 00002C48 - 00002C60 (0x19 bytes), align: 0
  Segment part 74.            Intra module refs:   PHY_ClearWhitelist::?relay
           ENTRY                   ADDRESS         REF BY
           =====                   =======         ======
           PHY_ClearWhitelist      00002C48 
               ISTACK = 00000000 ( 00000002 )
    -------------------------------------------------------------------------
<BANKED_CODE,CODE_C> 1 (was BANKED_CODE)
  Relative segment, address: CODE 00002C61 - 00002C61 (0x1 bytes), align: 0
  Segment part 80.            Intra module refs:   PHY_ClearBlacklistIndex
                                                   PHY_SetBlacklistIndex
    -------------------------------------------------------------------------
<BANKED_CODE,CODE_C> 1 (was BANKED_CODE)
  Relative segment, address: CODE 00002C62 - 00002C66 (0x5 bytes), align: 0
  Segment part 81.            Intra module refs:   Segment part 80
    -------------------------------------------------------------------------
<BANKED_CODE,CODE_C> 1 (was BANKED_CODE)
  Relative segment, address: CODE 00002C67 - 00002C6A (0x4 bytes), align: 0
  Segment part 86.            Intra module refs:   PHY_GetEndCause
    -------------------------------------------------------------------------
<BANKED_CODE,CODE_C> 1 (was BANKED_CODE)
  Relative segment, address: CODE 00002C6B - 00002D04 (0x9a bytes), align: 0
  Segment part 89.            Intra module refs:   PHY_AddWlEntry::?relay
           ENTRY                   ADDRESS         REF BY
           =====                   =======         ======
           PHY_AddWlEntry          00002C6B 
               calls direct
               XSTACK = 00000000 ( 0000000C )
               ISTACK = 00000000 ( 00000001 )
    -------------------------------------------------------------------------
<BANKED_CODE,CODE_C> 1 (was BANKED_CODE)
  Relative segment, address: CODE 00002D05 - 00002D11 (0xd bytes), align: 0
  Segment part 94.            Intra module refs:   PHY_AddWlEntry
    -------------------------------------------------------------------------
<BANKED_CODE,CODE_C> 1 (was BANKED_CODE)
  Relative segment, address: CODE 00002D12 - 00002D26 (0x15 bytes), align: 0
  Segment part 97.            Intra module refs:   PHY_SetScanWlPolicy::?relay
           ENTRY                   ADDRESS         REF BY
           =====                   =======         ======
           PHY_SetScanWlPolicy     00002D12 
               ISTACK = 00000000 ( 00000002 )
    -------------------------------------------------------------------------
<BANKED_CODE,CODE_C> 1 (was BANKED_CODE)
  Relative segment, address: CODE 00002D27 - 00002D40 (0x1a bytes), align: 0
  Segment part 101.           Intra module refs:   PHY_SetBlacklistIndex::?relay
           ENTRY                   ADDRESS         REF BY
           =====                   =======         ======
           PHY_SetBlacklistIndex   00002D27 
               XSTACK = 0000000C ( 0000000A )
    -------------------------------------------------------------------------
<BANKED_CODE,CODE_C> 1 (was BANKED_CODE)
  Relative segment, address: CODE 00002D41 - 00002D56 (0x16 bytes), align: 0
  Segment part 103.           Intra module refs:   PHY_SetBlacklistEntry::?relay
           ENTRY                   ADDRESS         REF BY
           =====                   =======         ======
           PHY_SetBlacklistEntry   00002D41 
               calls direct
               XSTACK = 00000000 ( 00000009 )
    -------------------------------------------------------------------------
<BANKED_CODE,CODE_C> 1 (was BANKED_CODE)
  Relative segment, address: CODE 00002D57 - 00002D5B (0x5 bytes), align: 0
  Segment part 105.           Intra module refs:   PHY_SetBlacklistEntry
    -------------------------------------------------------------------------
<BANKED_CODE,CODE_C> 1 (was BANKED_CODE)
  Relative segment, address: CODE 00002D5C - 00002D78 (0x1d bytes), align: 0
  Segment part 106.           Intra module refs:   PHY_ClearBlacklistIndex::?relay
           ENTRY                   ADDRESS         REF BY
           =====                   =======         ======
           PHY_ClearBlacklistIndex
                                   00002D5C 
               XSTACK = 0000000C ( 0000000A )
    -------------------------------------------------------------------------
<BANKED_CODE,CODE_C> 1 (was BANKED_CODE)
  Relative segment, address: CODE 00002D79 - 00002D83 (0xb bytes), align: 0
  Segment part 108.           Intra module refs:   PHY_ClearBlacklist::?relay
           ENTRY                   ADDRESS         REF BY
           =====                   =======         ======
           PHY_ClearBlacklist      00002D79 
               ISTACK = 00000000 ( 00000002 )
    -------------------------------------------------------------------------
<BANKED_CODE,CODE_C> 1 (was BANKED_CODE)
  Relative segment, address: CODE 00002D84 - 00002E35 (0xb2 bytes), align: 0
  Segment part 110.           Intra module refs:   PHY_SaveWhiteList::?relay
           ENTRY                   ADDRESS         REF BY
           =====                   =======         ======
           PHY_SaveWhiteList       00002D84 
               XSTACK = 00000000 ( 00000014 )
               ISTACK = 00000000 ( 00000001 )
    -------------------------------------------------------------------------
<BANKED_CODE,CODE_C> 1 (was BANKED_CODE)
  Relative segment, address: CODE 00002E36 - 00002E3F (0xa bytes), align: 0
  Segment part 112.           Intra module refs:   PHY_RestoreWhiteList
                                                   PHY_SaveWhiteList
    -------------------------------------------------------------------------
<BANKED_CODE,CODE_C> 1 (was BANKED_CODE)
  Relative segment, address: CODE 00002E40 - 00002EED (0xae bytes), align: 0
  Segment part 113.           Intra module refs:   PHY_RestoreWhiteList::?relay
           ENTRY                   ADDRESS         REF BY
           =====                   =======         ======
           PHY_RestoreWhiteList    00002E40 
               XSTACK = 00000000 ( 00000014 )
               ISTACK = 00000000 ( 00000001 )
    -------------------------------------------------------------------------
<BANKED_CODE,CODE_C> 1 (was BANKED_CODE)
  Relative segment, address: CODE 00002EEE - 00002EFF (0x12 bytes), align: 0
  Segment part 115.           Intra module refs:   PHY_RestoreWhiteList
                                                   PHY_SaveWhiteList
    -------------------------------------------------------------------------
<BANKED_CODE,CODE_C> 1 (was BANKED_CODE)
  Relative segment, address: CODE 00002F00 - 00002F11 (0x12 bytes), align: 0
  Segment part 116.           Intra module refs:   PHY_RestoreWhiteList
                                                   PHY_SaveWhiteList
    -------------------------------------------------------------------------
<BANKED_CODE,CODE_C> 1 (was BANKED_CODE)
  Relative segment, address: CODE 00002F12 - 00002F17 (0x6 bytes), align: 0
  Segment part 117.           Intra module refs:   PHY_RestoreWhiteList
                                                   PHY_SaveWhiteList
                                                   Segment part 116
                                                   phyFindWlEntry
    -------------------------------------------------------------------------
<BANKED_CODE,CODE_C> 1 (was BANKED_CODE)
  Relative segment, address: CODE 00002F18 - 00002F1C (0x5 bytes), align: 0
  Segment part 118.           Intra module refs:   PHY_ClearSavedWhiteList
                                                   PHY_RestoreWhiteList
    -------------------------------------------------------------------------
<BANKED_CODE,CODE_C> 1 (was BANKED_CODE)
  Relative segment, address: CODE 00002F1D - 00002F22 (0x6 bytes), align: 0
  Segment part 119.           Intra module refs:   PHY_SetOwnAddr
                                                   Segment part 118
    -------------------------------------------------------------------------
<BANKED_CODE,CODE_C> 1 (was BANKED_CODE)
  Relative segment, address: CODE 00002F23 - 00002F2B (0x9 bytes), align: 0
  Segment part 120.           Intra module refs:   PHY_RestoreWhiteList
                                                   PHY_SaveWhiteList
    -------------------------------------------------------------------------
<BANKED_CODE,CODE_C> 1 (was BANKED_CODE)
  Relative segment, address: CODE 00002F2C - 00002F41 (0x16 bytes), align: 0
  Segment part 121.           Intra module refs:   PHY_ClearSavedWhiteList::?relay
           ENTRY                   ADDRESS         REF BY
           =====                   =======         ======
           PHY_ClearSavedWhiteList
                                   00002F2C 
               ISTACK = 00000000 ( 00000002 )
    -------------------------------------------------------------------------
<BANKED_CODE,CODE_C> 1 (was BANKED_CODE)
  Relative segment, address: CODE 00002F42 - 00002F47 (0x6 bytes), align: 0
  Segment part 123.           Intra module refs:   PHY_ClearSavedWhiteList
    -------------------------------------------------------------------------
<BANKED_CODE,CODE_C> 1 (was BANKED_CODE)
  Relative segment, address: CODE 00002F48 - 00002F4B (0x4 bytes), align: 0
  Segment part 131.           Intra module refs:   PHY_AddWlEntry
    -------------------------------------------------------------------------
<BANKED_CODE,CODE_C> 1 (was BANKED_CODE)
  Relative segment, address: CODE 00002F4C - 00002F50 (0x5 bytes), align: 0
  Segment part 132.           Intra module refs:   Segment part 131
    -------------------------------------------------------------------------
<BANKED_CODE,CODE_C> 1 (was BANKED_CODE)
  Relative segment, address: CODE 00002F51 - 00002F5B (0xb bytes), align: 0
  Segment part 134.           Intra module refs:   PHY_ConfigureFifoDataProcessing::?relay
           ENTRY                   ADDRESS         REF BY
           =====                   =======         ======
           PHY_ConfigureFifoDataProcessing
                                   00002F51 
               ISTACK = 00000000 ( 00000002 )
    -------------------------------------------------------------------------
<BANKED_CODE,CODE_C> 1 (was BANKED_CODE)
  Relative segment, address: CODE 00002F5C - 00002F70 (0x15 bytes), align: 0
  Segment part 136.           Intra module refs:   PHY_ConfigureAppendRfStatus::?relay
           ENTRY                   ADDRESS         REF BY
           =====                   =======         ======
           PHY_ConfigureAppendRfStatus
                                   00002F5C 
               ISTACK = 00000000 ( 00000002 )
    -------------------------------------------------------------------------
<BANKED_CODE,CODE_C> 1 (was BANKED_CODE)
  Relative segment, address: CODE 00002F71 - 00002F7B (0xb bytes), align: 0
  Segment part 138.           Intra module refs:   PHY_SetFifoConfig::?relay
           ENTRY                   ADDRESS         REF BY
           =====                   =======         ======
           PHY_SetFifoConfig       00002F71 
               ISTACK = 00000000 ( 00000002 )
    -------------------------------------------------------------------------
<BANKED_CODE,CODE_C> 1 (was BANKED_CODE)
  Relative segment, address: CODE 00002F7C - 00002F84 (0x9 bytes), align: 0
  Segment part 150.           Intra module refs:   PHY_SetSyncWord
    -------------------------------------------------------------------------
<BANKED_CODE,CODE_C> 1 (was BANKED_CODE)
  Relative segment, address: CODE 00002F85 - 00002FE5 (0x61 bytes), align: 0
  Segment part 151.           Intra module refs:   PHY_ConfigWhitener::?relay
           ENTRY                   ADDRESS         REF BY
           =====                   =======         ======
           PHY_ConfigWhitener      00002F85 
               ISTACK = 00000000 ( 00000002 )
    -------------------------------------------------------------------------
<BANKED_CODE,CODE_C> 1 (was BANKED_CODE)
  Relative segment, address: CODE 00002FE6 - 00002FEB (0x6 bytes), align: 0
  Segment part 175.           Intra module refs:   PHY_DeallocateRxFifo::?relay
           ENTRY                   ADDRESS         REF BY
           =====                   =======         ======
           PHY_DeallocateRxFifo    00002FE6 
    -------------------------------------------------------------------------
<BANKED_CODE,CODE_C> 1 (was BANKED_CODE)
  Relative segment, address: CODE 00002FEC - 00002FED (0x2 bytes), align: 0
  Segment part 180.           Intra module refs:   PHY_ClearAllRegsAndFifos
    -------------------------------------------------------------------------
<BANKED_CODE,CODE_C> 1 (was BANKED_CODE)
  Relative segment, address: CODE 00002FEE - 00002FEE (0x1 bytes), align: 0
  Segment part 181.           Intra module refs:   Segment part 180
    -------------------------------------------------------------------------
<BANKED_CODE,CODE_C> 1 (was BANKED_CODE)
  Relative segment, address: CODE 00002FEF - 00002FEF (0x1 bytes), align: 0
  Segment part 182.           Intra module refs:   PHY_SetBackoffCnt
                                                   Segment part 181
    -------------------------------------------------------------------------
<BANKED_CODE,CODE_C> 1 (was BANKED_CODE)
  Relative segment, address: CODE 00002FF0 - 00002FF0 (0x1 bytes), align: 0
  Segment part 183.           Intra module refs:   PHY_ClearBlacklist
                                                   PHY_ConfigureAppendRfStatus
                                                   PHY_ConfigureFifoDataProcessing
                                                   PHY_ConfigureMD
                                                   PHY_SetEndConnection
                                                   PHY_SetFifoConfig
                                                   PHY_SetOwnAddr
                                                   PHY_SetScanEnd
                                                   PHY_SetScanMode
                                                   PHY_SetScanWlPolicy
                                                   Segment part 123
                                                   Segment part 182
    -------------------------------------------------------------------------
<BANKED_CODE,CODE_C> 1 (was BANKED_CODE)
  Relative segment, address: CODE 00002FF1 - 00002FF7 (0x7 bytes), align: 0
  Segment part 184.           Intra module refs:   PHY_ClearWhitelist
                                                   PHY_ConfigWhitener
                                                   PHY_Init
                                                   PHY_LoadNR
                                                   PHY_Reset
                                                   PHY_VerifyNR
                                                   Segment part 183
                                                   Segment part 86
    -------------------------------------------------------------------------
<BANKED_CODE,CODE_C> 1 (was BANKED_CODE)
  Relative segment, address: CODE 00002FF8 - 00002FFD (0x6 bytes), align: 0
  Segment part 212.           Intra module refs:   Segment part 132
    -------------------------------------------------------------------------
<BANKED_CODE,CODE_C> 1 (was BANKED_CODE)
  Relative segment, address: CODE 00002FFE - 00003075 (0x78 bytes), align: 0
  Segment part 220.           Intra module refs:   phyFindWlEntry::?relay
           LOCAL                   ADDRESS         
           =====                   =======         
           phyFindWlEntry          00002FFE 
               XSTACK = 0000000C ( 0000000B )
    -------------------------------------------------------------------------
<BANKED_CODE,CODE_C> 1 (was BANKED_CODE)
  Relative segment, address: CODE 00003076 - 0000307A (0x5 bytes), align: 0
  Segment part 222.           Intra module refs:   phyFindWlEntry
    -------------------------------------------------------------------------
BANK_RELAYS
  Relative segment, address: CODE 00000401 - 00000406 (0x6 bytes), align: 0
  Segment part 13.
           ENTRY                   ADDRESS         REF BY
           =====                   =======         ======
           PHY_Init::?relay        00000401        LL_Init (ll)
    -------------------------------------------------------------------------
BANK_RELAYS
  Relative segment, address: CODE 00000407 - 0000040C (0x6 bytes), align: 0
  Segment part 19.            Intra module refs:   PHY_Init
           ENTRY                   ADDRESS         REF BY
           =====                   =======         ======
           PHY_Reset::?relay       00000407        LL_PowerOffReq (ll_sleep)
                                                   llScheduleTask (ll_scheduler)
    -------------------------------------------------------------------------
BANK_RELAYS
  Relative segment, address: CODE 0000040D - 00000412 (0x6 bytes), align: 0
  Segment part 21.            Intra module refs:   PHY_Init
           ENTRY                   ADDRESS         REF BY
           =====                   =======         ======
           PHY_LoadNR::?relay      0000040D 
    -------------------------------------------------------------------------
BANK_RELAYS
  Relative segment, address: CODE 00000413 - 00000418 (0x6 bytes), align: 0
  Segment part 23.            Intra module refs:   PHY_Init
           ENTRY                   ADDRESS         REF BY
           =====                   =======         ======
           PHY_VerifyNR::?relay    00000413 
    -------------------------------------------------------------------------
BANK_RELAYS
  Relative segment, address: CODE 00000419 - 0000041E (0x6 bytes), align: 0
  Segment part 26.            Intra module refs:   PHY_Init
           ENTRY                   ADDRESS         REF BY
           =====                   =======         ======
           PHY_ClearAllRegsAndFifos::?relay
                                   00000419        LL_Reset (ll)
    -------------------------------------------------------------------------
BANK_RELAYS
  Relative segment, address: CODE 0000041F - 00000424 (0x6 bytes), align: 0
  Segment part 34.
           ENTRY                   ADDRESS         REF BY
           =====                   =======         ======
           PHY_SetOwnAddr::?relay
                                   0000041F        llSetupScan (ll_common)
    -------------------------------------------------------------------------
BANK_RELAYS
  Relative segment, address: CODE 00000425 - 0000042A (0x6 bytes), align: 0
  Segment part 44.
           ENTRY                   ADDRESS         REF BY
           =====                   =======         ======
           PHY_SetCRCInit::?relay
                                   00000425        LL_Reset (ll)
                                                   llSetupScan (ll_common)
    -------------------------------------------------------------------------
BANK_RELAYS
  Relative segment, address: CODE 0000042B - 00000430 (0x6 bytes), align: 0
  Segment part 51.
           ENTRY                   ADDRESS         REF BY
           =====                   =======         ======
           PHY_SetEndConnection::?relay
                                   0000042B        RF_NormalIsr (ll_isr)
    -------------------------------------------------------------------------
BANK_RELAYS
  Relative segment, address: CODE 00000431 - 00000436 (0x6 bytes), align: 0
  Segment part 53.
           ENTRY                   ADDRESS         REF BY
           =====                   =======         ======
           PHY_ConfigureMD::?relay
                                   00000431        LL_Reset (ll)
    -------------------------------------------------------------------------
BANK_RELAYS
  Relative segment, address: CODE 00000437 - 0000043C (0x6 bytes), align: 0
  Segment part 55.
           ENTRY                   ADDRESS         REF BY
           =====                   =======         ======
           PHY_SetBackoffCnt::?relay
                                   00000437        llGenerateNextBackoffCount (ll_scanEndCauses)
                                                   llSetupScanInit (ll_common)
    -------------------------------------------------------------------------
BANK_RELAYS
  Relative segment, address: CODE 0000043D - 00000442 (0x6 bytes), align: 0
  Segment part 57.
           ENTRY                   ADDRESS         REF BY
           =====                   =======         ======
           PHY_SetScanMode::?relay
                                   0000043D        llSetupScan (ll_common)
    -------------------------------------------------------------------------
BANK_RELAYS
  Relative segment, address: CODE 00000443 - 00000448 (0x6 bytes), align: 0
  Segment part 59.
           ENTRY                   ADDRESS         REF BY
           =====                   =======         ======
           PHY_SetScanEnd::?relay
                                   00000443        llSetupScan (ll_common)
    -------------------------------------------------------------------------
BANK_RELAYS
  Relative segment, address: CODE 00000449 - 0000044E (0x6 bytes), align: 0
  Segment part 61.
           ENTRY                   ADDRESS         REF BY
           =====                   =======         ======
           PHY_GetEndCause::?relay
                                   00000449        RF_NormalIsr (ll_isr)
    -------------------------------------------------------------------------
BANK_RELAYS
  Relative segment, address: CODE 0000044F - 00000454 (0x6 bytes), align: 0
  Segment part 71.
           ENTRY                   ADDRESS         REF BY
           =====                   =======         ======
           PHY_SetSyncWord::?relay
                                   0000044F        llSetupScan (ll_common)
    -------------------------------------------------------------------------
BANK_RELAYS
  Relative segment, address: CODE 00000455 - 0000045A (0x6 bytes), align: 0
  Segment part 75.
           ENTRY                   ADDRESS         REF BY
           =====                   =======         ======
           PHY_ClearWhitelist::?relay
                                   00000455        LL_Reset (ll)
                                                   LL_SetScanControl (ll)
                                                   llScheduler (ll_scheduler)
                                                   llSetupScanInit (ll_common)
    -------------------------------------------------------------------------
BANK_RELAYS
  Relative segment, address: CODE 0000045B - 00000460 (0x6 bytes), align: 0
  Segment part 90.
           ENTRY                   ADDRESS         REF BY
           =====                   =======         ======
           PHY_AddWlEntry::?relay
                                   0000045B        llProcessScanRxFIFO (ll_scanEndCauses)
    -------------------------------------------------------------------------
BANK_RELAYS
  Relative segment, address: CODE 00000461 - 00000466 (0x6 bytes), align: 0
  Segment part 98.
           ENTRY                   ADDRESS         REF BY
           =====                   =======         ======
           PHY_SetScanWlPolicy::?relay
                                   00000461        LL_SetScanParam (ll)
    -------------------------------------------------------------------------
BANK_RELAYS
  Relative segment, address: CODE 00000467 - 0000046C (0x6 bytes), align: 0
  Segment part 102.           Intra module refs:   PHY_AddWlEntry
                                                   PHY_SetBlacklistEntry
           ENTRY                   ADDRESS         REF BY
           =====                   =======         ======
           PHY_SetBlacklistIndex::?relay
                                   00000467 
    -------------------------------------------------------------------------
BANK_RELAYS
  Relative segment, address: CODE 0000046D - 00000472 (0x6 bytes), align: 0
  Segment part 104.
           ENTRY                   ADDRESS         REF BY
           =====                   =======         ======
           PHY_SetBlacklistEntry::?relay
                                   0000046D        llProcessScanRxFIFO (ll_scanEndCauses)
    -------------------------------------------------------------------------
BANK_RELAYS
  Relative segment, address: CODE 00000473 - 00000478 (0x6 bytes), align: 0
  Segment part 107.           Intra module refs:   PHY_AddWlEntry
           ENTRY                   ADDRESS         REF BY
           =====                   =======         ======
           PHY_ClearBlacklistIndex::?relay
                                   00000473 
    -------------------------------------------------------------------------
BANK_RELAYS
  Relative segment, address: CODE 00000479 - 0000047E (0x6 bytes), align: 0
  Segment part 109.
           ENTRY                   ADDRESS         REF BY
           =====                   =======         ======
           PHY_ClearBlacklist::?relay
                                   00000479        LL_Reset (ll)
                                                   LL_SetScanControl (ll)
                                                   llScheduler (ll_scheduler)
                                                   llSetupScanInit (ll_common)
    -------------------------------------------------------------------------
BANK_RELAYS
  Relative segment, address: CODE 0000047F - 00000484 (0x6 bytes), align: 0
  Segment part 111.
           ENTRY                   ADDRESS         REF BY
           =====                   =======         ======
           PHY_SaveWhiteList::?relay
                                   0000047F        llScheduler (ll_scheduler)
                                                   llSetupScanInit (ll_common)
    -------------------------------------------------------------------------
BANK_RELAYS
  Relative segment, address: CODE 00000485 - 0000048A (0x6 bytes), align: 0
  Segment part 114.
           ENTRY                   ADDRESS         REF BY
           =====                   =======         ======
           PHY_RestoreWhiteList::?relay
                                   00000485        LL_SetScanControl (ll)
                                                   llScheduler (ll_scheduler)
    -------------------------------------------------------------------------
BANK_RELAYS
  Relative segment, address: CODE 0000048B - 00000490 (0x6 bytes), align: 0
  Segment part 122.
           ENTRY                   ADDRESS         REF BY
           =====                   =======         ======
           PHY_ClearSavedWhiteList::?relay
                                   0000048B        LL_Reset (ll)
                                                   llSetupScanInit (ll_common)
    -------------------------------------------------------------------------
BANK_RELAYS
  Relative segment, address: CODE 00000491 - 00000496 (0x6 bytes), align: 0
  Segment part 135.
           ENTRY                   ADDRESS         REF BY
           =====                   =======         ======
           PHY_ConfigureFifoDataProcessing::?relay
                                   00000491        LL_Reset (ll)
    -------------------------------------------------------------------------
BANK_RELAYS
  Relative segment, address: CODE 00000497 - 0000049C (0x6 bytes), align: 0
  Segment part 137.
           ENTRY                   ADDRESS         REF BY
           =====                   =======         ======
           PHY_ConfigureAppendRfStatus::?relay
                                   00000497        LL_Reset (ll)
                                                   LL_SetScanControl (ll)
                                                   llSetupScan (ll_common)
    -------------------------------------------------------------------------
BANK_RELAYS
  Relative segment, address: CODE 0000049D - 000004A2 (0x6 bytes), align: 0
  Segment part 139.
           ENTRY                   ADDRESS         REF BY
           =====                   =======         ======
           PHY_SetFifoConfig::?relay
                                   0000049D        LL_Reset (ll)
    -------------------------------------------------------------------------
BANK_RELAYS
  Relative segment, address: CODE 000004A3 - 000004A8 (0x6 bytes), align: 0
  Segment part 152.
           ENTRY                   ADDRESS         REF BY
           =====                   =======         ======
           PHY_ConfigWhitener::?relay
                                   000004A3        llRfInit (ll_common)
    -------------------------------------------------------------------------
BANK_RELAYS
  Relative segment, address: CODE 000004A9 - 000004AE (0x6 bytes), align: 0
  Segment part 176.
           ENTRY                   ADDRESS         REF BY
           =====                   =======         ======
           PHY_DeallocateRxFifo::?relay
                                   000004A9        llProcessScanRxFIFO (ll_scanEndCauses)
    -------------------------------------------------------------------------
BANK_RELAYS
  Relative segment, address: CODE 000004AF - 000004B4 (0x6 bytes), align: 0
  Segment part 221.           Intra module refs:   PHY_AddWlEntry
                                                   PHY_SetBlacklistEntry
           LOCAL                   ADDRESS         
           =====                   =======         
           phyFindWlEntry::?relay
                                   000004AF 

    -------------------------------------------------------------------------
  LIBRARY MODULE, NAME : phy_image

  SEGMENTS IN THE MODULE
  ======================
<XDATA_ROM_C> 1 (was XDATA_ROM_C)
  Relative segment, address: CONST 00008000 - 00008DFD (0xdfe bytes), align: 0
  Segment part 6.
           ENTRY                   ADDRESS         REF BY
           =====                   =======         ======
           NanoRiscImage           00008000        Segment part 24 (phy)
    -------------------------------------------------------------------------
<XDATA_ROM_C_FLASH> 1 (was XDATA_ROM_C_FLASH)
  Relative segment, address: CODE 00008000 - 00008DFD (0xdfe bytes), align: 0
  Segment part 7.             Intra module refs:   NanoRiscImage

    *************************************************************************

  FILE NAME : C:\Users\MON\Desktop\IAR_TPMS\IAR Systems\SDK\BLE-CC254x-1.4.0\Projects\ble\Libraries\Common\bin\CC254x_BLE_HCI_TL_None.lib
  LIBRARY MODULE, NAME : hci_tl

  SEGMENTS IN THE MODULE
  ======================
XDATA_Z
  Relative segment, address: XDATA 0000033C - 0000033C (0x1 bytes), align: 0
  Segment part 6.             Intra module refs:   HCI_Init
                                                   HCI_ProcessEvent
           ENTRY                   ADDRESS         REF BY
           =====                   =======         ======
           hciTaskID               0000033C        HCI_SendCommandCompleteEvent (hci_event)
                                                   LL_AdvReportCback (hci_event)
    -------------------------------------------------------------------------
XDATA_Z
  Relative segment, address: XDATA 0000033D - 0000033D (0x1 bytes), align: 0
  Segment part 7.             Intra module refs:   HCI_Init
           ENTRY                   ADDRESS         REF BY
           =====                   =======         ======
           hciTestTaskID           0000033D 
    -------------------------------------------------------------------------
XDATA_Z
  Relative segment, address: XDATA 0000033E - 0000033E (0x1 bytes), align: 0
  Segment part 8.             Intra module refs:   HCI_GAPTaskRegister
                                                   HCI_Init
           ENTRY                   ADDRESS         REF BY
           =====                   =======         ======
           hciGapTaskID            0000033E        HCI_CommandCompleteEvent (hci_event)
                                                   LL_AdvReportCback (hci_event)
    -------------------------------------------------------------------------
XDATA_Z
  Relative segment, address: XDATA 0000033F - 0000033F (0x1 bytes), align: 0
  Segment part 9.             Intra module refs:   HCI_Init
           ENTRY                   ADDRESS         REF BY
           =====                   =======         ======
           hciL2capTaskID          0000033F 
    -------------------------------------------------------------------------
XDATA_Z
  Relative segment, address: XDATA 00000340 - 00000340 (0x1 bytes), align: 0
  Segment part 10.            Intra module refs:   HCI_Init
           ENTRY                   ADDRESS         REF BY
           =====                   =======         ======
           hciSmpTaskID            00000340        HCI_CommandCompleteEvent (hci_event)
    -------------------------------------------------------------------------
XDATA_Z
  Relative segment, address: XDATA 00000341 - 00000341 (0x1 bytes), align: 0
  Segment part 11.            Intra module refs:   HCI_Init
           ENTRY                   ADDRESS         REF BY
           =====                   =======         ======
           hciExtTaskID            00000341 
    -------------------------------------------------------------------------
<BANKED_CODE,CODE_C> 1 (was BANKED_CODE)
  Relative segment, address: CODE 0000733D - 00007368 (0x2c bytes), align: 0
  Segment part 13.            Intra module refs:   HCI_Init::?relay
           ENTRY                   ADDRESS         REF BY
           =====                   =======         ======
           HCI_Init                0000733D 
               calls direct
               XSTACK = 00000000 ( 00000009 )
    -------------------------------------------------------------------------
<BANKED_CODE,CODE_C> 1 (was BANKED_CODE)
  Relative segment, address: CODE 00007369 - 000073C3 (0x5b bytes), align: 0
  Segment part 15.            Intra module refs:   HCI_ProcessEvent::?relay
           ENTRY                   ADDRESS         REF BY
           =====                   =======         ======
           HCI_ProcessEvent        00007369 
               calls direct
               XSTACK = 00000000 ( 0000000C )
    -------------------------------------------------------------------------
<BANKED_CODE,CODE_C> 1 (was BANKED_CODE)
  Relative segment, address: CODE 000073C4 - 000073CD (0xa bytes), align: 0
  Segment part 19.            Intra module refs:   HCI_GAPTaskRegister::?relay
           ENTRY                   ADDRESS         REF BY
           =====                   =======         ======
           HCI_GAPTaskRegister     000073C4 
               ISTACK = 00000000 ( 00000002 )
    -------------------------------------------------------------------------
<BANKED_CODE,CODE_C> 1 (was BANKED_CODE)
  Relative segment, address: CODE 000073CE - 000073D5 (0x8 bytes), align: 0
  Segment part 23.            Intra module refs:   HCI_GAPTaskRegister
    -------------------------------------------------------------------------
BANK_RELAYS
  Relative segment, address: CODE 000004B5 - 000004BA (0x6 bytes), align: 0
  Segment part 14.
           ENTRY                   ADDRESS         REF BY
           =====                   =======         ======
           HCI_Init::?relay        000004B5        osalInitTasks (OSAL_TPMS_OBD)
    -------------------------------------------------------------------------
BANK_RELAYS
  Relative segment, address: CODE 000004BB - 000004C0 (0x6 bytes), align: 0
  Segment part 16.
           ENTRY                   ADDRESS         REF BY
           =====                   =======         ======
           HCI_ProcessEvent::?relay
                                   000004BB        tasksArr (OSAL_TPMS_OBD)
    -------------------------------------------------------------------------
BANK_RELAYS
  Relative segment, address: CODE 000004C1 - 000004C6 (0x6 bytes), align: 0
  Segment part 20.
           ENTRY                   ADDRESS         REF BY
           =====                   =======         ======
           HCI_GAPTaskRegister::?relay
                                   000004C1        GAP_Init (gap_simpletask)

    *************************************************************************

  FILE NAME : C:\Users\MON\Desktop\IAR_TPMS\IAR Systems\SDK\BLE-CC254x-1.4.0\Projects\ble\TPMS_OBD\CC2540DB\CC2540EM\Obj\OSAL.r51
  PROGRAM MODULE, NAME : OSAL

  SEGMENTS IN THE MODULE
  ======================
XDATA_Z
  Relative segment, address: XDATA 00000342 - 00000343 (0x2 bytes), align: 0
  Segment part 11.            Intra module refs:   osal_init_system
                                                   osal_msg_enqueue_push
                                                   osal_msg_receive
           ENTRY                   ADDRESS         REF BY
           =====                   =======         ======
           osal_qHead              00000342 
    -------------------------------------------------------------------------
XDATA_I
  Relative segment, address: XDATA 000004F1 - 000004F1 (0x1 bytes), align: 0
  Segment part 12.            Intra module refs:   osal_run_system
           LOCAL                   ADDRESS         
           =====                   =======         
           activeTaskID            000004F1 
    -------------------------------------------------------------------------
<BANKED_CODE,CODE_C> 1 (was BANKED_CODE)
  Relative segment, address: CODE 00004ACB - 00004B08 (0x3e bytes), align: 0
  Segment part 18.            Intra module refs:   osal_memcpy::?relay
           ENTRY                   ADDRESS         REF BY
           =====                   =======         ======
           osal_memcpy             00004ACB 
               XSTACK = 00000010 ( 00000009 )
               ISTACK = 00000000 ( 00000001 )
    -------------------------------------------------------------------------
<BANKED_CODE,CODE_C> 1 (was BANKED_CODE)
  Relative segment, address: CODE 00004B09 - 00004B62 (0x5a bytes), align: 0
  Segment part 24.            Intra module refs:   osal_memcmp::?relay
           ENTRY                   ADDRESS         REF BY
           =====                   =======         ======
           osal_memcmp             00004B09 
               XSTACK = 00000002 ( 0000000B )
    -------------------------------------------------------------------------
<BANKED_CODE,CODE_C> 1 (was BANKED_CODE)
  Relative segment, address: CODE 00004B63 - 00004B83 (0x21 bytes), align: 0
  Segment part 26.            Intra module refs:   osal_memset::?relay
           ENTRY                   ADDRESS         REF BY
           =====                   =======         ======
           osal_memset             00004B63 
               calls direct
               XSTACK = 00000000 ( 0000000C )
    -------------------------------------------------------------------------
<BANKED_CODE,CODE_C> 1 (was BANKED_CODE)
  Relative segment, address: CODE 00004B84 - 00004BD4 (0x51 bytes), align: 0
  Segment part 41.            Intra module refs:   osal_msg_allocate::?relay
           ENTRY                   ADDRESS         REF BY
           =====                   =======         ======
           osal_msg_allocate       00004B84 
               calls direct
               XSTACK = 00000000 ( 0000000A )
    -------------------------------------------------------------------------
<BANKED_CODE,CODE_C> 1 (was BANKED_CODE)
  Relative segment, address: CODE 00004BD5 - 00004BF6 (0x22 bytes), align: 0
  Segment part 43.            Intra module refs:   osal_msg_deallocate::?relay
           ENTRY                   ADDRESS         REF BY
           =====                   =======         ======
           osal_msg_deallocate     00004BD5 
               calls direct
               XSTACK = 00000009 ( 00000000 )
               ISTACK = 00000000 ( 00000002 )
    -------------------------------------------------------------------------
<BANKED_CODE,CODE_C> 1 (was BANKED_CODE)
  Relative segment, address: CODE 00004BF7 - 00004BFD (0x7 bytes), align: 0
  Segment part 45.            Intra module refs:   osal_init_system
                                                   osal_msg_deallocate
           LOCAL                   ADDRESS         
           =====                   =======         
           ?Subroutine0            00004BF7 
    -------------------------------------------------------------------------
<BANKED_CODE,CODE_C> 1 (was BANKED_CODE)
  Relative segment, address: CODE 00004BFE - 00004C07 (0xa bytes), align: 0
  Segment part 46.            Intra module refs:   osal_msg_send::?relay
           ENTRY                   ADDRESS         REF BY
           =====                   =======         ======
           osal_msg_send           00004BFE 
               calls direct
               XSTACK = 00000000 ( 00000009 )
    -------------------------------------------------------------------------
<BANKED_CODE,CODE_C> 1 (was BANKED_CODE)
  Relative segment, address: CODE 00004C08 - 00004C66 (0x5f bytes), align: 0
  Segment part 50.            Intra module refs:   osal_msg_enqueue_push::?relay
           LOCAL                   ADDRESS         
           =====                   =======         
           osal_msg_enqueue_push   00004C08 
               calls direct
               XSTACK = 00000009 ( 00000009 )
               ISTACK = 00000000 ( 00000001 )
    -------------------------------------------------------------------------
<BANKED_CODE,CODE_C> 1 (was BANKED_CODE)
  Relative segment, address: CODE 00004C67 - 00004C73 (0xd bytes), align: 0
  Segment part 52.            Intra module refs:   osal_msg_deallocate
                                                   osal_msg_enqueue_push
           LOCAL                   ADDRESS         
           =====                   =======         
           ?Subroutine13           00004C67 
    -------------------------------------------------------------------------
<BANKED_CODE,CODE_C> 1 (was BANKED_CODE)
  Relative segment, address: CODE 00004C74 - 00004CF6 (0x83 bytes), align: 0
  Segment part 53.            Intra module refs:   osal_msg_receive::?relay
           ENTRY                   ADDRESS         REF BY
           =====                   =======         ======
           osal_msg_receive        00004C74 
               calls direct
               XSTACK = 00000000 ( 0000000E )
    -------------------------------------------------------------------------
<BANKED_CODE,CODE_C> 1 (was BANKED_CODE)
  Relative segment, address: CODE 00004CF7 - 00004CFB (0x5 bytes), align: 0
  Segment part 55.            Intra module refs:   osal_msg_extract
                                                   osal_msg_receive
                                                   osal_run_system
           LOCAL                   ADDRESS         
           =====                   =======         
           ?Subroutine4            00004CF7 
    -------------------------------------------------------------------------
<BANKED_CODE,CODE_C> 1 (was BANKED_CODE)
  Relative segment, address: CODE 00004CFC - 00004D01 (0x6 bytes), align: 0
  Segment part 59.            Intra module refs:   osal_run_system
    -------------------------------------------------------------------------
<BANKED_CODE,CODE_C> 1 (was BANKED_CODE)
  Relative segment, address: CODE 00004D02 - 00004D38 (0x37 bytes), align: 0
  Segment part 60.            Intra module refs:   osal_msg_enqueue::?relay
           ENTRY                   ADDRESS         REF BY
           =====                   =======         ======
           osal_msg_enqueue        00004D02 
               XSTACK = 00000009 ( 00000009 )
    -------------------------------------------------------------------------
<BANKED_CODE,CODE_C> 1 (was BANKED_CODE)
  Relative segment, address: CODE 00004D39 - 00004D3C (0x4 bytes), align: 0
  Segment part 62.            Intra module refs:   osal_msg_enqueue
                                                   osal_msg_push
           LOCAL                   ADDRESS         
           =====                   =======         
           ?Subroutine5            00004D39 
    -------------------------------------------------------------------------
<BANKED_CODE,CODE_C> 1 (was BANKED_CODE)
  Relative segment, address: CODE 00004D3D - 00004D3F (0x3 bytes), align: 0
  Segment part 63.            Intra module refs:   osal_msg_send
           LOCAL                   ADDRESS         
           =====                   =======         
           ?Subroutine1            00004D3D 
    -------------------------------------------------------------------------
<BANKED_CODE,CODE_C> 1 (was BANKED_CODE)
  Relative segment, address: CODE 00004D40 - 00004D44 (0x5 bytes), align: 0
  Segment part 64.            Intra module refs:   ?Subroutine1
                                                   ?Subroutine5
                                                   osal_clear_event
                                                   osal_memcpy
                                                   osal_msg_enqueue_push
                                                   osal_set_event
    -------------------------------------------------------------------------
<BANKED_CODE,CODE_C> 1 (was BANKED_CODE)
  Relative segment, address: CODE 00004D45 - 00004D49 (0x5 bytes), align: 0
  Segment part 67.            Intra module refs:   osal_memset
                                                   osal_msg_allocate
           LOCAL                   ADDRESS         
           =====                   =======         
           ?Subroutine2            00004D45 
    -------------------------------------------------------------------------
<BANKED_CODE,CODE_C> 1 (was BANKED_CODE)
  Relative segment, address: CODE 00004D4A - 00004D4F (0x6 bytes), align: 0
  Segment part 69.            Intra module refs:   osal_msg_enqueue
                                                   osal_msg_enqueue_push
                                                   osal_msg_receive
                                                   osal_run_system
    -------------------------------------------------------------------------
<BANKED_CODE,CODE_C> 1 (was BANKED_CODE)
  Relative segment, address: CODE 00004D50 - 00004D7F (0x30 bytes), align: 0
  Segment part 70.            Intra module refs:   osal_msg_push::?relay
           ENTRY                   ADDRESS         REF BY
           =====                   =======         ======
           osal_msg_push           00004D50 
               XSTACK = 00000009 ( 00000009 )
    -------------------------------------------------------------------------
<BANKED_CODE,CODE_C> 1 (was BANKED_CODE)
  Relative segment, address: CODE 00004D80 - 00004D85 (0x6 bytes), align: 0
  Segment part 72.            Intra module refs:   Segment part 69
                                                   osal_memcpy
                                                   osal_msg_extract
                                                   osal_msg_push
           LOCAL                   ADDRESS         
           =====                   =======         
           ?Subroutine19           00004D80 
    -------------------------------------------------------------------------
<BANKED_CODE,CODE_C> 1 (was BANKED_CODE)
  Relative segment, address: CODE 00004D86 - 00004DF4 (0x6f bytes), align: 0
  Segment part 73.            Intra module refs:   osal_msg_extract::?relay
           ENTRY                   ADDRESS         REF BY
           =====                   =======         ======
           osal_msg_extract        00004D86 
               XSTACK = 0000000E ( 0000000C )
    -------------------------------------------------------------------------
<BANKED_CODE,CODE_C> 1 (was BANKED_CODE)
  Relative segment, address: CODE 00004DF5 - 00004DF7 (0x3 bytes), align: 0
  Segment part 75.            Intra module refs:   osal_msg_enqueue_push
           LOCAL                   ADDRESS         
           =====                   =======         
           ?Subroutine14           00004DF5 
    -------------------------------------------------------------------------
<BANKED_CODE,CODE_C> 1 (was BANKED_CODE)
  Relative segment, address: CODE 00004DF8 - 00004DFA (0x3 bytes), align: 0
  Segment part 76.            Intra module refs:   ?Subroutine14
    -------------------------------------------------------------------------
<BANKED_CODE,CODE_C> 1 (was BANKED_CODE)
  Relative segment, address: CODE 00004DFB - 00004DFF (0x5 bytes), align: 0
  Segment part 77.            Intra module refs:   Segment part 76
                                                   osal_msg_enqueue
                                                   osal_msg_extract
                                                   osal_msg_push
                                                   osal_msg_receive
    -------------------------------------------------------------------------
<BANKED_CODE,CODE_C> 1 (was BANKED_CODE)
  Relative segment, address: CODE 00004E00 - 00004E0C (0xd bytes), align: 0
  Segment part 80.            Intra module refs:   osal_msg_enqueue
           LOCAL                   ADDRESS         
           =====                   =======         
           ?Subroutine17           00004E00 
    -------------------------------------------------------------------------
<BANKED_CODE,CODE_C> 1 (was BANKED_CODE)
  Relative segment, address: CODE 00004E0D - 00004E4C (0x40 bytes), align: 0
  Segment part 81.            Intra module refs:   osal_set_event::?relay
           ENTRY                   ADDRESS         REF BY
           =====                   =======         ======
           osal_set_event          00004E0D 
               XSTACK = 0000000C ( 00000009 )
    -------------------------------------------------------------------------
<BANKED_CODE,CODE_C> 1 (was BANKED_CODE)
  Relative segment, address: CODE 00004E4D - 00004E84 (0x38 bytes), align: 0
  Segment part 83.            Intra module refs:   osal_clear_event::?relay
           ENTRY                   ADDRESS         REF BY
           =====                   =======         ======
           osal_clear_event        00004E4D 
               XSTACK = 0000000C ( 00000009 )
    -------------------------------------------------------------------------
<BANKED_CODE,CODE_C> 1 (was BANKED_CODE)
  Relative segment, address: CODE 00004E85 - 00004E96 (0x12 bytes), align: 0
  Segment part 89.            Intra module refs:   osal_int_disable::?relay
           ENTRY                   ADDRESS         REF BY
           =====                   =======         ======
           osal_int_disable        00004E85 
    -------------------------------------------------------------------------
<BANKED_CODE,CODE_C> 1 (was BANKED_CODE)
  Relative segment, address: CODE 00004E97 - 00004EB5 (0x1f bytes), align: 0
  Segment part 91.            Intra module refs:   osal_init_system::?relay
           ENTRY                   ADDRESS         REF BY
           =====                   =======         ======
           osal_init_system        00004E97 
               calls direct
               ISTACK = 00000000 ( 00000002 )
    -------------------------------------------------------------------------
<BANKED_CODE,CODE_C> 1 (was BANKED_CODE)
  Relative segment, address: CODE 00004EB6 - 00004EBE (0x9 bytes), align: 0
  Segment part 93.            Intra module refs:   osal_start_system::?relay
           ENTRY                   ADDRESS         REF BY
           =====                   =======         ======
           osal_start_system       00004EB6 
               calls direct
               ISTACK = 00000000 ( 00000002 )
    -------------------------------------------------------------------------
<BANKED_CODE,CODE_C> 1 (was BANKED_CODE)
  Relative segment, address: CODE 00004EBF - 00004F62 (0xa4 bytes), align: 0
  Segment part 95.            Intra module refs:   osal_run_system::?relay
           ENTRY                   ADDRESS         REF BY
           =====                   =======         ======
           osal_run_system         00004EBF 
               calls direct
               XSTACK = 00000000 ( 0000000C )
    -------------------------------------------------------------------------
<BANKED_CODE,CODE_C> 1 (was BANKED_CODE)
  Relative segment, address: CODE 00004F63 - 00004F6B (0x9 bytes), align: 0
  Segment part 97.            Intra module refs:   osal_run_system
           LOCAL                   ADDRESS         
           =====                   =======         
           ?Subroutine11           00004F63 
    -------------------------------------------------------------------------
<BANKED_CODE,CODE_C> 1 (was BANKED_CODE)
  Relative segment, address: CODE 00004F6C - 00004F7D (0x12 bytes), align: 0
  Segment part 98.            Intra module refs:   osal_clear_event
                                                   osal_run_system
           LOCAL                   ADDRESS         
           =====                   =======         
           ?Subroutine10           00004F6C 
    -------------------------------------------------------------------------
XDATA_ID
  Relative segment, address: CODE 000001B9 - 000001B9 (0x1 bytes), align: 0
  Segment part 13.            Intra module refs:   activeTaskID
    -------------------------------------------------------------------------
BANK_RELAYS
  Relative segment, address: CODE 000004C7 - 000004CC (0x6 bytes), align: 0
  Segment part 19.
           ENTRY                   ADDRESS         REF BY
           =====                   =======         ======
           osal_memcpy::?relay     000004C7        GAPObserverRole_ProcessEvent (observer)
                                                   GAP_DeviceDiscoveryRequest (gap_centdevmgr)
                                                   HCI_CommandCompleteEvent (hci_event)
                                                   HCI_SendCommandCompleteEvent (hci_event)
                                                   LL_AdvReportCback (hci_event)
                                                   LL_RandCback (hci)
                                                   TPMS_OBDEventCB (TPMS_OBD)
                                                   gapProcessAdvertDevInfo (gap_centdevmgr)
                                                   gapProcessRandomAddrComplete (gap_configmgr)
                                                   gapReadBD_ADDRStatus (gap_configmgr)
                                                   gapSendDevDiscEvent (gap_centdevmgr)
                                                   gapSendDeviceInfoEvent (gap_centdevmgr)
                                                   gapSendDeviceInitDoneEvent (gap_configmgr)
                                                   simpleBLEAddDeviceInfo (TPMS_OBD)
    -------------------------------------------------------------------------
BANK_RELAYS
  Relative segment, address: CODE 000004CD - 000004D2 (0x6 bytes), align: 0
  Segment part 25.
           ENTRY                   ADDRESS         REF BY
           =====                   =======         ======
           osal_memcmp::?relay     000004CD        gapProcessAdvertDevInfo (gap_centdevmgr)
                                                   simpleBLEAddDeviceInfo (TPMS_OBD)
                                                   verifyWordM (osal_snv)
    -------------------------------------------------------------------------
BANK_RELAYS
  Relative segment, address: CODE 000004D3 - 000004D8 (0x6 bytes), align: 0
  Segment part 27.
           ENTRY                   ADDRESS         REF BY
           =====                   =======         ======
           osal_memset::?relay     000004D3        GAP_CentDevMgrInit (gap_centdevmgr)
                                                   GAP_ParamsInit (gap_configmgr)
                                                   gapFreeScanRecs (gap_centdevmgr)
                                                   osalInitTasks (OSAL_TPMS_OBD)
                                                   osal_CbTimerInit (osal_cbtimer)
    -------------------------------------------------------------------------
BANK_RELAYS
  Relative segment, address: CODE 000004D9 - 000004DE (0x6 bytes), align: 0
  Segment part 42.
           ENTRY                   ADDRESS         REF BY
           =====                   =======         ======
           osal_msg_allocate::?relay
                                   000004D9        HCI_CommandCompleteEvent (hci_event)
                                                   HCI_SendCommandCompleteEvent (hci_event)
                                                   LL_AdvReportCback (hci_event)
                                                   OnBoard_SendKeys (OnBoard)
                                                   gapProcessRandomAddrComplete (gap_configmgr)
                                                   gapSendDevDiscEvent (gap_centdevmgr)
                                                   gapSendDeviceInfoEvent (gap_centdevmgr)
                                                   gapSendDeviceInitDoneEvent (gap_configmgr)
    -------------------------------------------------------------------------
BANK_RELAYS
  Relative segment, address: CODE 000004DF - 000004E4 (0x6 bytes), align: 0
  Segment part 44.            Intra module refs:   osal_msg_enqueue_push
           ENTRY                   ADDRESS         REF BY
           =====                   =======         ======
           osal_msg_deallocate::?relay
                                   000004DF        GAPObserverRole_ProcessEvent (observer)
                                                   GAP_ProcessEvent (gap_simpletask)
                                                   HCI_ProcessEvent (hci_tl)
                                                   Hal_ProcessEvent (hal_drivers)
                                                   TPMS_OBD_ProcessEvent (TPMS_OBD)
    -------------------------------------------------------------------------
BANK_RELAYS
  Relative segment, address: CODE 000004E5 - 000004EA (0x6 bytes), align: 0
  Segment part 47.
           ENTRY                   ADDRESS         REF BY
           =====                   =======         ======
           osal_msg_send::?relay   000004E5        GAP_ProcessEvent (gap_simpletask)
                                                   HCI_CommandCompleteEvent (hci_event)
                                                   HCI_SendCommandCompleteEvent (hci_event)
                                                   LL_AdvReportCback (hci_event)
                                                   OnBoard_SendKeys (OnBoard)
                                                   gapProcessRandomAddrComplete (gap_configmgr)
                                                   gapSendDevDiscEvent (gap_centdevmgr)
                                                   gapSendDeviceInfoEvent (gap_centdevmgr)
                                                   gapSendDeviceInitDoneEvent (gap_configmgr)
    -------------------------------------------------------------------------
BANK_RELAYS
  Relative segment, address: CODE 000004EB - 000004F0 (0x6 bytes), align: 0
  Segment part 51.            Intra module refs:   ?Subroutine1
           LOCAL                   ADDRESS         
           =====                   =======         
           osal_msg_enqueue_push::?relay
                                   000004EB 
    -------------------------------------------------------------------------
BANK_RELAYS
  Relative segment, address: CODE 000004F1 - 000004F6 (0x6 bytes), align: 0
  Segment part 54.
           ENTRY                   ADDRESS         REF BY
           =====                   =======         ======
           osal_msg_receive::?relay
                                   000004F1        GAPObserverRole_ProcessEvent (observer)
                                                   GAP_ProcessEvent (gap_simpletask)
                                                   HCI_ProcessEvent (hci_tl)
                                                   Hal_ProcessEvent (hal_drivers)
                                                   TPMS_OBD_ProcessEvent (TPMS_OBD)
    -------------------------------------------------------------------------
BANK_RELAYS
  Relative segment, address: CODE 000004F7 - 000004FC (0x6 bytes), align: 0
  Segment part 61.            Intra module refs:   osal_msg_enqueue_push
           ENTRY                   ADDRESS         REF BY
           =====                   =======         ======
           osal_msg_enqueue::?relay
                                   000004F7 
    -------------------------------------------------------------------------
BANK_RELAYS
  Relative segment, address: CODE 000004FD - 00000502 (0x6 bytes), align: 0
  Segment part 71.            Intra module refs:   osal_msg_enqueue_push
           ENTRY                   ADDRESS         REF BY
           =====                   =======         ======
           osal_msg_push::?relay   000004FD 
    -------------------------------------------------------------------------
BANK_RELAYS
  Relative segment, address: CODE 00000503 - 00000508 (0x6 bytes), align: 0
  Segment part 74.            Intra module refs:   osal_msg_receive
           ENTRY                   ADDRESS         REF BY
           =====                   =======         ======
           osal_msg_extract::?relay
                                   00000503 
    -------------------------------------------------------------------------
BANK_RELAYS
  Relative segment, address: CODE 00000509 - 0000050E (0x6 bytes), align: 0
  Segment part 82.            Intra module refs:   osal_msg_enqueue_push
                                                   osal_msg_receive
           ENTRY                   ADDRESS         REF BY
           =====                   =======         ======
           osal_set_event::?relay
                                   00000509        HalKeyConfig (hal_key)
                                                   HalLedBlink (hal_led)
                                                   LL_Init (ll)
                                                   LL_PowerOnReq (ll_sleep)
                                                   RF_NormalIsr (ll_isr)
                                                   TPMS_OBD_Init (TPMS_OBD)
                                                   osalTimerUpdate (OSAL_Timers)
    -------------------------------------------------------------------------
BANK_RELAYS
  Relative segment, address: CODE 0000050F - 00000514 (0x6 bytes), align: 0
  Segment part 84.            Intra module refs:   osal_msg_receive
           ENTRY                   ADDRESS         REF BY
           =====                   =======         ======
           osal_clear_event::?relay
                                   0000050F        Hal_ProcessEvent (hal_drivers)
                                                   LL_SetScanControl (ll)
                                                   llT2OVFC1_ISR (ll_isr)
    -------------------------------------------------------------------------
BANK_RELAYS
  Relative segment, address: CODE 00000515 - 0000051A (0x6 bytes), align: 0
  Segment part 90.
           ENTRY                   ADDRESS         REF BY
           =====                   =======         ======
           osal_int_disable::?relay
                                   00000515        InitBoard (OnBoard)
    -------------------------------------------------------------------------
BANK_RELAYS
  Relative segment, address: CODE 0000051B - 00000520 (0x6 bytes), align: 0
  Segment part 92.
           ENTRY                   ADDRESS         REF BY
           =====                   =======         ======
           osal_init_system::?relay
                                   0000051B        main (TPMS_OBD_Main)
    -------------------------------------------------------------------------
BANK_RELAYS
  Relative segment, address: CODE 00000521 - 00000526 (0x6 bytes), align: 0
  Segment part 94.
           ENTRY                   ADDRESS         REF BY
           =====                   =======         ======
           osal_start_system::?relay
                                   00000521        main (TPMS_OBD_Main)
    -------------------------------------------------------------------------
BANK_RELAYS
  Relative segment, address: CODE 00000527 - 0000052C (0x6 bytes), align: 0
  Segment part 96.            Intra module refs:   osal_start_system
           ENTRY                   ADDRESS         REF BY
           =====                   =======         ======
           osal_run_system::?relay
                                   00000527 

    *************************************************************************

  FILE NAME : C:\Users\MON\Desktop\IAR_TPMS\IAR Systems\SDK\BLE-CC254x-1.4.0\Projects\ble\TPMS_OBD\CC2540DB\CC2540EM\Obj\OSAL_ClockBLE.r51
  PROGRAM MODULE, NAME : OSAL_ClockBLE

  SEGMENTS IN THE MODULE
  ======================
XDATA_Z
  Relative segment, address: XDATA 00000344 - 00000345 (0x2 bytes), align: 0
  Segment part 6.             Intra module refs:   osalTimeUpdate
           LOCAL                   ADDRESS         
           =====                   =======         
           previousLLTimerTick     00000344 
    -------------------------------------------------------------------------
XDATA_Z
  Relative segment, address: XDATA 00000346 - 00000347 (0x2 bytes), align: 0
  Segment part 7.             Intra module refs:   osalTimeUpdate
           LOCAL                   ADDRESS         
           =====                   =======         
           remUsTicks              00000346 
    -------------------------------------------------------------------------
XDATA_Z
  Relative segment, address: XDATA 00000348 - 00000349 (0x2 bytes), align: 0
  Segment part 8.             Intra module refs:   ?Subroutine5
                                                   osalTimeUpdate
           LOCAL                   ADDRESS         
           =====                   =======         
           timeMSec                00000348 
    -------------------------------------------------------------------------
XDATA_Z
  Relative segment, address: XDATA 0000034A - 0000034D (0x4 bytes), align: 0
  Segment part 9.             Intra module refs:   osalTimeUpdate
           ENTRY                   ADDRESS         REF BY
           =====                   =======         ======
           OSAL_timeSeconds        0000034A 
    -------------------------------------------------------------------------
<BANKED_CODE,CODE_C> 1 (was BANKED_CODE)
  Relative segment, address: CODE 00006F73 - 0000705A (0xe8 bytes), align: 0
  Segment part 13.            Intra module refs:   osalTimeUpdate::?relay
           ENTRY                   ADDRESS         REF BY
           =====                   =======         ======
           osalTimeUpdate          00006F73 
               calls direct
               XSTACK = 00000000 ( 00000010 )
    -------------------------------------------------------------------------
<BANKED_CODE,CODE_C> 1 (was BANKED_CODE)
  Relative segment, address: CODE 0000705B - 00007067 (0xd bytes), align: 0
  Segment part 15.            Intra module refs:   osalTimeUpdate
           LOCAL                   ADDRESS         
           =====                   =======         
           ?Subroutine5            0000705B 
    -------------------------------------------------------------------------
<BANKED_CODE,CODE_C> 1 (was BANKED_CODE)
  Relative segment, address: CODE 00007068 - 0000706C (0x5 bytes), align: 0
  Segment part 23.            Intra module refs:   osalTimeUpdate
    -------------------------------------------------------------------------
BANK_RELAYS
  Relative segment, address: CODE 0000052D - 00000532 (0x6 bytes), align: 0
  Segment part 14.
           ENTRY                   ADDRESS         REF BY
           =====                   =======         ======
           osalTimeUpdate::?relay
                                   0000052D        llScheduleTask (ll_scheduler)
                                                   osal_run_system (OSAL)

    *************************************************************************

  FILE NAME : C:\Users\MON\Desktop\IAR_TPMS\IAR Systems\SDK\BLE-CC254x-1.4.0\Projects\ble\TPMS_OBD\CC2540DB\CC2540EM\Obj\OSAL_Memory.r51
  PROGRAM MODULE, NAME : OSAL_Memory

  SEGMENTS IN THE MODULE
  ======================
<XDATA_N> 1 (was XDATA_N)
  Relative segment, address: XDATA 000004F9 - 00000CF8 (0x800 bytes), align: 0
  Segment part 7.             Intra module refs:   osal_mem_alloc
                                                   osal_mem_init
           LOCAL                   ADDRESS         
           =====                   =======         
           theHeap                 000004F9 
    -------------------------------------------------------------------------
<XDATA_N> 1 (was XDATA_N)
  Relative segment, address: XDATA 00000CF9 - 00000CFA (0x2 bytes), align: 0
  Segment part 8.             Intra module refs:   osal_mem_alloc
                                                   osal_mem_free
                                                   osal_mem_init
                                                   osal_mem_kick
           LOCAL                   ADDRESS         
           =====                   =======         
           ff1                     00000CF9 
    -------------------------------------------------------------------------
XDATA_Z
  Relative segment, address: XDATA 0000034E - 0000034E (0x1 bytes), align: 0
  Segment part 9.             Intra module refs:   osal_mem_alloc
                                                   osal_mem_kick
           LOCAL                   ADDRESS         
           =====                   =======         
           osalMemStat             0000034E 
    -------------------------------------------------------------------------
<BANKED_CODE,CODE_C> 1 (was BANKED_CODE)
  Relative segment, address: CODE 000063A8 - 000063D6 (0x2f bytes), align: 0
  Segment part 10.            Intra module refs:   osal_mem_init::?relay
           ENTRY                   ADDRESS         REF BY
           =====                   =======         ======
           osal_mem_init           000063A8 
               ISTACK = 00000000 ( 00000002 )
    -------------------------------------------------------------------------
<BANKED_CODE,CODE_C> 1 (was BANKED_CODE)
  Relative segment, address: CODE 000063D7 - 000063DD (0x7 bytes), align: 0
  Segment part 12.            Intra module refs:   osal_mem_free
                                                   osal_mem_init
           LOCAL                   ADDRESS         
           =====                   =======         
           ?Subroutine0            000063D7 
    -------------------------------------------------------------------------
<BANKED_CODE,CODE_C> 1 (was BANKED_CODE)
  Relative segment, address: CODE 000063DE - 00006413 (0x36 bytes), align: 0
  Segment part 13.            Intra module refs:   osal_mem_kick::?relay
           ENTRY                   ADDRESS         REF BY
           =====                   =======         ======
           osal_mem_kick           000063DE 
               calls direct
               XSTACK = 00000000 ( 0000000A )
    -------------------------------------------------------------------------
<BANKED_CODE,CODE_C> 1 (was BANKED_CODE)
  Relative segment, address: CODE 00006414 - 0000656C (0x159 bytes), align: 0
  Segment part 15.            Intra module refs:   osal_mem_alloc::?relay
           ENTRY                   ADDRESS         REF BY
           =====                   =======         ======
           osal_mem_alloc          00006414 
               XSTACK = 0000000A ( 0000000E )
    -------------------------------------------------------------------------
<BANKED_CODE,CODE_C> 1 (was BANKED_CODE)
  Relative segment, address: CODE 0000656D - 000065A6 (0x3a bytes), align: 0
  Segment part 17.            Intra module refs:   osal_mem_free::?relay
           ENTRY                   ADDRESS         REF BY
           =====                   =======         ======
           osal_mem_free           0000656D 
               XSTACK = 0000000A ( 00000000 )
               ISTACK = 00000000 ( 00000002 )
    -------------------------------------------------------------------------
BANK_RELAYS
  Relative segment, address: CODE 00000533 - 00000538 (0x6 bytes), align: 0
  Segment part 11.
           ENTRY                   ADDRESS         REF BY
           =====                   =======         ======
           osal_mem_init::?relay   00000533        osal_init_system (OSAL)
    -------------------------------------------------------------------------
BANK_RELAYS
  Relative segment, address: CODE 00000539 - 0000053E (0x6 bytes), align: 0
  Segment part 14.
           ENTRY                   ADDRESS         REF BY
           =====                   =======         ======
           osal_mem_kick::?relay   00000539        osal_init_system (OSAL)
    -------------------------------------------------------------------------
BANK_RELAYS
  Relative segment, address: CODE 0000053F - 00000544 (0x6 bytes), align: 0
  Segment part 16.            Intra module refs:   osal_mem_kick
           ENTRY                   ADDRESS         REF BY
           =====                   =======         ======
           osal_mem_alloc::?relay
                                   0000053F        GAP_CentDevMgrInit (gap_centdevmgr)
                                                   GAP_DeviceDiscoveryRequest (gap_centdevmgr)
                                                   gapProcessAdvertDevInfo (gap_centdevmgr)
                                                   osalAddTimer (OSAL_Timers)
                                                   osalInitTasks (OSAL_TPMS_OBD)
                                                   osal_msg_allocate (OSAL)
    -------------------------------------------------------------------------
BANK_RELAYS
  Relative segment, address: CODE 00000545 - 0000054A (0x6 bytes), align: 0
  Segment part 18.            Intra module refs:   osal_mem_kick
           ENTRY                   ADDRESS         REF BY
           =====                   =======         ======
           osal_mem_free::?relay   00000545        gapFreeScanRecs (gap_centdevmgr)
                                                   gapProcessAdvertDevInfo (gap_centdevmgr)
                                                   gapSendDevDiscEvent (gap_centdevmgr)
                                                   osalTimerUpdate (OSAL_Timers)
                                                   osal_bm_free (osal_bufmgr)
                                                   osal_msg_deallocate (OSAL)

    *************************************************************************

  FILE NAME : C:\Users\MON\Desktop\IAR_TPMS\IAR Systems\SDK\BLE-CC254x-1.4.0\Projects\ble\TPMS_OBD\CC2540DB\CC2540EM\Obj\OSAL_PwrMgr.r51
  PROGRAM MODULE, NAME : OSAL_PwrMgr

  SEGMENTS IN THE MODULE
  ======================
XDATA_Z
  Relative segment, address: XDATA 0000034F - 00000355 (0x7 bytes), align: 0
  Segment part 7.             Intra module refs:   osal_pwrmgr_device
                                                   osal_pwrmgr_init
                                                   osal_pwrmgr_powerconserve
                                                   osal_pwrmgr_task_state
           ENTRY                   ADDRESS         REF BY
           =====                   =======         ======
           pwrmgr_attribute        0000034F 
    -------------------------------------------------------------------------
<BANKED_CODE,CODE_C> 1 (was BANKED_CODE)
  Relative segment, address: CODE 000073D6 - 000073E3 (0xe bytes), align: 0
  Segment part 8.             Intra module refs:   osal_pwrmgr_init::?relay
           ENTRY                   ADDRESS         REF BY
           =====                   =======         ======
           osal_pwrmgr_init        000073D6 
               ISTACK = 00000000 ( 00000002 )
    -------------------------------------------------------------------------
<BANKED_CODE,CODE_C> 1 (was BANKED_CODE)
  Relative segment, address: CODE 000073E4 - 000073EB (0x8 bytes), align: 0
  Segment part 10.            Intra module refs:   osal_pwrmgr_device
                                                   osal_pwrmgr_init
           LOCAL                   ADDRESS         
           =====                   =======         
           ?Subroutine0            000073E4 
    -------------------------------------------------------------------------
<BANKED_CODE,CODE_C> 1 (was BANKED_CODE)
  Relative segment, address: CODE 000073EC - 000073F5 (0xa bytes), align: 0
  Segment part 11.            Intra module refs:   osal_pwrmgr_device::?relay
           ENTRY                   ADDRESS         REF BY
           =====                   =======         ======
           osal_pwrmgr_device      000073EC 
               ISTACK = 00000000 ( 00000002 )
    -------------------------------------------------------------------------
<BANKED_CODE,CODE_C> 1 (was BANKED_CODE)
  Relative segment, address: CODE 000073F6 - 0000743F (0x4a bytes), align: 0
  Segment part 13.            Intra module refs:   osal_pwrmgr_task_state::?relay
           ENTRY                   ADDRESS         REF BY
           =====                   =======         ======
           osal_pwrmgr_task_state
                                   000073F6 
               XSTACK = 00000000 ( 0000000A )
    -------------------------------------------------------------------------
<BANKED_CODE,CODE_C> 1 (was BANKED_CODE)
  Relative segment, address: CODE 00007440 - 0000746D (0x2e bytes), align: 0
  Segment part 15.            Intra module refs:   osal_pwrmgr_powerconserve::?relay
           ENTRY                   ADDRESS         REF BY
           =====                   =======         ======
           osal_pwrmgr_powerconserve
                                   00007440 
               calls direct
               XSTACK = 00000000 ( 0000000C )
    -------------------------------------------------------------------------
BANK_RELAYS
  Relative segment, address: CODE 0000054B - 00000550 (0x6 bytes), align: 0
  Segment part 9.
           ENTRY                   ADDRESS         REF BY
           =====                   =======         ======
           osal_pwrmgr_init::?relay
                                   0000054B        osal_init_system (OSAL)
    -------------------------------------------------------------------------
BANK_RELAYS
  Relative segment, address: CODE 00000551 - 00000556 (0x6 bytes), align: 0
  Segment part 12.
           ENTRY                   ADDRESS         REF BY
           =====                   =======         ======
           osal_pwrmgr_device::?relay
                                   00000551        LL_ProcessEvent (ll)
                                                   main (TPMS_OBD_Main)
    -------------------------------------------------------------------------
BANK_RELAYS
  Relative segment, address: CODE 00000557 - 0000055C (0x6 bytes), align: 0
  Segment part 14.
           ENTRY                   ADDRESS         REF BY
           =====                   =======         ======
           osal_pwrmgr_task_state::?relay
                                   00000557        Hal_ProcessEvent (hal_drivers)
                                                   LL_Init (ll)
                                                   LL_PowerOnReq (ll_sleep)
                                                   LL_ProcessEvent (ll)
                                                   LL_SetScanControl (ll)
    -------------------------------------------------------------------------
BANK_RELAYS
  Relative segment, address: CODE 0000055D - 00000562 (0x6 bytes), align: 0
  Segment part 16.
           ENTRY                   ADDRESS         REF BY
           =====                   =======         ======
           osal_pwrmgr_powerconserve::?relay
                                   0000055D        osal_run_system (OSAL)

    *************************************************************************

  FILE NAME : C:\Users\MON\Desktop\IAR_TPMS\IAR Systems\SDK\BLE-CC254x-1.4.0\Projects\ble\TPMS_OBD\CC2540DB\CC2540EM\Obj\OSAL_TPMS_OBD.r51
  PROGRAM MODULE, NAME : OSAL_TPMS_OBD

  SEGMENTS IN THE MODULE
  ======================
<XDATA_ROM_C> 1 (was XDATA_ROM_C)
  Relative segment, address: CONST 00008E19 - 00008E26 (0xe bytes), align: 0
  Segment part 6.
           ENTRY                   ADDRESS         REF BY
           =====                   =======         ======
           tasksArr                00008E19        osal_run_system (OSAL)
    -------------------------------------------------------------------------
<XDATA_ROM_C> 1 (was XDATA_ROM_C)
  Relative segment, address: CONST 00008E99 - 00008E99 (0x1 bytes), align: 0
  Segment part 7.
           ENTRY                   ADDRESS         REF BY
           =====                   =======         ======
           tasksCnt                00008E99        osal_clear_event (OSAL)
                                                   osal_msg_enqueue_push (OSAL)
                                                   osal_pwrmgr_task_state (OSAL_PwrMgr)
                                                   osal_run_system (OSAL)
                                                   osal_set_event (OSAL)
    -------------------------------------------------------------------------
XDATA_Z
  Relative segment, address: XDATA 00000356 - 00000357 (0x2 bytes), align: 0
  Segment part 8.             Intra module refs:   osalInitTasks
           ENTRY                   ADDRESS         REF BY
           =====                   =======         ======
           tasksEvents             00000356        ?Subroutine10 (OSAL)
                                                   osal_run_system (OSAL)
                                                   osal_set_event (OSAL)
    -------------------------------------------------------------------------
<BANKED_CODE,CODE_C> 1 (was BANKED_CODE)
  Relative segment, address: CODE 00007597 - 000075DC (0x46 bytes), align: 0
  Segment part 9.             Intra module refs:   osalInitTasks::?relay
           ENTRY                   ADDRESS         REF BY
           =====                   =======         ======
           osalInitTasks           00007597 
               calls direct
               ISTACK = 00000000 ( 00000002 )
    -------------------------------------------------------------------------
BANK_RELAYS
  Relative segment, address: CODE 00000563 - 00000568 (0x6 bytes), align: 0
  Segment part 10.
           ENTRY                   ADDRESS         REF BY
           =====                   =======         ======
           osalInitTasks::?relay   00000563        osal_init_system (OSAL)
    -------------------------------------------------------------------------
<XDATA_ROM_C_FLASH> 1 (was XDATA_ROM_C_FLASH)
  Relative segment, address: CODE 00008E19 - 00008E26 (0xe bytes), align: 0
  Segment part 11.            Intra module refs:   tasksArr
    -------------------------------------------------------------------------
<XDATA_ROM_C_FLASH> 1 (was XDATA_ROM_C_FLASH)
  Relative segment, address: CODE 00008E99 - 00008E99 (0x1 bytes), align: 0
  Segment part 12.            Intra module refs:   tasksCnt

    *************************************************************************

  FILE NAME : C:\Users\MON\Desktop\IAR_TPMS\IAR Systems\SDK\BLE-CC254x-1.4.0\Projects\ble\TPMS_OBD\CC2540DB\CC2540EM\Obj\OSAL_Timers.r51
  PROGRAM MODULE, NAME : OSAL_Timers

  SEGMENTS IN THE MODULE
  ======================
XDATA_Z
  Relative segment, address: XDATA 00000358 - 00000359 (0x2 bytes), align: 0
  Segment part 7.             Intra module refs:   osalAddTimer
                                                   osalFindTimer
                                                   osalTimerUpdate
                                                   osal_next_timeout
           ENTRY                   ADDRESS         REF BY
           =====                   =======         ======
           timerHead               00000358 
    -------------------------------------------------------------------------
XDATA_Z
  Relative segment, address: XDATA 0000035A - 0000035D (0x4 bytes), align: 0
  Segment part 8.             Intra module refs:   osalTimerInit
                                                   osalTimerUpdate
                                                   osal_GetSystemClock
           LOCAL                   ADDRESS         
           =====                   =======         
           osal_systemClock        0000035A 
    -------------------------------------------------------------------------
<BANKED_CODE,CODE_C> 1 (was BANKED_CODE)
  Relative segment, address: CODE 00004F7E - 00004F8E (0x11 bytes), align: 0
  Segment part 9.             Intra module refs:   osalTimerInit::?relay
           ENTRY                   ADDRESS         REF BY
           =====                   =======         ======
           osalTimerInit           00004F7E 
               XSTACK = 00000000 ( 00000009 )
    -------------------------------------------------------------------------
<BANKED_CODE,CODE_C> 1 (was BANKED_CODE)
  Relative segment, address: CODE 00004F8F - 00004F8F (0x1 bytes), align: 0
  Segment part 11.            Intra module refs:   osalTimerInit
                                                   osalTimerUpdate
           LOCAL                   ADDRESS         
           =====                   =======         
           ?Subroutine7            00004F8F 
    -------------------------------------------------------------------------
<BANKED_CODE,CODE_C> 1 (was BANKED_CODE)
  Relative segment, address: CODE 00004F90 - 00004F96 (0x7 bytes), align: 0
  Segment part 12.            Intra module refs:   ?Subroutine7
                                                   osalAddTimer
    -------------------------------------------------------------------------
<BANKED_CODE,CODE_C> 1 (was BANKED_CODE)
  Relative segment, address: CODE 00004F97 - 0000502E (0x98 bytes), align: 0
  Segment part 13.            Intra module refs:   osalAddTimer::?relay
           ENTRY                   ADDRESS         REF BY
           =====                   =======         ======
           osalAddTimer            00004F97 
               calls direct
               XSTACK = 00000012 ( 0000000F )
               ISTACK = 00000000 ( 00000001 )
    -------------------------------------------------------------------------
<BANKED_CODE,CODE_C> 1 (was BANKED_CODE)
  Relative segment, address: CODE 0000502F - 0000503A (0xc bytes), align: 0
  Segment part 15.            Intra module refs:   osalAddTimer
           LOCAL                   ADDRESS         
           =====                   =======         
           ?Subroutine5            0000502F 
    -------------------------------------------------------------------------
<BANKED_CODE,CODE_C> 1 (was BANKED_CODE)
  Relative segment, address: CODE 0000503B - 0000507A (0x40 bytes), align: 0
  Segment part 16.            Intra module refs:   osalFindTimer::?relay
           ENTRY                   ADDRESS         REF BY
           =====                   =======         ======
           osalFindTimer           0000503B 
               XSTACK = 0000000F ( 00000000 )
               ISTACK = 00000000 ( 00000002 )
    -------------------------------------------------------------------------
<BANKED_CODE,CODE_C> 1 (was BANKED_CODE)
  Relative segment, address: CODE 0000507B - 00005093 (0x19 bytes), align: 0
  Segment part 18.            Intra module refs:   osalDeleteTimer::?relay
           ENTRY                   ADDRESS         REF BY
           =====                   =======         ======
           osalDeleteTimer         0000507B 
               XSTACK = 0000000C ( 00000000 )
               ISTACK = 00000000 ( 00000002 )
    -------------------------------------------------------------------------
<BANKED_CODE,CODE_C> 1 (was BANKED_CODE)
  Relative segment, address: CODE 00005094 - 000050C7 (0x34 bytes), align: 0
  Segment part 20.            Intra module refs:   osal_start_timerEx::?relay
           ENTRY                   ADDRESS         REF BY
           =====                   =======         ======
           osal_start_timerEx      00005094 
               calls direct
               XSTACK = 00000004 ( 0000000E )
    -------------------------------------------------------------------------
<BANKED_CODE,CODE_C> 1 (was BANKED_CODE)
  Relative segment, address: CODE 000050C8 - 0000510F (0x48 bytes), align: 0
  Segment part 22.            Intra module refs:   osal_start_reload_timer::?relay
           ENTRY                   ADDRESS         REF BY
           =====                   =======         ======
           osal_start_reload_timer
                                   000050C8 
               calls direct
               XSTACK = 00000004 ( 00000012 )
    -------------------------------------------------------------------------
<BANKED_CODE,CODE_C> 1 (was BANKED_CODE)
  Relative segment, address: CODE 00005110 - 00005114 (0x5 bytes), align: 0
  Segment part 24.            Intra module refs:   osal_start_reload_timer
           LOCAL                   ADDRESS         
           =====                   =======         
           ?Subroutine1            00005110 
    -------------------------------------------------------------------------
<BANKED_CODE,CODE_C> 1 (was BANKED_CODE)
  Relative segment, address: CODE 00005115 - 00005143 (0x2f bytes), align: 0
  Segment part 25.            Intra module refs:   osal_stop_timerEx::?relay
           ENTRY                   ADDRESS         REF BY
           =====                   =======         ======
           osal_stop_timerEx       00005115 
               calls direct
               XSTACK = 00000000 ( 0000000C )
    -------------------------------------------------------------------------
<BANKED_CODE,CODE_C> 1 (was BANKED_CODE)
  Relative segment, address: CODE 00005144 - 00005148 (0x5 bytes), align: 0
  Segment part 27.            Intra module refs:   osal_stop_timerEx
           LOCAL                   ADDRESS         
           =====                   =======         
           ?Subroutine2            00005144 
    -------------------------------------------------------------------------
<BANKED_CODE,CODE_C> 1 (was BANKED_CODE)
  Relative segment, address: CODE 00005149 - 0000514F (0x7 bytes), align: 0
  Segment part 32.            Intra module refs:   osalDeleteTimer
                                                   osalFindTimer
                                                   osal_GetSystemClock
           LOCAL                   ADDRESS         
           =====                   =======         
           ?Subroutine0            00005149 
    -------------------------------------------------------------------------
<BANKED_CODE,CODE_C> 1 (was BANKED_CODE)
  Relative segment, address: CODE 00005150 - 0000533C (0x1ed bytes), align: 0
  Segment part 33.            Intra module refs:   osalTimerUpdate::?relay
           ENTRY                   ADDRESS         REF BY
           =====                   =======         ======
           osalTimerUpdate         00005150 
               calls direct
               XSTACK = 0000000C ( 00000017 )
               ISTACK = 00000000 ( 00000001 )
    -------------------------------------------------------------------------
<BANKED_CODE,CODE_C> 1 (was BANKED_CODE)
  Relative segment, address: CODE 0000533D - 00005341 (0x5 bytes), align: 0
  Segment part 35.            Intra module refs:   osalTimerUpdate
                                                   osal_next_timeout
           LOCAL                   ADDRESS         
           =====                   =======         
           ?Subroutine3            0000533D 
    -------------------------------------------------------------------------
<BANKED_CODE,CODE_C> 1 (was BANKED_CODE)
  Relative segment, address: CODE 00005342 - 00005345 (0x4 bytes), align: 0
  Segment part 38.            Intra module refs:   osalTimerUpdate
           LOCAL                   ADDRESS         
           =====                   =======         
           ?Subroutine4            00005342 
    -------------------------------------------------------------------------
<BANKED_CODE,CODE_C> 1 (was BANKED_CODE)
  Relative segment, address: CODE 00005346 - 00005347 (0x2 bytes), align: 0
  Segment part 39.            Intra module refs:   ?Subroutine4
                                                   osalTimerUpdate
    -------------------------------------------------------------------------
<BANKED_CODE,CODE_C> 1 (was BANKED_CODE)
  Relative segment, address: CODE 00005348 - 0000534F (0x8 bytes), align: 0
  Segment part 40.            Intra module refs:   Segment part 39
                                                   osalAddTimer
                                                   osalTimerUpdate
                                                   osal_next_timeout
    -------------------------------------------------------------------------
<BANKED_CODE,CODE_C> 1 (was BANKED_CODE)
  Relative segment, address: CODE 00005350 - 000053B0 (0x61 bytes), align: 0
  Segment part 41.            Intra module refs:   osal_next_timeout::?relay
           ENTRY                   ADDRESS         REF BY
           =====                   =======         ======
           osal_next_timeout       00005350 
               XSTACK = 00000000 ( 00000010 )
    -------------------------------------------------------------------------
<BANKED_CODE,CODE_C> 1 (was BANKED_CODE)
  Relative segment, address: CODE 000053B1 - 000053B6 (0x6 bytes), align: 0
  Segment part 43.            Intra module refs:   ?Subroutine6
                                                   osalTimerUpdate
                                                   osal_next_timeout
           LOCAL                   ADDRESS         
           =====                   =======         
           ?Subroutine8            000053B1 
    -------------------------------------------------------------------------
<BANKED_CODE,CODE_C> 1 (was BANKED_CODE)
  Relative segment, address: CODE 000053B7 - 000053BC (0x6 bytes), align: 0
  Segment part 44.            Intra module refs:   osalTimerUpdate
                                                   osal_next_timeout
           LOCAL                   ADDRESS         
           =====                   =======         
           ?Subroutine6            000053B7 
    -------------------------------------------------------------------------
<BANKED_CODE,CODE_C> 1 (was BANKED_CODE)
  Relative segment, address: CODE 000053BD - 000053C9 (0xd bytes), align: 0
  Segment part 45.            Intra module refs:   osal_GetSystemClock::?relay
           ENTRY                   ADDRESS         REF BY
           =====                   =======         ======
           osal_GetSystemClock     000053BD 
               ISTACK = 00000000 ( 00000002 )
    -------------------------------------------------------------------------
BANK_RELAYS
  Relative segment, address: CODE 00000569 - 0000056E (0x6 bytes), align: 0
  Segment part 10.
           ENTRY                   ADDRESS         REF BY
           =====                   =======         ======
           osalTimerInit::?relay   00000569        osal_init_system (OSAL)
    -------------------------------------------------------------------------
BANK_RELAYS
  Relative segment, address: CODE 0000056F - 00000574 (0x6 bytes), align: 0
  Segment part 14.            Intra module refs:   osal_start_reload_timer
                                                   osal_start_timerEx
           ENTRY                   ADDRESS         REF BY
           =====                   =======         ======
           osalAddTimer::?relay    0000056F 
    -------------------------------------------------------------------------
BANK_RELAYS
  Relative segment, address: CODE 00000575 - 0000057A (0x6 bytes), align: 0
  Segment part 17.            Intra module refs:   osalAddTimer
                                                   osal_stop_timerEx
           ENTRY                   ADDRESS         REF BY
           =====                   =======         ======
           osalFindTimer::?relay   00000575 
    -------------------------------------------------------------------------
BANK_RELAYS
  Relative segment, address: CODE 0000057B - 00000580 (0x6 bytes), align: 0
  Segment part 19.            Intra module refs:   osal_stop_timerEx
           ENTRY                   ADDRESS         REF BY
           =====                   =======         ======
           osalDeleteTimer::?relay
                                   0000057B 
    -------------------------------------------------------------------------
BANK_RELAYS
  Relative segment, address: CODE 00000581 - 00000586 (0x6 bytes), align: 0
  Segment part 21.
           ENTRY                   ADDRESS         REF BY
           =====                   =======         ======
           osal_start_timerEx::?relay
                                   00000581        HalLedUpdate (hal_led)
                                                   Hal_ProcessEvent (hal_drivers)
                                                   LL_ProcessEvent (ll)
                                                   gapSetScanParamStatus (gap_centdevmgr)
                                                   halProcessKeyInterrupt (hal_key)
                                                   llScheduleTask (ll_scheduler)
    -------------------------------------------------------------------------
BANK_RELAYS
  Relative segment, address: CODE 00000587 - 0000058C (0x6 bytes), align: 0
  Segment part 23.
           ENTRY                   ADDRESS         REF BY
           =====                   =======         ======
           osal_start_reload_timer::?relay
                                   00000587        gapProcessRandomAddrComplete (gap_configmgr)
    -------------------------------------------------------------------------
BANK_RELAYS
  Relative segment, address: CODE 0000058D - 00000592 (0x6 bytes), align: 0
  Segment part 26.
           ENTRY                   ADDRESS         REF BY
           =====                   =======         ======
           osal_stop_timerEx::?relay
                                   0000058D        GAP_DeviceDiscoveryCancel (gap_centdevmgr)
                                                   HalKeyConfig (hal_key)
                                                   HalLedBlink (hal_led)
                                                   Hal_ProcessEvent (hal_drivers)
                                                   LL_SetScanControl (ll)
                                                   gapSetScanParamStatus (gap_centdevmgr)
                                                   llT2OVFC1_ISR (ll_isr)
    -------------------------------------------------------------------------
BANK_RELAYS
  Relative segment, address: CODE 00000593 - 00000598 (0x6 bytes), align: 0
  Segment part 34.
           ENTRY                   ADDRESS         REF BY
           =====                   =======         ======
           osalTimerUpdate::?relay
                                   00000593        osalTimeUpdate (OSAL_ClockBLE)
    -------------------------------------------------------------------------
BANK_RELAYS
  Relative segment, address: CODE 00000599 - 0000059E (0x6 bytes), align: 0
  Segment part 42.
           ENTRY                   ADDRESS         REF BY
           =====                   =======         ======
           osal_next_timeout::?relay
                                   00000599        osal_pwrmgr_powerconserve (OSAL_PwrMgr)
    -------------------------------------------------------------------------
BANK_RELAYS
  Relative segment, address: CODE 0000059F - 000005A4 (0x6 bytes), align: 0
  Segment part 46.
           ENTRY                   ADDRESS         REF BY
           =====                   =======         ======
           osal_GetSystemClock::?relay
                                   0000059F        HalLedBlink (hal_led)
                                                   HalLedUpdate (hal_led)

    *************************************************************************

  FILE NAME : C:\Users\MON\Desktop\IAR_TPMS\IAR Systems\SDK\BLE-CC254x-1.4.0\Projects\ble\TPMS_OBD\CC2540DB\CC2540EM\Obj\OnBoard.r51
  PROGRAM MODULE, NAME : OnBoard

  SEGMENTS IN THE MODULE
  ======================
XDATA_Z
  Relative segment, address: XDATA 0000035E - 0000035E (0x1 bytes), align: 0
  Segment part 7.             Intra module refs:   InitBoard
                                                   OnBoard_KeyCallback
           ENTRY                   ADDRESS         REF BY
           =====                   =======         ======
           OnboardKeyIntEnable     0000035E 
    -------------------------------------------------------------------------
XDATA_I
  Relative segment, address: XDATA 000004F2 - 000004F2 (0x1 bytes), align: 0
  Segment part 8.             Intra module refs:   OnBoard_SendKeys
           LOCAL                   ADDRESS         
           =====                   =======         
           registeredKeysTaskID    000004F2 
    -------------------------------------------------------------------------
<BANKED_CODE,CODE_C> 1 (was BANKED_CODE)
  Relative segment, address: CODE 000071E8 - 0000720B (0x24 bytes), align: 0
  Segment part 10.            Intra module refs:   InitBoard::?relay
           ENTRY                   ADDRESS         REF BY
           =====                   =======         ======
           InitBoard               000071E8 
               calls direct
               XSTACK = 00000000 ( 00000009 )
    -------------------------------------------------------------------------
<BANKED_CODE,CODE_C> 1 (was BANKED_CODE)
  Relative segment, address: CODE 0000720C - 00007210 (0x5 bytes), align: 0
  Segment part 12.            Intra module refs:   InitBoard
                                                   OnBoard_KeyCallback
           LOCAL                   ADDRESS         
           =====                   =======         
           ?Subroutine0            0000720C 
    -------------------------------------------------------------------------
<BANKED_CODE,CODE_C> 1 (was BANKED_CODE)
  Relative segment, address: CODE 00007211 - 00007252 (0x42 bytes), align: 0
  Segment part 20.            Intra module refs:   OnBoard_SendKeys::?relay
           ENTRY                   ADDRESS         REF BY
           =====                   =======         ======
           OnBoard_SendKeys        00007211 
               calls direct
               XSTACK = 00000009 ( 0000000A )
               ISTACK = 00000000 ( 00000001 )
    -------------------------------------------------------------------------
<BANKED_CODE,CODE_C> 1 (was BANKED_CODE)
  Relative segment, address: CODE 00007253 - 00007297 (0x45 bytes), align: 0
  Segment part 22.            Intra module refs:   OnBoard_KeyCallback::?relay
           ENTRY                   ADDRESS         REF BY
           =====                   =======         ======
           OnBoard_KeyCallback     00007253 
               calls direct, is indirectly called
               XSTACK = 00000000 ( 00000009 )
    -------------------------------------------------------------------------
NEAR_CODE
  Relative segment, address: CODE 00001378 - 0000137D (0x6 bytes), align: 0
  Segment part 26.
           ENTRY                   ADDRESS         REF BY
           =====                   =======         ======
           Onboard_soft_reset      00001378        LL_ProcessEvent (ll)
    -------------------------------------------------------------------------
XDATA_ID
  Relative segment, address: CODE 000001BA - 000001BA (0x1 bytes), align: 0
  Segment part 9.             Intra module refs:   registeredKeysTaskID
    -------------------------------------------------------------------------
BANK_RELAYS
  Relative segment, address: CODE 000005A5 - 000005AA (0x6 bytes), align: 0
  Segment part 11.
           ENTRY                   ADDRESS         REF BY
           =====                   =======         ======
           InitBoard::?relay       000005A5        main (TPMS_OBD_Main)
    -------------------------------------------------------------------------
BANK_RELAYS
  Relative segment, address: CODE 000005AB - 000005B0 (0x6 bytes), align: 0
  Segment part 21.            Intra module refs:   OnBoard_KeyCallback
           ENTRY                   ADDRESS         REF BY
           =====                   =======         ======
           OnBoard_SendKeys::?relay
                                   000005AB 
    -------------------------------------------------------------------------
BANK_RELAYS
  Relative segment, address: CODE 000005B1 - 000005B6 (0x6 bytes), align: 0
  Segment part 23.            Intra module refs:   InitBoard
                                                   OnBoard_KeyCallback
           ENTRY                   ADDRESS         REF BY
           =====                   =======         ======
           OnBoard_KeyCallback::?relay
                                   000005B1 

    *************************************************************************

  FILE NAME : C:\Users\MON\Desktop\IAR_TPMS\IAR Systems\SDK\BLE-CC254x-1.4.0\Projects\ble\TPMS_OBD\CC2540DB\CC2540EM\Obj\TPMS_OBD.r51
  PROGRAM MODULE, NAME : TPMS_OBD

  SEGMENTS IN THE MODULE
  ======================
SFR_AN
  Relative segment, address: DATA 00000086 - 00000086 (0x1 bytes), align: 0
  Segment part 1. ROOT.
           ENTRY                   ADDRESS         REF BY
           =====                   =======         ======
           U0CSR                   00000086 
    -------------------------------------------------------------------------
SFR_AN
  Relative segment, address: DATA 00000088 - 00000088 (0x1 bytes), align: 0
  Segment part 2. ROOT.       Intra module refs:   UART0_ISR
                                                   UART1_ISR
                                                   llClearSetInts (ll_common)
           ENTRY                   ADDRESS         REF BY
           =====                   =======         ======
           _A_TCON                 00000088 
           LOCAL                   ADDRESS         
           =====                   =======         
           TCON                    00000088 
    -------------------------------------------------------------------------
SFR_AN
  Relative segment, address: DATA 00000090 - 00000090 (0x1 bytes), align: 0
  Segment part 3. ROOT.       Intra module refs:   HalLedEnterSleep (hal_led)
                                                   HalLedOnOff (hal_led)
                                                   LL_PowerOffReq (ll_sleep)
                                                   LL_PowerOnReq (ll_sleep)
                                                   llSetRxGain (ll_common)
           ENTRY                   ADDRESS         REF BY
           =====                   =======         ======
           _A_P1                   00000090 
           LOCAL                   ADDRESS         
           =====                   =======         
           P1                      00000090 
    -------------------------------------------------------------------------
SFR_AN
  Relative segment, address: DATA 0000009E - 0000009E (0x1 bytes), align: 0
  Segment part 4. ROOT.       Intra module refs:   InitClock
                                                   LL_PowerOffReq (ll_sleep)
                                                   LL_PowerOnReq (ll_sleep)
                                                   llSetFreqTune (ll_common)
           ENTRY                   ADDRESS         REF BY
           =====                   =======         ======
           CLKCONSTA               0000009E 
    -------------------------------------------------------------------------
SFR_AN
  Relative segment, address: DATA 000000C1 - 000000C1 (0x1 bytes), align: 0
  Segment part 6. ROOT.       Intra module refs:   UART0_ISR
           ENTRY                   ADDRESS         REF BY
           =====                   =======         ======
           U0DBUF                  000000C1 
    -------------------------------------------------------------------------
SFR_AN
  Relative segment, address: DATA 000000C2 - 000000C2 (0x1 bytes), align: 0
  Segment part 7. ROOT.
           ENTRY                   ADDRESS         REF BY
           =====                   =======         ======
           U0BAUD                  000000C2 
    -------------------------------------------------------------------------
SFR_AN
  Relative segment, address: DATA 000000C4 - 000000C4 (0x1 bytes), align: 0
  Segment part 8. ROOT.
           ENTRY                   ADDRESS         REF BY
           =====                   =======         ======
           U0UCR                   000000C4 
    -------------------------------------------------------------------------
SFR_AN
  Relative segment, address: DATA 000000C5 - 000000C5 (0x1 bytes), align: 0
  Segment part 9. ROOT.
           ENTRY                   ADDRESS         REF BY
           =====                   =======         ======
           U0GCR                   000000C5 
    -------------------------------------------------------------------------
SFR_AN
  Relative segment, address: DATA 000000E8 - 000000E8 (0x1 bytes), align: 0
  Segment part 11. ROOT.      Intra module refs:   InitUART1
                                                   Uart1SendString
                                                   halKeyPort2Isr (hal_key)
           ENTRY                   ADDRESS         REF BY
           =====                   =======         ======
           _A_IRCON2               000000E8 
           LOCAL                   ADDRESS         
           =====                   =======         
           IRCON2                  000000E8 
    -------------------------------------------------------------------------
SFR_AN
  Relative segment, address: DATA 000000F1 - 000000F1 (0x1 bytes), align: 0
  Segment part 12. ROOT.      Intra module refs:   InitUART1
           ENTRY                   ADDRESS         REF BY
           =====                   =======         ======
           PERCFG                  000000F1 
    -------------------------------------------------------------------------
SFR_AN
  Relative segment, address: DATA 000000F3 - 000000F3 (0x1 bytes), align: 0
  Segment part 13. ROOT.
           ENTRY                   ADDRESS         REF BY
           =====                   =======         ======
           P0SEL                   000000F3 
    -------------------------------------------------------------------------
SFR_AN
  Relative segment, address: DATA 000000F4 - 000000F4 (0x1 bytes), align: 0
  Segment part 14. ROOT.      Intra module refs:   InitUART1
                                                   LL_PowerOffReq (ll_sleep)
                                                   llExtendRfRange (ll_common)
           ENTRY                   ADDRESS         REF BY
           =====                   =======         ======
           P1SEL                   000000F4 
    -------------------------------------------------------------------------
SFR_AN
  Relative segment, address: DATA 000000F8 - 000000F8 (0x1 bytes), align: 0
  Segment part 15. ROOT.      Intra module refs:   InitUART1
                                                   Uart1SendString
           ENTRY                   ADDRESS         REF BY
           =====                   =======         ======
           _A_U1CSR                000000F8 
           LOCAL                   ADDRESS         
           =====                   =======         
           U1CSR                   000000F8 
    -------------------------------------------------------------------------
SFR_AN
  Relative segment, address: DATA 000000F9 - 000000F9 (0x1 bytes), align: 0
  Segment part 16. ROOT.      Intra module refs:   UART1_ISR
                                                   Uart1SendString
           ENTRY                   ADDRESS         REF BY
           =====                   =======         ======
           U1DBUF                  000000F9 
    -------------------------------------------------------------------------
SFR_AN
  Relative segment, address: DATA 000000FA - 000000FA (0x1 bytes), align: 0
  Segment part 17. ROOT.      Intra module refs:   InitUART1
           ENTRY                   ADDRESS         REF BY
           =====                   =======         ======
           U1BAUD                  000000FA 
    -------------------------------------------------------------------------
SFR_AN
  Relative segment, address: DATA 000000FB - 000000FB (0x1 bytes), align: 0
  Segment part 18. ROOT.      Intra module refs:   InitUART1
           ENTRY                   ADDRESS         REF BY
           =====                   =======         ======
           U1UCR                   000000FB 
    -------------------------------------------------------------------------
SFR_AN
  Relative segment, address: DATA 000000FC - 000000FC (0x1 bytes), align: 0
  Segment part 19. ROOT.      Intra module refs:   InitUART1
           ENTRY                   ADDRESS         REF BY
           =====                   =======         ======
           U1GCR                   000000FC 
    -------------------------------------------------------------------------
SFR_AN
  Relative segment, address: DATA 000000FE - 000000FE (0x1 bytes), align: 0
  Segment part 20. ROOT.      Intra module refs:   LL_PowerOffReq (ll_sleep)
                                                   llExtendRfRange (ll_common)
           ENTRY                   ADDRESS         REF BY
           =====                   =======         ======
           P1DIR                   000000FE 
    -------------------------------------------------------------------------
SFR_AN
  Relative segment, address: DATA 000000FF - 000000FF (0x1 bytes), align: 0
  Segment part 21. ROOT.      Intra module refs:   InitUART1
           ENTRY                   ADDRESS         REF BY
           =====                   =======         ======
           P2DIR                   000000FF 
    -------------------------------------------------------------------------
XDATA_Z
  Relative segment, address: XDATA 0000035F - 0000035F (0x1 bytes), align: 0
  Segment part 30.            Intra module refs:   TPMS_OBD_Init
                                                   TPMS_OBD_ProcessEvent
           LOCAL                   ADDRESS         
           =====                   =======         
           simpleBLETaskId         0000035F 
    -------------------------------------------------------------------------
XDATA_Z
  Relative segment, address: XDATA 00000360 - 00000360 (0x1 bytes), align: 0
  Segment part 31.            Intra module refs:   TPMS_OBDEventCB
                                                   TPMS_OBD_ProcessEvent
                                                   simpleBLEAddDeviceInfo
           LOCAL                   ADDRESS         
           =====                   =======         
           simpleBLEScanRes        00000360 
    -------------------------------------------------------------------------
XDATA_Z
  Relative segment, address: XDATA 00000361 - 00000361 (0x1 bytes), align: 0
  Segment part 32.            Intra module refs:   TPMS_OBDEventCB
           LOCAL                   ADDRESS         
           =====                   =======         
           simpleBLEScanIdx        00000361 
    -------------------------------------------------------------------------
XDATA_Z
  Relative segment, address: XDATA 00000362 - 000003D9 (0x78 bytes), align: 0
  Segment part 33.            Intra module refs:   TPMS_OBDEventCB
                                                   simpleBLEAddDeviceInfo
           LOCAL                   ADDRESS         
           =====                   =======         
           simpleBLEDevList        00000362 
    -------------------------------------------------------------------------
XDATA_Z
  Relative segment, address: XDATA 000003DA - 000003DA (0x1 bytes), align: 0
  Segment part 34.            Intra module refs:   TPMS_OBDEventCB
                                                   TPMS_OBD_ProcessEvent
           LOCAL                   ADDRESS         
           =====                   =======         
           simpleBLEScanning       000003DA 
    -------------------------------------------------------------------------
XDATA_Z
  Relative segment, address: XDATA 000003DB - 000003DB (0x1 bytes), align: 0
  Segment part 35.            Intra module refs:   ?Subroutine3
           ENTRY                   ADDRESS         REF BY
           =====                   =======         ======
           temp                    000003DB 
    -------------------------------------------------------------------------
XDATA_Z
  Relative segment, address: XDATA 000003DC - 000003DC (0x1 bytes), align: 0
  Segment part 39.            Intra module refs:   Uart1SendString
           ENTRY                   ADDRESS         REF BY
           =====                   =======         ======
           TXflag                  000003DC 
    -------------------------------------------------------------------------
<BANKED_CODE,CODE_C> 1 (was BANKED_CODE)
  Relative segment, address: CODE 00005B74 - 00005B82 (0xf bytes), align: 0
  Segment part 42.            Intra module refs:   InitClock::?relay
           ENTRY                   ADDRESS         REF BY
           =====                   =======         ======
           InitClock               00005B74 
               XSTACK = 00000009 ( 00000000 )
    -------------------------------------------------------------------------
<BANKED_CODE,CODE_C> 1 (was BANKED_CODE)
  Relative segment, address: CODE 00005B83 - 00005B87 (0x5 bytes), align: 0
  Segment part 48.            Intra module refs:   InitUART1
           LOCAL                   ADDRESS         
           =====                   =======         
           ?Subroutine0            00005B83 
    -------------------------------------------------------------------------
NEAR_CODE
  Relative segment, address: CODE 0000137E - 00001389 (0xc bytes), align: 0
  Segment part 70.            Intra module refs:   UART0_ISR::??INTVEC 19
           ENTRY                   ADDRESS         REF BY
           =====                   =======         ======
           UART0_ISR               0000137E 
               interrupt function
               ISTACK = 00000000 ( 00000004 )
    -------------------------------------------------------------------------
NEAR_CODE
  Relative segment, address: CODE 0000138A - 00001396 (0xd bytes), align: 0
  Segment part 71.            Intra module refs:   UART0_ISR
                                                   UART1_ISR
           LOCAL                   ADDRESS         
           =====                   =======         
           ?Subroutine3            0000138A 
    -------------------------------------------------------------------------
<BANKED_CODE,CODE_C> 1 (was BANKED_CODE)
  Relative segment, address: CODE 00005B88 - 00005BA6 (0x1f bytes), align: 0
  Segment part 51.            Intra module refs:   InitUART1::?relay
           ENTRY                   ADDRESS         REF BY
           =====                   =======         ======
           InitUART1               00005B88 
               XSTACK = 00000009 ( 00000000 )
    -------------------------------------------------------------------------
<BANKED_CODE,CODE_C> 1 (was BANKED_CODE)
  Relative segment, address: CODE 00005BA7 - 00005BDA (0x34 bytes), align: 0
  Segment part 53.            Intra module refs:   Uart1SendString::?relay
           ENTRY                   ADDRESS         REF BY
           =====                   =======         ======
           Uart1SendString         00005BA7 
               XSTACK = 0000002B ( 00000009 )
    -------------------------------------------------------------------------
NEAR_CODE
  Relative segment, address: CODE 00001397 - 000013A4 (0xe bytes), align: 0
  Segment part 72.            Intra module refs:   UART1_ISR::??INTVEC 27
           ENTRY                   ADDRESS         REF BY
           =====                   =======         ======
           UART1_ISR               00001397 
               interrupt function
               ISTACK = 00000000 ( 00000004 )
    -------------------------------------------------------------------------
XDATA_Z
  Relative segment, address: XDATA 000003DD - 000003DD (0x1 bytes), align: 0
  Segment part 40.            Intra module refs:   SerialApp_Init
           LOCAL                   ADDRESS         
           =====                   =======         
           sendMsgTo_TaskID        000003DD 
    -------------------------------------------------------------------------
<BANKED_CODE,CODE_C> 1 (was BANKED_CODE)
  Relative segment, address: CODE 00005BDB - 00005BEC (0x12 bytes), align: 0
  Segment part 57.            Intra module refs:   SerialApp_Init::?relay
           ENTRY                   ADDRESS         REF BY
           =====                   =======         ======
           SerialApp_Init          00005BDB 
               calls direct
               XSTACK = 00000028 ( 00000009 )
    -------------------------------------------------------------------------
<BANKED_CODE,CODE_C> 1 (was BANKED_CODE)
  Relative segment, address: CODE 00005BED - 00005BF1 (0x5 bytes), align: 0
  Segment part 59.            Intra module refs:   SerialApp_Init
                                                   TPMS_OBD_Init
                                                   Uart1SendString
           LOCAL                   ADDRESS         
           =====                   =======         
           ?Subroutine1            00005BED 
    -------------------------------------------------------------------------
<XDATA_ROM_C> 1 (was XDATA_ROM_C)
  Relative segment, address: CONST 00008E6D - 00008E70 (0x4 bytes), align: 0
  Segment part 41.            Intra module refs:   TPMS_OBD_ProcessEvent
           LOCAL                   ADDRESS         
           =====                   =======         
           simpleBLERoleCB         00008E6D 
    -------------------------------------------------------------------------
<BANKED_CODE,CODE_C> 1 (was BANKED_CODE)
  Relative segment, address: CODE 00005BF2 - 00005C62 (0x71 bytes), align: 0
  Segment part 60.            Intra module refs:   TPMS_OBD_Init::?relay
           ENTRY                   ADDRESS         REF BY
           =====                   =======         ======
           TPMS_OBD_Init           00005BF2 
               calls direct
               XSTACK = 00000000 ( 00000028 )
    -------------------------------------------------------------------------
<BANKED_CODE,CODE_C> 1 (was BANKED_CODE)
  Relative segment, address: CODE 00005C63 - 00005CB1 (0x4f bytes), align: 0
  Segment part 62.            Intra module refs:   TPMS_OBD_ProcessEvent::?relay
           ENTRY                   ADDRESS         REF BY
           =====                   =======         ======
           TPMS_OBD_ProcessEvent   00005C63 
               calls direct
               XSTACK = 00000000 ( 0000000A )
    -------------------------------------------------------------------------
<BANKED_CODE,CODE_C> 1 (was BANKED_CODE)
  Relative segment, address: CODE 00005CB2 - 00005CB6 (0x5 bytes), align: 0
  Segment part 64.            Intra module refs:   TPMS_OBDEventCB
                                                   TPMS_OBD_ProcessEvent
           LOCAL                   ADDRESS         
           =====                   =======         
           ?Subroutine2            00005CB2 
    -------------------------------------------------------------------------
<BANKED_CODE,CODE_C> 1 (was BANKED_CODE)
  Relative segment, address: CODE 00005CB7 - 00005D5E (0xa8 bytes), align: 0
  Segment part 65.            Intra module refs:   TPMS_OBDEventCB::?relay
           LOCAL                   ADDRESS         
           =====                   =======         
           TPMS_OBDEventCB         00005CB7 
               calls direct, is indirectly called
               XSTACK = 00000000 ( 0000000C )
    -------------------------------------------------------------------------
<BANKED_CODE,CODE_C> 1 (was BANKED_CODE)
  Relative segment, address: CODE 00005D5F - 00005EBD (0x15f bytes), align: 0
  Segment part 67.            Intra module refs:   simpleBLEAddDeviceInfo::?relay
           LOCAL                   ADDRESS         
           =====                   =======         
           simpleBLEAddDeviceInfo
                                   00005D5F 
               calls direct
               XSTACK = 0000000C ( 0000002D )
               ISTACK = 00000000 ( 00000001 )
    -------------------------------------------------------------------------
<BANKED_CODE,CODE_C> 1 (was BANKED_CODE)
  Relative segment, address: CODE 00005EBE - 00005ED0 (0x13 bytes), align: 0
  Segment part 69.            Intra module refs:   simpleBLEAddDeviceInfo
           LOCAL                   ADDRESS         
           =====                   =======         
           ?Subroutine4            00005EBE 
    -------------------------------------------------------------------------
INTVEC
  Common segment, address: CODE 00000000 - 00000015 (0x16 bytes), align: 0
  Segment part 22. ROOT.
           ENTRY                   ADDRESS         REF BY
           =====                   =======         ======
           UART0_ISR::??INTVEC 19
                                   00000013 
    -------------------------------------------------------------------------
INTVEC
  Common segment, address: CODE 00000000 - 0000001D (0x1e bytes), align: 0
  Segment part 23. ROOT.
           ENTRY                   ADDRESS         REF BY
           =====                   =======         ======
           UART1_ISR::??INTVEC 27
                                   0000001B 
    -------------------------------------------------------------------------
BANK_RELAYS
  Relative segment, address: CODE 000005B7 - 000005BC (0x6 bytes), align: 0
  Segment part 43.            Intra module refs:   SerialApp_Init
           ENTRY                   ADDRESS         REF BY
           =====                   =======         ======
           InitClock::?relay       000005B7 
    -------------------------------------------------------------------------
BANK_RELAYS
  Relative segment, address: CODE 000005BD - 000005C2 (0x6 bytes), align: 0
  Segment part 52.            Intra module refs:   SerialApp_Init
           ENTRY                   ADDRESS         REF BY
           =====                   =======         ======
           InitUART1::?relay       000005BD 
    -------------------------------------------------------------------------
BANK_RELAYS
  Relative segment, address: CODE 000005C3 - 000005C8 (0x6 bytes), align: 0
  Segment part 54.            Intra module refs:   TPMS_OBD_Init
                                                   simpleBLEAddDeviceInfo
           ENTRY                   ADDRESS         REF BY
           =====                   =======         ======
           Uart1SendString::?relay
                                   000005C3 
    -------------------------------------------------------------------------
BANK_RELAYS
  Relative segment, address: CODE 000005C9 - 000005CE (0x6 bytes), align: 0
  Segment part 58.            Intra module refs:   TPMS_OBD_Init
           ENTRY                   ADDRESS         REF BY
           =====                   =======         ======
           SerialApp_Init::?relay
                                   000005C9 
    -------------------------------------------------------------------------
BANK_RELAYS
  Relative segment, address: CODE 000005CF - 000005D4 (0x6 bytes), align: 0
  Segment part 61.
           ENTRY                   ADDRESS         REF BY
           =====                   =======         ======
           TPMS_OBD_Init::?relay   000005CF        osalInitTasks (OSAL_TPMS_OBD)
    -------------------------------------------------------------------------
BANK_RELAYS
  Relative segment, address: CODE 000005D5 - 000005DA (0x6 bytes), align: 0
  Segment part 63.
           ENTRY                   ADDRESS         REF BY
           =====                   =======         ======
           TPMS_OBD_ProcessEvent::?relay
                                   000005D5        tasksArr (OSAL_TPMS_OBD)
    -------------------------------------------------------------------------
BANK_RELAYS
  Relative segment, address: CODE 000005DB - 000005E0 (0x6 bytes), align: 0
  Segment part 66.            Intra module refs:   simpleBLERoleCB
           LOCAL                   ADDRESS         
           =====                   =======         
           TPMS_OBDEventCB::?relay
                                   000005DB 
    -------------------------------------------------------------------------
BANK_RELAYS
  Relative segment, address: CODE 000005E1 - 000005E6 (0x6 bytes), align: 0
  Segment part 68.            Intra module refs:   TPMS_OBDEventCB
           LOCAL                   ADDRESS         
           =====                   =======         
           simpleBLEAddDeviceInfo::?relay
                                   000005E1 
    -------------------------------------------------------------------------
<XDATA_ROM_C> 1 (was XDATA_ROM_C)
  Relative segment, address: CONST 00008DFE - 00008E18 (0x1b bytes), align: 0
  Segment part 29.            Intra module refs:   TPMS_OBD_Init
    -------------------------------------------------------------------------
<XDATA_ROM_C_FLASH> 1 (was XDATA_ROM_C_FLASH)
  Relative segment, address: CODE 00008E6D - 00008E70 (0x4 bytes), align: 0
  Segment part 73.            Intra module refs:   simpleBLERoleCB
    -------------------------------------------------------------------------
<XDATA_ROM_C_FLASH> 1 (was XDATA_ROM_C_FLASH)
  Relative segment, address: CODE 00008DFE - 00008E18 (0x1b bytes), align: 0
  Segment part 74.            Intra module refs:   Segment part 29

    *************************************************************************

  FILE NAME : C:\Users\MON\Desktop\IAR_TPMS\IAR Systems\SDK\BLE-CC254x-1.4.0\Projects\ble\TPMS_OBD\CC2540DB\CC2540EM\Obj\TPMS_OBD_Main.r51
  PROGRAM MODULE, NAME : TPMS_OBD_Main

  SEGMENTS IN THE MODULE
  ======================
<BANKED_CODE,CODE_C> 1 (was BANKED_CODE)
  Relative segment, address: CODE 0000764C - 00007667 (0x1c bytes), align: 0
  Segment part 9.
           ENTRY                   ADDRESS         REF BY
           =====                   =======         ======
           main                    0000764C        ?call_main (?cmain)
               calls direct

    *************************************************************************

  FILE NAME : C:\Users\MON\Desktop\IAR_TPMS\IAR Systems\SDK\BLE-CC254x-1.4.0\Projects\ble\TPMS_OBD\CC2540DB\CC2540EM\Obj\gap.r51
  PROGRAM MODULE, NAME : gap

  SEGMENTS IN THE MODULE
  ======================
<BANKED_CODE,CODE_C> 1 (was BANKED_CODE)
  Relative segment, address: CODE 00007609 - 0000762D (0x25 bytes), align: 0
  Segment part 6.             Intra module refs:   GAP_DeviceInit::?relay
           ENTRY                   ADDRESS         REF BY
           =====                   =======         ======
           GAP_DeviceInit          00007609 
               calls direct
               XSTACK = 00000004 ( 0000000A )
    -------------------------------------------------------------------------
BANK_RELAYS
  Relative segment, address: CODE 000005E7 - 000005EC (0x6 bytes), align: 0
  Segment part 7.
           ENTRY                   ADDRESS         REF BY
           =====                   =======         ======
           GAP_DeviceInit::?relay
                                   000005E7        GAPObserverRole_StartDevice (observer)

    *************************************************************************

  FILE NAME : C:\Users\MON\Desktop\IAR_TPMS\IAR Systems\SDK\BLE-CC254x-1.4.0\Projects\ble\TPMS_OBD\CC2540DB\CC2540EM\Obj\hal_adc.r51
  PROGRAM MODULE, NAME : hal_adc

  SEGMENTS IN THE MODULE
  ======================
SFR_AN
  Relative segment, address: DATA 000000B4 - 000000B4 (0x1 bytes), align: 0
  Segment part 1. ROOT.       Intra module refs:   HalAdcRead
                                                   LL_ENC_GenerateTrueRandNum (ll_enc)
           ENTRY                   ADDRESS         REF BY
           =====                   =======         ======
           ADCCON1                 000000B4 
    -------------------------------------------------------------------------
SFR_AN
  Relative segment, address: DATA 000000B6 - 000000B6 (0x1 bytes), align: 0
  Segment part 2. ROOT.       Intra module refs:   HalAdcRead
           ENTRY                   ADDRESS         REF BY
           =====                   =======         ======
           ADCCON3                 000000B6 
    -------------------------------------------------------------------------
SFR_AN
  Relative segment, address: DATA 000000BA - 000000BA (0x1 bytes), align: 0
  Segment part 3. ROOT.       Intra module refs:   HalAdcRead
           ENTRY                   ADDRESS         REF BY
           =====                   =======         ======
           ADCL                    000000BA 
    -------------------------------------------------------------------------
SFR_AN
  Relative segment, address: DATA 000000BB - 000000BB (0x1 bytes), align: 0
  Segment part 4. ROOT.       Intra module refs:   HalAdcRead
           ENTRY                   ADDRESS         REF BY
           =====                   =======         ======
           ADCH                    000000BB 
    -------------------------------------------------------------------------
SFR_AN
  Relative segment, address: DATA 000000F2 - 000000F2 (0x1 bytes), align: 0
  Segment part 5. ROOT.       Intra module refs:   HalAdcRead
           ENTRY                   ADDRESS         REF BY
           =====                   =======         ======
           ADCCFG                  000000F2 
    -------------------------------------------------------------------------
XDATA_Z
  Relative segment, address: XDATA 000003DE - 000003DE (0x1 bytes), align: 0
  Segment part 11.            Intra module refs:   HalAdcRead
           LOCAL                   ADDRESS         
           =====                   =======         
           adcRef                  000003DE 
    -------------------------------------------------------------------------
<BANKED_CODE,CODE_C> 1 (was BANKED_CODE)
  Relative segment, address: CODE 00007298 - 0000733C (0xa5 bytes), align: 0
  Segment part 15.            Intra module refs:   HalAdcRead::?relay
           ENTRY                   ADDRESS         REF BY
           =====                   =======         ======
           HalAdcRead              00007298 
               XSTACK = 00000000 ( 0000000A )
    -------------------------------------------------------------------------
BANK_RELAYS
  Relative segment, address: CODE 000005ED - 000005F2 (0x6 bytes), align: 0
  Segment part 16.
           ENTRY                   ADDRESS         REF BY
           =====                   =======         ======
           HalAdcRead::?relay      000005ED        halGetJoyKeyInput (hal_key)

    *************************************************************************

  FILE NAME : C:\Users\MON\Desktop\IAR_TPMS\IAR Systems\SDK\BLE-CC254x-1.4.0\Projects\ble\TPMS_OBD\CC2540DB\CC2540EM\Obj\hal_aes.r51
  PROGRAM MODULE, NAME : hal_aes

  SEGMENTS IN THE MODULE
  ======================
SFR_AN
  Relative segment, address: DATA 000000B3 - 000000B3 (0x1 bytes), align: 0
  Segment part 1. ROOT.
           ENTRY                   ADDRESS         REF BY
           =====                   =======         ======
           ENCCS                   000000B3 
    -------------------------------------------------------------------------
SFR_AN
  Relative segment, address: DATA 000000D1 - 000000D1 (0x1 bytes), align: 0
  Segment part 2. ROOT.       Intra module refs:   HalFlashWrite (hal_flash)
           ENTRY                   ADDRESS         REF BY
           =====                   =======         ======
           DMAIRQ                  000000D1 
    -------------------------------------------------------------------------
SFR_AN
  Relative segment, address: DATA 000000D6 - 000000D6 (0x1 bytes), align: 0
  Segment part 3. ROOT.       Intra module refs:   HalFlashWrite (hal_flash)
           ENTRY                   ADDRESS         REF BY
           =====                   =======         ======
           DMAARM                  000000D6 

    *************************************************************************

  FILE NAME : C:\Users\MON\Desktop\IAR_TPMS\IAR Systems\SDK\BLE-CC254x-1.4.0\Projects\ble\TPMS_OBD\CC2540DB\CC2540EM\Obj\hal_dma.r51
  PROGRAM MODULE, NAME : hal_dma

  SEGMENTS IN THE MODULE
  ======================
SFR_AN
  Relative segment, address: DATA 000000D2 - 000000D2 (0x1 bytes), align: 0
  Segment part 1. ROOT.
           ENTRY                   ADDRESS         REF BY
           =====                   =======         ======
           DMA1CFGL                000000D2 
    -------------------------------------------------------------------------
SFR_AN
  Relative segment, address: DATA 000000D3 - 000000D3 (0x1 bytes), align: 0
  Segment part 2. ROOT.
           ENTRY                   ADDRESS         REF BY
           =====                   =======         ======
           DMA1CFGH                000000D3 
    -------------------------------------------------------------------------
SFR_AN
  Relative segment, address: DATA 000000D4 - 000000D4 (0x1 bytes), align: 0
  Segment part 3. ROOT.
           ENTRY                   ADDRESS         REF BY
           =====                   =======         ======
           DMA0CFGL                000000D4 
    -------------------------------------------------------------------------
SFR_AN
  Relative segment, address: DATA 000000D5 - 000000D5 (0x1 bytes), align: 0
  Segment part 4. ROOT.
           ENTRY                   ADDRESS         REF BY
           =====                   =======         ======
           DMA0CFGH                000000D5 
    -------------------------------------------------------------------------
XDATA_Z
  Relative segment, address: XDATA 000003DF - 000003E6 (0x8 bytes), align: 0
  Segment part 10.
           ENTRY                   ADDRESS         REF BY
           =====                   =======         ======
           dmaCh0                  000003DF        HalFlashWrite (hal_flash)
    -------------------------------------------------------------------------
XDATA_Z
  Relative segment, address: XDATA 000003E7 - 00000406 (0x20 bytes), align: 0
  Segment part 11.
           ENTRY                   ADDRESS         REF BY
           =====                   =======         ======
           dmaCh1234               000003E7        LL_ENC_InitAesDMA (ll_enc)

    *************************************************************************

  FILE NAME : C:\Users\MON\Desktop\IAR_TPMS\IAR Systems\SDK\BLE-CC254x-1.4.0\Projects\ble\TPMS_OBD\CC2540DB\CC2540EM\Obj\hal_drivers.r51
  PROGRAM MODULE, NAME : hal_drivers

  SEGMENTS IN THE MODULE
  ======================
XDATA_Z
  Relative segment, address: XDATA 00000407 - 00000407 (0x1 bytes), align: 0
  Segment part 6.             Intra module refs:   Hal_Init
                                                   Hal_ProcessEvent
           ENTRY                   ADDRESS         REF BY
           =====                   =======         ======
           Hal_TaskID              00000407        HalKeyConfig (hal_key)
                                                   HalLedBlink (hal_led)
                                                   HalLedUpdate (hal_led)
                                                   halProcessKeyInterrupt (hal_key)
    -------------------------------------------------------------------------
<BANKED_CODE,CODE_C> 1 (was BANKED_CODE)
  Relative segment, address: CODE 0000706D - 00007075 (0x9 bytes), align: 0
  Segment part 8.             Intra module refs:   Hal_Init::?relay
           ENTRY                   ADDRESS         REF BY
           =====                   =======         ======
           Hal_Init                0000706D 
               ISTACK = 00000000 ( 00000002 )
    -------------------------------------------------------------------------
<BANKED_CODE,CODE_C> 1 (was BANKED_CODE)
  Relative segment, address: CODE 00007076 - 0000707C (0x7 bytes), align: 0
  Segment part 10.            Intra module refs:   Hal_Init
           LOCAL                   ADDRESS         
           =====                   =======         
           ?Subroutine0            00007076 
    -------------------------------------------------------------------------
<BANKED_CODE,CODE_C> 1 (was BANKED_CODE)
  Relative segment, address: CODE 0000707D - 00007130 (0xb4 bytes), align: 0
  Segment part 13.            Intra module refs:   Hal_ProcessEvent::?relay
           ENTRY                   ADDRESS         REF BY
           =====                   =======         ======
           Hal_ProcessEvent        0000707D 
               calls direct
               XSTACK = 00000000 ( 0000000E )
    -------------------------------------------------------------------------
<BANKED_CODE,CODE_C> 1 (was BANKED_CODE)
  Relative segment, address: CODE 00007131 - 00007136 (0x6 bytes), align: 0
  Segment part 15.            Intra module refs:   Hal_ProcessPoll::?relay
           ENTRY                   ADDRESS         REF BY
           =====                   =======         ======
           Hal_ProcessPoll         00007131 
    -------------------------------------------------------------------------
<XDATA_ROM_C> 1 (was XDATA_ROM_C)
  Relative segment, address: CONST 00008E75 - 00008E78 (0x4 bytes), align: 0
  Segment part 7.             Intra module refs:   HalLedUpdate (hal_led)
                                                   Hal_ProcessEvent
           ENTRY                   ADDRESS         REF BY
           =====                   =======         ======
           __Constant_64           00008E75 
    -------------------------------------------------------------------------
BANK_RELAYS
  Relative segment, address: CODE 000005F3 - 000005F8 (0x6 bytes), align: 0
  Segment part 9.
           ENTRY                   ADDRESS         REF BY
           =====                   =======         ======
           Hal_Init::?relay        000005F3        osalInitTasks (OSAL_TPMS_OBD)
    -------------------------------------------------------------------------
BANK_RELAYS
  Relative segment, address: CODE 000005F9 - 000005FE (0x6 bytes), align: 0
  Segment part 14.
           ENTRY                   ADDRESS         REF BY
           =====                   =======         ======
           Hal_ProcessEvent::?relay
                                   000005F9        tasksArr (OSAL_TPMS_OBD)
    -------------------------------------------------------------------------
BANK_RELAYS
  Relative segment, address: CODE 000005FF - 00000604 (0x6 bytes), align: 0
  Segment part 16.
           ENTRY                   ADDRESS         REF BY
           =====                   =======         ======
           Hal_ProcessPoll::?relay
                                   000005FF        osal_run_system (OSAL)
    -------------------------------------------------------------------------
<XDATA_ROM_C_FLASH> 1 (was XDATA_ROM_C_FLASH)
  Relative segment, address: CODE 00008E75 - 00008E78 (0x4 bytes), align: 0
  Segment part 17.            Intra module refs:   __Constant_64

    *************************************************************************

  FILE NAME : C:\Users\MON\Desktop\IAR_TPMS\IAR Systems\SDK\BLE-CC254x-1.4.0\Projects\ble\TPMS_OBD\CC2540DB\CC2540EM\Obj\hal_flash.r51
  PROGRAM MODULE, NAME : hal_flash

  SEGMENTS IN THE MODULE
  ======================
SFR_AN
  Relative segment, address: DATA 000000C7 - 000000C7 (0x1 bytes), align: 0
  Segment part 2. ROOT.       Intra module refs:   HalFlashRead
                                                   __low_level_init (hal_startup)
           ENTRY                   ADDRESS         REF BY
           =====                   =======         ======
           MEMCTR                  000000C7 
    -------------------------------------------------------------------------
<BANKED_CODE,CODE_C> 1 (was BANKED_CODE)
  Relative segment, address: CODE 00006D70 - 00006DF4 (0x85 bytes), align: 0
  Segment part 10.            Intra module refs:   HalFlashRead::?relay
           ENTRY                   ADDRESS         REF BY
           =====                   =======         ======
           HalFlashRead            00006D70 
               XSTACK = 00000002 ( 0000000B )
               ISTACK = 00000000 ( 00000001 )
    -------------------------------------------------------------------------
<BANKED_CODE,CODE_C> 1 (was BANKED_CODE)
  Relative segment, address: CODE 00006DF5 - 00006E5A (0x66 bytes), align: 0
  Segment part 12.            Intra module refs:   HalFlashWrite::?relay
           ENTRY                   ADDRESS         REF BY
           =====                   =======         ======
           HalFlashWrite           00006DF5 
               XSTACK = 00000002 ( 0000000A )
    -------------------------------------------------------------------------
<BANKED_CODE,CODE_C> 1 (was BANKED_CODE)
  Relative segment, address: CODE 00006E5B - 00006E73 (0x19 bytes), align: 0
  Segment part 14.            Intra module refs:   HalFlashErase::?relay
           ENTRY                   ADDRESS         REF BY
           =====                   =======         ======
           HalFlashErase           00006E5B 
               ISTACK = 00000000 ( 00000002 )
    -------------------------------------------------------------------------
BANK_RELAYS
  Relative segment, address: CODE 00000605 - 0000060A (0x6 bytes), align: 0
  Segment part 11.
           ENTRY                   ADDRESS         REF BY
           =====                   =======         ======
           HalFlashRead::?relay    00000605        LL_Init (ll)
                                                   cleanErasedPage (osal_snv)
                                                   compactPage (osal_snv)
                                                   erasePage (osal_snv)
                                                   findItem (osal_snv)
                                                   findOffset (osal_snv)
                                                   initNV (osal_snv)
                                                   verifyWordM (osal_snv)
    -------------------------------------------------------------------------
BANK_RELAYS
  Relative segment, address: CODE 0000060B - 00000610 (0x6 bytes), align: 0
  Segment part 13.
           ENTRY                   ADDRESS         REF BY
           =====                   =======         ======
           HalFlashWrite::?relay   0000060B        llFindTxPowerSettings (ll_common)
                                                   writeWord (osal_snv)
    -------------------------------------------------------------------------
BANK_RELAYS
  Relative segment, address: CODE 00000611 - 00000616 (0x6 bytes), align: 0
  Segment part 15.
           ENTRY                   ADDRESS         REF BY
           =====                   =======         ======
           HalFlashErase::?relay   00000611        erasePage (osal_snv)

    *************************************************************************

  FILE NAME : C:\Users\MON\Desktop\IAR_TPMS\IAR Systems\SDK\BLE-CC254x-1.4.0\Projects\ble\TPMS_OBD\CC2540DB\CC2540EM\Obj\hal_key.r51
  PROGRAM MODULE, NAME : hal_key

  SEGMENTS IN THE MODULE
  ======================
SFR_AN
  Relative segment, address: DATA 00000080 - 00000080 (0x1 bytes), align: 0
  Segment part 1. ROOT.       Intra module refs:   HalKeyPoll
                                                   HalKeyRead
                                                   LL_PowerOffReq (ll_sleep)
                                                   LL_PowerOnReq (ll_sleep)
           ENTRY                   ADDRESS         REF BY
           =====                   =======         ======
           _A_P0                   00000080 
           LOCAL                   ADDRESS         
           =====                   =======         
           P0                      00000080 
    -------------------------------------------------------------------------
SFR_AN
  Relative segment, address: DATA 00000089 - 00000089 (0x1 bytes), align: 0
  Segment part 2. ROOT.       Intra module refs:   HalKeyConfig
                                                   halKeyPort0Isr
                                                   halProcessKeyInterrupt
           ENTRY                   ADDRESS         REF BY
           =====                   =======         ======
           P0IFG                   00000089 
    -------------------------------------------------------------------------
SFR_AN
  Relative segment, address: DATA 0000008B - 0000008B (0x1 bytes), align: 0
  Segment part 3. ROOT.       Intra module refs:   HalKeyConfig
                                                   halKeyPort2Isr
                                                   halProcessKeyInterrupt
           ENTRY                   ADDRESS         REF BY
           =====                   =======         ======
           P2IFG                   0000008B 
    -------------------------------------------------------------------------
SFR_AN
  Relative segment, address: DATA 0000008C - 0000008C (0x1 bytes), align: 0
  Segment part 4. ROOT.       Intra module refs:   HalKeyConfig
           ENTRY                   ADDRESS         REF BY
           =====                   =======         ======
           PICTL                   0000008C 
    -------------------------------------------------------------------------
SFR_AN
  Relative segment, address: DATA 0000009A - 0000009A (0x1 bytes), align: 0
  Segment part 5. ROOT.       Intra module refs:   HalKeyConfig
                                                   halSleep (hal_sleep)
                                                   llClearSetInts (ll_common)
           ENTRY                   ADDRESS         REF BY
           =====                   =======         ======
           IEN2                    0000009A 
    -------------------------------------------------------------------------
SFR_AN
  Relative segment, address: DATA 000000A0 - 000000A0 (0x1 bytes), align: 0
  Segment part 6. ROOT.       Intra module refs:   HalKeyPoll
                                                   HalKeyRead
                                                   LL_PowerOffReq (ll_sleep)
                                                   LL_PowerOnReq (ll_sleep)
           ENTRY                   ADDRESS         REF BY
           =====                   =======         ======
           _A_P2                   000000A0 
           LOCAL                   ADDRESS         
           =====                   =======         
           P2                      000000A0 
    -------------------------------------------------------------------------
SFR_AN
  Relative segment, address: DATA 000000AB - 000000AB (0x1 bytes), align: 0
  Segment part 8. ROOT.       Intra module refs:   HalKeyConfig
           ENTRY                   ADDRESS         REF BY
           =====                   =======         ======
           P0IEN                   000000AB 
    -------------------------------------------------------------------------
SFR_AN
  Relative segment, address: DATA 000000AC - 000000AC (0x1 bytes), align: 0
  Segment part 9. ROOT.       Intra module refs:   HalKeyConfig
           ENTRY                   ADDRESS         REF BY
           =====                   =======         ======
           P2IEN                   000000AC 
    -------------------------------------------------------------------------
SFR_AN
  Relative segment, address: DATA 000000B8 - 000000B8 (0x1 bytes), align: 0
  Segment part 10. ROOT.      Intra module refs:   HalKeyConfig
                                                   halSleep (hal_sleep)
                                                   llClearSetInts (ll_common)
           ENTRY                   ADDRESS         REF BY
           =====                   =======         ======
           _A_IEN1                 000000B8 
           LOCAL                   ADDRESS         
           =====                   =======         
           IEN1                    000000B8 
    -------------------------------------------------------------------------
SFR_AN
  Relative segment, address: DATA 000000C0 - 000000C0 (0x1 bytes), align: 0
  Segment part 11. ROOT.      Intra module refs:   halKeyPort0Isr
                                                   halSleep (hal_sleep)
                                                   halSleepSetTimer (hal_sleep)
                                                   halSleepTimerIsr (hal_sleep)
                                                   llClearSetInts (ll_common)
           ENTRY                   ADDRESS         REF BY
           =====                   =======         ======
           _A_IRCON                000000C0 
           LOCAL                   ADDRESS         
           =====                   =======         
           IRCON                   000000C0 
    -------------------------------------------------------------------------
SFR_AN
  Relative segment, address: DATA 000000F5 - 000000F5 (0x1 bytes), align: 0
  Segment part 14. ROOT.
           ENTRY                   ADDRESS         REF BY
           =====                   =======         ======
           P2SEL                   000000F5 
    -------------------------------------------------------------------------
SFR_AN
  Relative segment, address: DATA 000000F7 - 000000F7 (0x1 bytes), align: 0
  Segment part 15. ROOT.
           ENTRY                   ADDRESS         REF BY
           =====                   =======         ======
           P2INP                   000000F7 
    -------------------------------------------------------------------------
SFR_AN
  Relative segment, address: DATA 000000FD - 000000FD (0x1 bytes), align: 0
  Segment part 16. ROOT.
           ENTRY                   ADDRESS         REF BY
           =====                   =======         ======
           P0DIR                   000000FD 
    -------------------------------------------------------------------------
XDATA_Z
  Relative segment, address: XDATA 00000408 - 00000408 (0x1 bytes), align: 0
  Segment part 25.            Intra module refs:   HalKeyPoll
           LOCAL                   ADDRESS         
           =====                   =======         
           halKeySavedKeys         00000408 
    -------------------------------------------------------------------------
XDATA_Z
  Relative segment, address: XDATA 00000409 - 0000040A (0x2 bytes), align: 0
  Segment part 26.            Intra module refs:   HalKeyConfig
                                                   HalKeyPoll
           LOCAL                   ADDRESS         
           =====                   =======         
           pHalKeyProcessFunction
                                   00000409 
    -------------------------------------------------------------------------
XDATA_Z
  Relative segment, address: XDATA 0000040B - 0000040B (0x1 bytes), align: 0
  Segment part 27.            Intra module refs:   HalKeyConfig
           LOCAL                   ADDRESS         
           =====                   =======         
           HalKeyConfigured        0000040B 
    -------------------------------------------------------------------------
XDATA_Z
  Relative segment, address: XDATA 0000040C - 0000040C (0x1 bytes), align: 0
  Segment part 28.            Intra module refs:   HalKeyConfig
                                                   HalKeyPoll
           ENTRY                   ADDRESS         REF BY
           =====                   =======         ======
           Hal_KeyIntEnable        0000040C        Hal_ProcessEvent (hal_drivers)
    -------------------------------------------------------------------------
<BANKED_CODE,CODE_C> 1 (was BANKED_CODE)
  Relative segment, address: CODE 00006969 - 0000696F (0x7 bytes), align: 0
  Segment part 32.            Intra module refs:   HalKeyExitSleep
                                                   halProcessKeyInterrupt
           LOCAL                   ADDRESS         
           =====                   =======         
           ?Subroutine0            00006969 
    -------------------------------------------------------------------------
<BANKED_CODE,CODE_C> 1 (was BANKED_CODE)
  Relative segment, address: CODE 00006970 - 000069D5 (0x66 bytes), align: 0
  Segment part 33.            Intra module refs:   HalKeyConfig::?relay
           ENTRY                   ADDRESS         REF BY
           =====                   =======         ======
           HalKeyConfig            00006970 
               calls direct
               XSTACK = 00000000 ( 00000009 )
    -------------------------------------------------------------------------
<BANKED_CODE,CODE_C> 1 (was BANKED_CODE)
  Relative segment, address: CODE 000069D6 - 000069F0 (0x1b bytes), align: 0
  Segment part 35.            Intra module refs:   HalKeyRead::?relay
           ENTRY                   ADDRESS         REF BY
           =====                   =======         ======
           HalKeyRead              000069D6 
               calls direct
               XSTACK = 00000000 ( 00000009 )
    -------------------------------------------------------------------------
<BANKED_CODE,CODE_C> 1 (was BANKED_CODE)
  Relative segment, address: CODE 000069F1 - 000069F5 (0x5 bytes), align: 0
  Segment part 37.            Intra module refs:   HalKeyPoll
                                                   HalKeyRead
                                                   halGetJoyKeyInput
           LOCAL                   ADDRESS         
           =====                   =======         
           ?Subroutine1            000069F1 
    -------------------------------------------------------------------------
<BANKED_CODE,CODE_C> 1 (was BANKED_CODE)
  Relative segment, address: CODE 000069F6 - 00006A46 (0x51 bytes), align: 0
  Segment part 38.            Intra module refs:   HalKeyPoll::?relay
           ENTRY                   ADDRESS         REF BY
           =====                   =======         ======
           HalKeyPoll              000069F6 
               calls direct
               XSTACK = 00000000 ( 00000009 )
    -------------------------------------------------------------------------
<BANKED_CODE,CODE_C> 1 (was BANKED_CODE)
  Relative segment, address: CODE 00006A47 - 00006A9F (0x59 bytes), align: 0
  Segment part 40.            Intra module refs:   halGetJoyKeyInput::?relay
           ENTRY                   ADDRESS         REF BY
           =====                   =======         ======
           halGetJoyKeyInput       00006A47 
               calls direct
               XSTACK = 00000009 ( 00000009 )
    -------------------------------------------------------------------------
<BANKED_CODE,CODE_C> 1 (was BANKED_CODE)
  Relative segment, address: CODE 00006AA0 - 00006AD9 (0x3a bytes), align: 0
  Segment part 42.            Intra module refs:   halProcessKeyInterrupt::?relay
           ENTRY                   ADDRESS         REF BY
           =====                   =======         ======
           halProcessKeyInterrupt
                                   00006AA0 
               calls direct
               XSTACK = 0000000E ( 00000004 )
               ISTACK = 00000000 ( 00000002 )
    -------------------------------------------------------------------------
<BANKED_CODE,CODE_C> 1 (was BANKED_CODE)
  Relative segment, address: CODE 00006ADA - 00006ADC (0x3 bytes), align: 0
  Segment part 44.            Intra module refs:   HalKeyEnterSleep::?relay
           ENTRY                   ADDRESS         REF BY
           =====                   =======         ======
           HalKeyEnterSleep        00006ADA 
    -------------------------------------------------------------------------
<BANKED_CODE,CODE_C> 1 (was BANKED_CODE)
  Relative segment, address: CODE 00006ADD - 00006AE6 (0xa bytes), align: 0
  Segment part 46.            Intra module refs:   HalKeyExitSleep::?relay
           ENTRY                   ADDRESS         REF BY
           =====                   =======         ======
           HalKeyExitSleep         00006ADD 
               calls direct
               ISTACK = 00000000 ( 00000002 )
    -------------------------------------------------------------------------
NEAR_CODE
  Relative segment, address: CODE 000013A5 - 000013C0 (0x1c bytes), align: 0
  Segment part 48.            Intra module refs:   halKeyPort0Isr::??INTVEC 107
           ENTRY                   ADDRESS         REF BY
           =====                   =======         ======
           halKeyPort0Isr          000013A5 
               interrupt function
               calls direct
               XSTACK = 00000000 ( 0000000E )
    -------------------------------------------------------------------------
NEAR_CODE
  Relative segment, address: CODE 000013C1 - 000013CD (0xd bytes), align: 0
  Segment part 49.            Intra module refs:   halKeyPort0Isr
                                                   halKeyPort2Isr
           LOCAL                   ADDRESS         
           =====                   =======         
           ?Subroutine2            000013C1 
    -------------------------------------------------------------------------
NEAR_CODE
  Relative segment, address: CODE 000013CE - 000013EB (0x1e bytes), align: 0
  Segment part 50.            Intra module refs:   halKeyPort2Isr::??INTVEC 51
           ENTRY                   ADDRESS         REF BY
           =====                   =======         ======
           halKeyPort2Isr          000013CE 
               interrupt function
               calls direct
               XSTACK = 00000000 ( 0000000E )
    -------------------------------------------------------------------------
INTVEC
  Common segment, address: CODE 00000000 - 00000035 (0x36 bytes), align: 0
  Segment part 18. ROOT.
           ENTRY                   ADDRESS         REF BY
           =====                   =======         ======
           halKeyPort2Isr::??INTVEC 51
                                   00000033 
    -------------------------------------------------------------------------
INTVEC
  Common segment, address: CODE 00000000 - 0000006D (0x6e bytes), align: 0
  Segment part 19. ROOT.
           ENTRY                   ADDRESS         REF BY
           =====                   =======         ======
           halKeyPort0Isr::??INTVEC 107
                                   0000006B 
    -------------------------------------------------------------------------
<XDATA_ROM_C> 1 (was XDATA_ROM_C)
  Relative segment, address: CONST 00008E79 - 00008E7C (0x4 bytes), align: 0
  Segment part 29.            Intra module refs:   LL_TimeToNextRfEvent (ll_sleep)
                                                   halProcessKeyInterrupt
           ENTRY                   ADDRESS         REF BY
           =====                   =======         ======
           __Constant_19           00008E79 
    -------------------------------------------------------------------------
BANK_RELAYS
  Relative segment, address: CODE 00000617 - 0000061C (0x6 bytes), align: 0
  Segment part 34.
           ENTRY                   ADDRESS         REF BY
           =====                   =======         ======
           HalKeyConfig::?relay    00000617        InitBoard (OnBoard)
                                                   OnBoard_KeyCallback (OnBoard)
    -------------------------------------------------------------------------
BANK_RELAYS
  Relative segment, address: CODE 0000061D - 00000622 (0x6 bytes), align: 0
  Segment part 36.            Intra module refs:   HalKeyExitSleep
           ENTRY                   ADDRESS         REF BY
           =====                   =======         ======
           HalKeyRead::?relay      0000061D 
    -------------------------------------------------------------------------
BANK_RELAYS
  Relative segment, address: CODE 00000623 - 00000628 (0x6 bytes), align: 0
  Segment part 39.
           ENTRY                   ADDRESS         REF BY
           =====                   =======         ======
           HalKeyPoll::?relay      00000623        Hal_ProcessEvent (hal_drivers)
    -------------------------------------------------------------------------
BANK_RELAYS
  Relative segment, address: CODE 00000629 - 0000062E (0x6 bytes), align: 0
  Segment part 41.            Intra module refs:   HalKeyPoll
                                                   HalKeyRead
           ENTRY                   ADDRESS         REF BY
           =====                   =======         ======
           halGetJoyKeyInput::?relay
                                   00000629 
    -------------------------------------------------------------------------
BANK_RELAYS
  Relative segment, address: CODE 0000062F - 00000634 (0x6 bytes), align: 0
  Segment part 43.            Intra module refs:   halKeyPort0Isr
                                                   halKeyPort2Isr
           ENTRY                   ADDRESS         REF BY
           =====                   =======         ======
           halProcessKeyInterrupt::?relay
                                   0000062F 
    -------------------------------------------------------------------------
BANK_RELAYS
  Relative segment, address: CODE 00000635 - 0000063A (0x6 bytes), align: 0
  Segment part 45.
           ENTRY                   ADDRESS         REF BY
           =====                   =======         ======
           HalKeyEnterSleep::?relay
                                   00000635        halSleep (hal_sleep)
    -------------------------------------------------------------------------
BANK_RELAYS
  Relative segment, address: CODE 0000063B - 00000640 (0x6 bytes), align: 0
  Segment part 47.
           ENTRY                   ADDRESS         REF BY
           =====                   =======         ======
           HalKeyExitSleep::?relay
                                   0000063B        halSleep (hal_sleep)
    -------------------------------------------------------------------------
<XDATA_ROM_C_FLASH> 1 (was XDATA_ROM_C_FLASH)
  Relative segment, address: CODE 00008E79 - 00008E7C (0x4 bytes), align: 0
  Segment part 51.            Intra module refs:   __Constant_19

    *************************************************************************

  FILE NAME : C:\Users\MON\Desktop\IAR_TPMS\IAR Systems\SDK\BLE-CC254x-1.4.0\Projects\ble\TPMS_OBD\CC2540DB\CC2540EM\Obj\hal_lcd.r51
  PROGRAM MODULE, NAME : hal_lcd

  SEGMENTS IN THE MODULE
  ======================

    *************************************************************************

  FILE NAME : C:\Users\MON\Desktop\IAR_TPMS\IAR Systems\SDK\BLE-CC254x-1.4.0\Projects\ble\TPMS_OBD\CC2540DB\CC2540EM\Obj\hal_led.r51
  PROGRAM MODULE, NAME : hal_led

  SEGMENTS IN THE MODULE
  ======================
XDATA_Z
  Relative segment, address: XDATA 0000040D - 0000040D (0x1 bytes), align: 0
  Segment part 8.             Intra module refs:   HalLedBlink
                                                   HalLedOnOff
                                                   HalLedSet
           LOCAL                   ADDRESS         
           =====                   =======         
           HalLedState             0000040D 
    -------------------------------------------------------------------------
XDATA_Z
  Relative segment, address: XDATA 0000040E - 0000040E (0x1 bytes), align: 0
  Segment part 9.             Intra module refs:   HalLedEnterSleep
                                                   HalLedExitSleep
           LOCAL                   ADDRESS         
           =====                   =======         
           HalSleepLedState        0000040E 
    -------------------------------------------------------------------------
XDATA_Z
  Relative segment, address: XDATA 0000040F - 0000040F (0x1 bytes), align: 0
  Segment part 10.            Intra module refs:   HalLedBlink
                                                   HalLedUpdate
           LOCAL                   ADDRESS         
           =====                   =======         
           preBlinkState           0000040F 
    -------------------------------------------------------------------------
XDATA_Z
  Relative segment, address: XDATA 00000410 - 00000434 (0x25 bytes), align: 0
  Segment part 11.            Intra module refs:   ?Subroutine0
                                                   HalLedBlink
                                                   HalLedEnterSleep
                                                   HalLedSet
                                                   HalLedUpdate
           LOCAL                   ADDRESS         
           =====                   =======         
           HalLedStatusControl     00000410 
    -------------------------------------------------------------------------
<BANKED_CODE,CODE_C> 1 (was BANKED_CODE)
  Relative segment, address: CODE 00004122 - 0000419A (0x79 bytes), align: 0
  Segment part 15.            Intra module refs:   HalLedSet::?relay
           ENTRY                   ADDRESS         REF BY
           =====                   =======         ======
           HalLedSet               00004122 
               calls direct, is recursive
               XSTACK = 0000001D ( 0000000B )
               ISTACK = 00000000 ( 00000001 )
    -------------------------------------------------------------------------
<BANKED_CODE,CODE_C> 1 (was BANKED_CODE)
  Relative segment, address: CODE 0000419B - 00004273 (0xd9 bytes), align: 0
  Segment part 17.            Intra module refs:   HalLedBlink::?relay
           ENTRY                   ADDRESS         REF BY
           =====                   =======         ======
           HalLedBlink             0000419B 
               calls direct, is recursive
               XSTACK = 0000000B ( 0000000E )
               ISTACK = 00000000 ( 00000001 )
    -------------------------------------------------------------------------
<BANKED_CODE,CODE_C> 1 (was BANKED_CODE)
  Relative segment, address: CODE 00004274 - 000044F5 (0x282 bytes), align: 0
  Segment part 19.            Intra module refs:   HalLedUpdate::?relay
           ENTRY                   ADDRESS         REF BY
           =====                   =======         ======
           HalLedUpdate            00004274 
               calls direct
               XSTACK = 00000000 ( 00000021 )
               ISTACK = 00000000 ( 00000001 )
    -------------------------------------------------------------------------
<BANKED_CODE,CODE_C> 1 (was BANKED_CODE)
  Relative segment, address: CODE 000044F6 - 000044FC (0x7 bytes), align: 0
  Segment part 21.            Intra module refs:   HalLedUpdate
           LOCAL                   ADDRESS         
           =====                   =======         
           ?Subroutine6            000044F6 
    -------------------------------------------------------------------------
<BANKED_CODE,CODE_C> 1 (was BANKED_CODE)
  Relative segment, address: CODE 000044FD - 00004501 (0x5 bytes), align: 0
  Segment part 22.            Intra module refs:   HalLedUpdate
           LOCAL                   ADDRESS         
           =====                   =======         
           ?Subroutine5            000044FD 
    -------------------------------------------------------------------------
<BANKED_CODE,CODE_C> 1 (was BANKED_CODE)
  Relative segment, address: CODE 00004502 - 00004508 (0x7 bytes), align: 0
  Segment part 23.            Intra module refs:   ?Subroutine4
                                                   ?Subroutine5
                                                   ?Subroutine6
                                                   HalLedUpdate
           LOCAL                   ADDRESS         
           =====                   =======         
           ?Subroutine8            00004502 
    -------------------------------------------------------------------------
<BANKED_CODE,CODE_C> 1 (was BANKED_CODE)
  Relative segment, address: CODE 00004509 - 00004510 (0x8 bytes), align: 0
  Segment part 24.            Intra module refs:   HalLedUpdate
           LOCAL                   ADDRESS         
           =====                   =======         
           ?Subroutine4            00004509 
    -------------------------------------------------------------------------
<BANKED_CODE,CODE_C> 1 (was BANKED_CODE)
  Relative segment, address: CODE 00004511 - 00004514 (0x4 bytes), align: 0
  Segment part 25.            Intra module refs:   HalLedUpdate
           LOCAL                   ADDRESS         
           =====                   =======         
           ?Subroutine3            00004511 
    -------------------------------------------------------------------------
<BANKED_CODE,CODE_C> 1 (was BANKED_CODE)
  Relative segment, address: CODE 00004515 - 0000451E (0xa bytes), align: 0
  Segment part 26.            Intra module refs:   ?Subroutine2
                                                   ?Subroutine3
           LOCAL                   ADDRESS         
           =====                   =======         
           ?Subroutine7            00004515 
    -------------------------------------------------------------------------
<BANKED_CODE,CODE_C> 1 (was BANKED_CODE)
  Relative segment, address: CODE 0000451F - 00004524 (0x6 bytes), align: 0
  Segment part 27.            Intra module refs:   HalLedUpdate
           LOCAL                   ADDRESS         
           =====                   =======         
           ?Subroutine2            0000451F 
    -------------------------------------------------------------------------
<BANKED_CODE,CODE_C> 1 (was BANKED_CODE)
  Relative segment, address: CODE 00004525 - 00004531 (0xd bytes), align: 0
  Segment part 28.            Intra module refs:   HalLedUpdate
           LOCAL                   ADDRESS         
           =====                   =======         
           ?Subroutine1            00004525 
    -------------------------------------------------------------------------
<BANKED_CODE,CODE_C> 1 (was BANKED_CODE)
  Relative segment, address: CODE 00004532 - 0000458A (0x59 bytes), align: 0
  Segment part 29.            Intra module refs:   HalLedOnOff::?relay
           ENTRY                   ADDRESS         REF BY
           =====                   =======         ======
           HalLedOnOff             00004532 
               XSTACK = 0000001D ( 00000000 )
               ISTACK = 00000000 ( 00000002 )
    -------------------------------------------------------------------------
<BANKED_CODE,CODE_C> 1 (was BANKED_CODE)
  Relative segment, address: CODE 0000458B - 0000458E (0x4 bytes), align: 0
  Segment part 31.            Intra module refs:   HalLedExitSleep
           LOCAL                   ADDRESS         
           =====                   =======         
           ?Subroutine0            0000458B 
    -------------------------------------------------------------------------
<BANKED_CODE,CODE_C> 1 (was BANKED_CODE)
  Relative segment, address: CODE 0000458F - 0000458F (0x1 bytes), align: 0
  Segment part 32.            Intra module refs:   ?Subroutine0
                                                   HalLedOnOff
    -------------------------------------------------------------------------
<BANKED_CODE,CODE_C> 1 (was BANKED_CODE)
  Relative segment, address: CODE 00004590 - 00004596 (0x7 bytes), align: 0
  Segment part 33.            Intra module refs:   HalLedEnterSleep
                                                   Segment part 32
    -------------------------------------------------------------------------
<BANKED_CODE,CODE_C> 1 (was BANKED_CODE)
  Relative segment, address: CODE 00004597 - 000045ED (0x57 bytes), align: 0
  Segment part 36.            Intra module refs:   HalLedEnterSleep::?relay
           ENTRY                   ADDRESS         REF BY
           =====                   =======         ======
           HalLedEnterSleep        00004597 
               calls direct
               ISTACK = 00000000 ( 00000002 )
    -------------------------------------------------------------------------
<BANKED_CODE,CODE_C> 1 (was BANKED_CODE)
  Relative segment, address: CODE 000045EE - 00004601 (0x14 bytes), align: 0
  Segment part 38.            Intra module refs:   HalLedExitSleep::?relay
           ENTRY                   ADDRESS         REF BY
           =====                   =======         ======
           HalLedExitSleep         000045EE 
               calls direct
               ISTACK = 00000000 ( 00000002 )
    -------------------------------------------------------------------------
BANK_RELAYS
  Relative segment, address: CODE 00000641 - 00000646 (0x6 bytes), align: 0
  Segment part 16.            Intra module refs:   HalLedBlink
                                                   HalLedUpdate
           ENTRY                   ADDRESS         REF BY
           =====                   =======         ======
           HalLedSet::?relay       00000641        InitBoard (OnBoard)
    -------------------------------------------------------------------------
BANK_RELAYS
  Relative segment, address: CODE 00000647 - 0000064C (0x6 bytes), align: 0
  Segment part 18.            Intra module refs:   HalLedSet
           ENTRY                   ADDRESS         REF BY
           =====                   =======         ======
           HalLedBlink::?relay     00000647 
    -------------------------------------------------------------------------
BANK_RELAYS
  Relative segment, address: CODE 0000064D - 00000652 (0x6 bytes), align: 0
  Segment part 20.            Intra module refs:   HalLedExitSleep
           ENTRY                   ADDRESS         REF BY
           =====                   =======         ======
           HalLedUpdate::?relay    0000064D        Hal_ProcessEvent (hal_drivers)
    -------------------------------------------------------------------------
BANK_RELAYS
  Relative segment, address: CODE 00000653 - 00000658 (0x6 bytes), align: 0
  Segment part 30.            Intra module refs:   HalLedEnterSleep
                                                   HalLedExitSleep
                                                   HalLedSet
                                                   HalLedUpdate
           ENTRY                   ADDRESS         REF BY
           =====                   =======         ======
           HalLedOnOff::?relay     00000653 
    -------------------------------------------------------------------------
BANK_RELAYS
  Relative segment, address: CODE 00000659 - 0000065E (0x6 bytes), align: 0
  Segment part 37.
           ENTRY                   ADDRESS         REF BY
           =====                   =======         ======
           HalLedEnterSleep::?relay
                                   00000659        halSleep (hal_sleep)
    -------------------------------------------------------------------------
BANK_RELAYS
  Relative segment, address: CODE 0000065F - 00000664 (0x6 bytes), align: 0
  Segment part 39.
           ENTRY                   ADDRESS         REF BY
           =====                   =======         ======
           HalLedExitSleep::?relay
                                   0000065F        halSleep (hal_sleep)

    *************************************************************************

  FILE NAME : C:\Users\MON\Desktop\IAR_TPMS\IAR Systems\SDK\BLE-CC254x-1.4.0\Projects\ble\TPMS_OBD\CC2540DB\CC2540EM\Obj\hal_sleep.r51
  PROGRAM MODULE, NAME : hal_sleep

  SEGMENTS IN THE MODULE
  ======================
SFR_AN
  Relative segment, address: DATA 00000087 - 00000087 (0x1 bytes), align: 0
  Segment part 1. ROOT.       Intra module refs:   halSetSleepMode
           ENTRY                   ADDRESS         REF BY
           =====                   =======         ======
           PCON                    00000087 
    -------------------------------------------------------------------------
SFR_AN
  Relative segment, address: DATA 00000095 - 00000095 (0x1 bytes), align: 0
  Segment part 2. ROOT.       Intra module refs:   halSleepReadTimer
                                                   halSleepSetTimer
                                                   llGetFullCTandST (ll_timer2)
           ENTRY                   ADDRESS         REF BY
           =====                   =======         ======
           ST0                     00000095 
    -------------------------------------------------------------------------
SFR_AN
  Relative segment, address: DATA 00000096 - 00000096 (0x1 bytes), align: 0
  Segment part 3. ROOT.       Intra module refs:   halSleepReadTimer
                                                   halSleepSetTimer
                                                   llGetFullCTandST (ll_timer2)
           ENTRY                   ADDRESS         REF BY
           =====                   =======         ======
           ST1                     00000096 
    -------------------------------------------------------------------------
SFR_AN
  Relative segment, address: DATA 00000097 - 00000097 (0x1 bytes), align: 0
  Segment part 4. ROOT.       Intra module refs:   halSleepReadTimer
                                                   halSleepSetTimer
                                                   llGetFullCTandST (ll_timer2)
           ENTRY                   ADDRESS         REF BY
           =====                   =======         ======
           ST2                     00000097 
    -------------------------------------------------------------------------
SFR_AN
  Relative segment, address: DATA 000000AD - 000000AD (0x1 bytes), align: 0
  Segment part 7. ROOT.       Intra module refs:   halSleep
           ENTRY                   ADDRESS         REF BY
           =====                   =======         ======
           STLOAD                  000000AD 
    -------------------------------------------------------------------------
XDATA_Z
  Relative segment, address: XDATA 00000435 - 00000435 (0x1 bytes), align: 0
  Segment part 17.            Intra module refs:   halSleep
           LOCAL                   ADDRESS         
           =====                   =======         
           halPwrMgtMode           00000435 
    -------------------------------------------------------------------------
XDATA_Z
  Relative segment, address: XDATA 00000436 - 00000436 (0x1 bytes), align: 0
  Segment part 18.            Intra module refs:   halSleep
           LOCAL                   ADDRESS         
           =====                   =======         
           wakeForRF               00000436 
    -------------------------------------------------------------------------
DATA_I
  Relative segment, address: DATA 0000001A - 0000001A (0x1 bytes), align: 0
  Segment part 19.            Intra module refs:   halSetSleepMode
                                                   halSleep
                                                   halSleepTimerIsr
           ENTRY                   ADDRESS         REF BY
           =====                   =======         ======
           halSleepPconValue       0000001A        ?Subroutine2 (hal_key)
                                                   Hal_ProcessPoll (hal_drivers)
    -------------------------------------------------------------------------
SLEEP_CODE
  Relative segment, address: CODE 00007FF8 - 00007FFF (0x8 bytes), align: 0
  Segment part 27.            Intra module refs:   halSetSleepMode::?relay
           ENTRY                   ADDRESS         REF BY
           =====                   =======         ======
           halSetSleepMode         00007FF8 
               XSTACK = 00000018 ( 00000000 )
    -------------------------------------------------------------------------
<BANKED_CODE,CODE_C> 1 (was BANKED_CODE)
  Relative segment, address: CODE 00006173 - 000062F4 (0x182 bytes), align: 0
  Segment part 29.            Intra module refs:   halSleep::?relay
           ENTRY                   ADDRESS         REF BY
           =====                   =======         ======
           halSleep                00006173 
               calls direct
               XSTACK = 00000000 ( 0000001C )
    -------------------------------------------------------------------------
<BANKED_CODE,CODE_C> 1 (was BANKED_CODE)
  Relative segment, address: CODE 000062F5 - 000062FD (0x9 bytes), align: 0
  Segment part 31.            Intra module refs:   halSleep
           LOCAL                   ADDRESS         
           =====                   =======         
           ?Subroutine0            000062F5 
    -------------------------------------------------------------------------
<BANKED_CODE,CODE_C> 1 (was BANKED_CODE)
  Relative segment, address: CODE 000062FE - 0000635E (0x61 bytes), align: 0
  Segment part 32.            Intra module refs:   halSleepSetTimer::?relay
           ENTRY                   ADDRESS         REF BY
           =====                   =======         ======
           halSleepSetTimer        000062FE 
               XSTACK = 0000001C ( 00000010 )
    -------------------------------------------------------------------------
<BANKED_CODE,CODE_C> 1 (was BANKED_CODE)
  Relative segment, address: CODE 0000635F - 000063A4 (0x46 bytes), align: 0
  Segment part 34.            Intra module refs:   halSleepReadTimer::?relay
           ENTRY                   ADDRESS         REF BY
           =====                   =======         ======
           halSleepReadTimer       0000635F 
               XSTACK = 00000018 ( 00000004 )
               ISTACK = 00000000 ( 00000003 )
    -------------------------------------------------------------------------
<BANKED_CODE,CODE_C> 1 (was BANKED_CODE)
  Relative segment, address: CODE 000063A5 - 000063A7 (0x3 bytes), align: 0
  Segment part 38.            Intra module refs:   halRestoreSleepLevel::?relay
           ENTRY                   ADDRESS         REF BY
           =====                   =======         ======
           halRestoreSleepLevel    000063A5 
    -------------------------------------------------------------------------
NEAR_CODE
  Relative segment, address: CODE 000013EC - 0000140F (0x24 bytes), align: 0
  Segment part 40.            Intra module refs:   halSleepTimerIsr::??INTVEC 43
           ENTRY                   ADDRESS         REF BY
           =====                   =======         ======
           halSleepTimerIsr        000013EC 
               interrupt function
               ISTACK = 00000000 ( 00000004 )
    -------------------------------------------------------------------------
INTVEC
  Common segment, address: CODE 00000000 - 0000002D (0x2e bytes), align: 0
  Segment part 11. ROOT.
           ENTRY                   ADDRESS         REF BY
           =====                   =======         ======
           halSleepTimerIsr::??INTVEC 43
                                   0000002B 
    -------------------------------------------------------------------------
DATA_ID
  Relative segment, address: CODE 0000014A - 0000014A (0x1 bytes), align: 0
  Segment part 20.            Intra module refs:   halSleepPconValue
    -------------------------------------------------------------------------
<XDATA_ROM_C> 1 (was XDATA_ROM_C)
  Relative segment, address: CONST 00008E7D - 00008E80 (0x4 bytes), align: 0
  Segment part 21.            Intra module refs:   halSleep
           ENTRY                   ADDRESS         REF BY
           =====                   =======         ======
           __Constant_9c41         00008E7D 
    -------------------------------------------------------------------------
<XDATA_ROM_C> 1 (was XDATA_ROM_C)
  Relative segment, address: CONST 00008E81 - 00008E84 (0x4 bytes), align: 0
  Segment part 22.            Intra module refs:   halSleep
           ENTRY                   ADDRESS         REF BY
           =====                   =======         ======
           __Constant_43           00008E81 
    -------------------------------------------------------------------------
<XDATA_ROM_C> 1 (was XDATA_ROM_C)
  Relative segment, address: CONST 00008E85 - 00008E88 (0x4 bytes), align: 0
  Segment part 23.            Intra module refs:   halSleep
           ENTRY                   ADDRESS         REF BY
           =====                   =======         ======
           __Constant_ff0001       00008E85 
    -------------------------------------------------------------------------
<XDATA_ROM_C> 1 (was XDATA_ROM_C)
  Relative segment, address: CONST 00008E89 - 00008E8C (0x4 bytes), align: 0
  Segment part 24.            Intra module refs:   halSleep
           ENTRY                   ADDRESS         REF BY
           =====                   =======         ======
           __Constant_ff0000       00008E89 
    -------------------------------------------------------------------------
<XDATA_ROM_C> 1 (was XDATA_ROM_C)
  Relative segment, address: CONST 00008E8D - 00008E90 (0x4 bytes), align: 0
  Segment part 25.            Intra module refs:   halSleep
           ENTRY                   ADDRESS         REF BY
           =====                   =======         ======
           __Constant_7d           00008E8D 
    -------------------------------------------------------------------------
<XDATA_ROM_C> 1 (was XDATA_ROM_C)
  Relative segment, address: CONST 00008E91 - 00008E94 (0x4 bytes), align: 0
  Segment part 26.            Intra module refs:   halSleepSetTimer
           ENTRY                   ADDRESS         REF BY
           =====                   =======         ======
           __Constant_ffffffdd     00008E91 
    -------------------------------------------------------------------------
BANK_RELAYS
  Relative segment, address: CODE 00000665 - 0000066A (0x6 bytes), align: 0
  Segment part 28.            Intra module refs:   halSleep
           ENTRY                   ADDRESS         REF BY
           =====                   =======         ======
           halSetSleepMode::?relay
                                   00000665 
    -------------------------------------------------------------------------
BANK_RELAYS
  Relative segment, address: CODE 0000066B - 00000670 (0x6 bytes), align: 0
  Segment part 30.
           ENTRY                   ADDRESS         REF BY
           =====                   =======         ======
           halSleep::?relay        0000066B        osal_pwrmgr_powerconserve (OSAL_PwrMgr)
    -------------------------------------------------------------------------
BANK_RELAYS
  Relative segment, address: CODE 00000671 - 00000676 (0x6 bytes), align: 0
  Segment part 33.            Intra module refs:   halSleep
           ENTRY                   ADDRESS         REF BY
           =====                   =======         ======
           halSleepSetTimer::?relay
                                   00000671 
    -------------------------------------------------------------------------
BANK_RELAYS
  Relative segment, address: CODE 00000677 - 0000067C (0x6 bytes), align: 0
  Segment part 35.            Intra module refs:   halSleep
           ENTRY                   ADDRESS         REF BY
           =====                   =======         ======
           halSleepReadTimer::?relay
                                   00000677 
    -------------------------------------------------------------------------
BANK_RELAYS
  Relative segment, address: CODE 0000067D - 00000682 (0x6 bytes), align: 0
  Segment part 39.
           ENTRY                   ADDRESS         REF BY
           =====                   =======         ======
           halRestoreSleepLevel::?relay
                                   0000067D        Hal_ProcessEvent (hal_drivers)
    -------------------------------------------------------------------------
<XDATA_ROM_C_FLASH> 1 (was XDATA_ROM_C_FLASH)
  Relative segment, address: CODE 00008E7D - 00008E80 (0x4 bytes), align: 0
  Segment part 41.            Intra module refs:   __Constant_9c41
    -------------------------------------------------------------------------
<XDATA_ROM_C_FLASH> 1 (was XDATA_ROM_C_FLASH)
  Relative segment, address: CODE 00008E81 - 00008E84 (0x4 bytes), align: 0
  Segment part 42.            Intra module refs:   __Constant_43
    -------------------------------------------------------------------------
<XDATA_ROM_C_FLASH> 1 (was XDATA_ROM_C_FLASH)
  Relative segment, address: CODE 00008E85 - 00008E88 (0x4 bytes), align: 0
  Segment part 43.            Intra module refs:   __Constant_ff0001
    -------------------------------------------------------------------------
<XDATA_ROM_C_FLASH> 1 (was XDATA_ROM_C_FLASH)
  Relative segment, address: CODE 00008E89 - 00008E8C (0x4 bytes), align: 0
  Segment part 44.            Intra module refs:   __Constant_ff0000
    -------------------------------------------------------------------------
<XDATA_ROM_C_FLASH> 1 (was XDATA_ROM_C_FLASH)
  Relative segment, address: CODE 00008E8D - 00008E90 (0x4 bytes), align: 0
  Segment part 45.            Intra module refs:   __Constant_7d
    -------------------------------------------------------------------------
<XDATA_ROM_C_FLASH> 1 (was XDATA_ROM_C_FLASH)
  Relative segment, address: CODE 00008E91 - 00008E94 (0x4 bytes), align: 0
  Segment part 46.            Intra module refs:   __Constant_ffffffdd

    *************************************************************************

  FILE NAME : C:\Users\MON\Desktop\IAR_TPMS\IAR Systems\SDK\BLE-CC254x-1.4.0\Projects\ble\TPMS_OBD\CC2540DB\CC2540EM\Obj\hal_startup.r51
  PROGRAM MODULE, NAME : hal_startup

  SEGMENTS IN THE MODULE
  ======================
CSTART
  Relative segment, address: CODE 00000086 - 00000090 (0xb bytes), align: 0
  Segment part 7. ROOT.
           ENTRY                   ADDRESS         REF BY
           =====                   =======         ======
           __low_level_init        00000086        __low_level_init_call (?cmain)

    *************************************************************************

  FILE NAME : C:\Users\MON\Desktop\IAR_TPMS\IAR Systems\SDK\BLE-CC254x-1.4.0\Projects\ble\TPMS_OBD\CC2540DB\CC2540EM\Obj\hal_timer.r51
    *************************************************************************

  FILE NAME : C:\Users\MON\Desktop\IAR_TPMS\IAR Systems\SDK\BLE-CC254x-1.4.0\Projects\ble\TPMS_OBD\CC2540DB\CC2540EM\Obj\hal_uart.r51
    *************************************************************************

  FILE NAME : C:\Users\MON\Desktop\IAR_TPMS\IAR Systems\SDK\BLE-CC254x-1.4.0\Projects\ble\TPMS_OBD\CC2540DB\CC2540EM\Obj\npi.r51
    *************************************************************************

  FILE NAME : C:\Users\MON\Desktop\IAR_TPMS\IAR Systems\SDK\BLE-CC254x-1.4.0\Projects\ble\TPMS_OBD\CC2540DB\CC2540EM\Obj\observer.r51
  PROGRAM MODULE, NAME : observer

  SEGMENTS IN THE MODULE
  ======================
XDATA_Z
  Relative segment, address: XDATA 00000437 - 00000437 (0x1 bytes), align: 0
  Segment part 6.             Intra module refs:   GAPObserverRole_CancelDiscovery
                                                   GAPObserverRole_Init
                                                   GAPObserverRole_ProcessEvent
                                                   GAPObserverRole_StartDevice
                                                   GAPObserverRole_StartDiscovery
           LOCAL                   ADDRESS         
           =====                   =======         
           gapObserverRoleTaskId   00000437 
    -------------------------------------------------------------------------
XDATA_Z
  Relative segment, address: XDATA 00000438 - 00000439 (0x2 bytes), align: 0
  Segment part 7.             Intra module refs:   GAPObserverRole_ProcessEvent
                                                   GAPObserverRole_StartDevice
           LOCAL                   ADDRESS         
           =====                   =======         
           pGapObserverRoleCB      00000438 
    -------------------------------------------------------------------------
XDATA_Z
  Relative segment, address: XDATA 0000043A - 0000043F (0x6 bytes), align: 0
  Segment part 8.             Intra module refs:   GAPObserverRole_ProcessEvent
           LOCAL                   ADDRESS         
           =====                   =======         
           gapObserverRoleBdAddr   0000043A 
    -------------------------------------------------------------------------
XDATA_Z
  Relative segment, address: XDATA 00000440 - 00000440 (0x1 bytes), align: 0
  Segment part 9.             Intra module refs:   GAPObserverRole_SetParameter
                                                   GAPObserverRole_StartDevice
           LOCAL                   ADDRESS         
           =====                   =======         
           gapObserverRoleMaxScanRes
                                   00000440 
    -------------------------------------------------------------------------
<BANKED_CODE,CODE_C> 1 (was BANKED_CODE)
  Relative segment, address: CODE 00006AE7 - 00006B1E (0x38 bytes), align: 0
  Segment part 10.            Intra module refs:   GAPObserverRole_StartDevice::?relay
           ENTRY                   ADDRESS         REF BY
           =====                   =======         ======
           GAPObserverRole_StartDevice
                                   00006AE7 
               calls direct
               XSTACK = 00000000 ( 0000000E )
    -------------------------------------------------------------------------
<BANKED_CODE,CODE_C> 1 (was BANKED_CODE)
  Relative segment, address: CODE 00006B1F - 00006B23 (0x5 bytes), align: 0
  Segment part 12.            Intra module refs:   GAPObserverRole_StartDevice
           LOCAL                   ADDRESS         
           =====                   =======         
           ?Subroutine0            00006B1F 
    -------------------------------------------------------------------------
<BANKED_CODE,CODE_C> 1 (was BANKED_CODE)
  Relative segment, address: CODE 00006B24 - 00006B4B (0x28 bytes), align: 0
  Segment part 13.            Intra module refs:   GAPObserverRole_SetParameter::?relay
           ENTRY                   ADDRESS         REF BY
           =====                   =======         ======
           GAPObserverRole_SetParameter
                                   00006B24 
               ISTACK = 00000000 ( 00000002 )
    -------------------------------------------------------------------------
<BANKED_CODE,CODE_C> 1 (was BANKED_CODE)
  Relative segment, address: CODE 00006B4C - 00006B52 (0x7 bytes), align: 0
  Segment part 15.            Intra module refs:   GAPObserverRole_CancelDiscovery
                                                   GAPObserverRole_SetParameter
           LOCAL                   ADDRESS         
           =====                   =======         
           ?Subroutine1            00006B4C 
    -------------------------------------------------------------------------
<BANKED_CODE,CODE_C> 1 (was BANKED_CODE)
  Relative segment, address: CODE 00006B53 - 00006B88 (0x36 bytes), align: 0
  Segment part 18.            Intra module refs:   GAPObserverRole_StartDiscovery::?relay
           ENTRY                   ADDRESS         REF BY
           =====                   =======         ======
           GAPObserverRole_StartDiscovery
                                   00006B53 
               calls direct
               XSTACK = 00000000 ( 0000000D )
               ISTACK = 00000000 ( 00000001 )
    -------------------------------------------------------------------------
<BANKED_CODE,CODE_C> 1 (was BANKED_CODE)
  Relative segment, address: CODE 00006B89 - 00006B8D (0x5 bytes), align: 0
  Segment part 20.            Intra module refs:   GAPObserverRole_Init
                                                   GAPObserverRole_StartDiscovery
           LOCAL                   ADDRESS         
           =====                   =======         
           ?Subroutine2            00006B89 
    -------------------------------------------------------------------------
<BANKED_CODE,CODE_C> 1 (was BANKED_CODE)
  Relative segment, address: CODE 00006B8E - 00006B9C (0xf bytes), align: 0
  Segment part 21.            Intra module refs:   GAPObserverRole_CancelDiscovery::?relay
           ENTRY                   ADDRESS         REF BY
           =====                   =======         ======
           GAPObserverRole_CancelDiscovery
                                   00006B8E 
               calls direct
               ISTACK = 00000000 ( 00000002 )
    -------------------------------------------------------------------------
<BANKED_CODE,CODE_C> 1 (was BANKED_CODE)
  Relative segment, address: CODE 00006B9D - 00006BAB (0xf bytes), align: 0
  Segment part 23.            Intra module refs:   GAPObserverRole_Init::?relay
           ENTRY                   ADDRESS         REF BY
           =====                   =======         ======
           GAPObserverRole_Init    00006B9D 
               calls direct
               XSTACK = 00000000 ( 00000009 )
    -------------------------------------------------------------------------
<BANKED_CODE,CODE_C> 1 (was BANKED_CODE)
  Relative segment, address: CODE 00006BAC - 00006C46 (0x9b bytes), align: 0
  Segment part 25.            Intra module refs:   GAPObserverRole_ProcessEvent::?relay
           ENTRY                   ADDRESS         REF BY
           =====                   =======         ======
           GAPObserverRole_ProcessEvent
                                   00006BAC 
               calls direct
               XSTACK = 00000000 ( 0000000E )
    -------------------------------------------------------------------------
BANK_RELAYS
  Relative segment, address: CODE 00000683 - 00000688 (0x6 bytes), align: 0
  Segment part 11.
           ENTRY                   ADDRESS         REF BY
           =====                   =======         ======
           GAPObserverRole_StartDevice::?relay
                                   00000683        TPMS_OBD_ProcessEvent (TPMS_OBD)
    -------------------------------------------------------------------------
BANK_RELAYS
  Relative segment, address: CODE 00000689 - 0000068E (0x6 bytes), align: 0
  Segment part 14.
           ENTRY                   ADDRESS         REF BY
           =====                   =======         ======
           GAPObserverRole_SetParameter::?relay
                                   00000689        TPMS_OBD_Init (TPMS_OBD)
    -------------------------------------------------------------------------
BANK_RELAYS
  Relative segment, address: CODE 0000068F - 00000694 (0x6 bytes), align: 0
  Segment part 19.
           ENTRY                   ADDRESS         REF BY
           =====                   =======         ======
           GAPObserverRole_StartDiscovery::?relay
                                   0000068F        TPMS_OBDEventCB (TPMS_OBD)
                                                   TPMS_OBD_ProcessEvent (TPMS_OBD)
    -------------------------------------------------------------------------
BANK_RELAYS
  Relative segment, address: CODE 00000695 - 0000069A (0x6 bytes), align: 0
  Segment part 22.
           ENTRY                   ADDRESS         REF BY
           =====                   =======         ======
           GAPObserverRole_CancelDiscovery::?relay
                                   00000695        TPMS_OBDEventCB (TPMS_OBD)
    -------------------------------------------------------------------------
BANK_RELAYS
  Relative segment, address: CODE 0000069B - 000006A0 (0x6 bytes), align: 0
  Segment part 24.
           ENTRY                   ADDRESS         REF BY
           =====                   =======         ======
           GAPObserverRole_Init::?relay
                                   0000069B        osalInitTasks (OSAL_TPMS_OBD)
    -------------------------------------------------------------------------
BANK_RELAYS
  Relative segment, address: CODE 000006A1 - 000006A6 (0x6 bytes), align: 0
  Segment part 26.
           ENTRY                   ADDRESS         REF BY
           =====                   =======         ======
           GAPObserverRole_ProcessEvent::?relay
                                   000006A1        tasksArr (OSAL_TPMS_OBD)

    *************************************************************************

  FILE NAME : C:\Users\MON\Desktop\IAR_TPMS\IAR Systems\SDK\BLE-CC254x-1.4.0\Projects\ble\TPMS_OBD\CC2540DB\CC2540EM\Obj\osal_bufmgr.r51
  PROGRAM MODULE, NAME : osal_bufmgr

  SEGMENTS IN THE MODULE
  ======================
XDATA_Z
  Relative segment, address: XDATA 00000441 - 00000442 (0x2 bytes), align: 0
  Segment part 7.             Intra module refs:   osal_bm_free
           LOCAL                   ADDRESS         
           =====                   =======         
           bm_list_ptr             00000441 
    -------------------------------------------------------------------------
<BANKED_CODE,CODE_C> 1 (was BANKED_CODE)
  Relative segment, address: CODE 00007504 - 00007571 (0x6e bytes), align: 0
  Segment part 11.            Intra module refs:   osal_bm_free::?relay
           ENTRY                   ADDRESS         REF BY
           =====                   =======         ======
           osal_bm_free            00007504 
               calls direct
               XSTACK = 00000000 ( 0000000A )
    -------------------------------------------------------------------------
<BANKED_CODE,CODE_C> 1 (was BANKED_CODE)
  Relative segment, address: CODE 00007572 - 00007575 (0x4 bytes), align: 0
  Segment part 17.            Intra module refs:   osal_bm_free
           LOCAL                   ADDRESS         
           =====                   =======         
           ?Subroutine2            00007572 
    -------------------------------------------------------------------------
<BANKED_CODE,CODE_C> 1 (was BANKED_CODE)
  Relative segment, address: CODE 00007576 - 0000757B (0x6 bytes), align: 0
  Segment part 18.            Intra module refs:   ?Subroutine2
                                                   osal_bm_free
    -------------------------------------------------------------------------
<BANKED_CODE,CODE_C> 1 (was BANKED_CODE)
  Relative segment, address: CODE 0000757C - 00007596 (0x1b bytes), align: 0
  Segment part 21.            Intra module refs:   osal_bm_free
           LOCAL                   ADDRESS         
           =====                   =======         
           ?Subroutine1            0000757C 
    -------------------------------------------------------------------------
BANK_RELAYS
  Relative segment, address: CODE 000006A7 - 000006AC (0x6 bytes), align: 0
  Segment part 12.
           ENTRY                   ADDRESS         REF BY
           =====                   =======         ======
           osal_bm_free::?relay    000006A7        HCI_ProcessEvent (hci_tl)

    *************************************************************************

  FILE NAME : C:\Users\MON\Desktop\IAR_TPMS\IAR Systems\SDK\BLE-CC254x-1.4.0\Projects\ble\TPMS_OBD\CC2540DB\CC2540EM\Obj\osal_cbtimer.r51
  PROGRAM MODULE, NAME : osal_cbtimer

  SEGMENTS IN THE MODULE
  ======================
XDATA_I
  Relative segment, address: XDATA 000004F3 - 000004F4 (0x2 bytes), align: 0
  Segment part 6.             Intra module refs:   osal_CbTimerInit
                                                   osal_CbTimerProcessEvent
           ENTRY                   ADDRESS         REF BY
           =====                   =======         ======
           baseTaskID              000004F3 
    -------------------------------------------------------------------------
XDATA_Z
  Relative segment, address: XDATA 00000443 - 0000047E (0x3c bytes), align: 0
  Segment part 8.             Intra module refs:   osal_CbTimerInit
                                                   osal_CbTimerProcessEvent
           ENTRY                   ADDRESS         REF BY
           =====                   =======         ======
           cbTimers                00000443 
    -------------------------------------------------------------------------
<BANKED_CODE,CODE_C> 1 (was BANKED_CODE)
  Relative segment, address: CODE 00006E74 - 00006E9D (0x2a bytes), align: 0
  Segment part 9.             Intra module refs:   osal_CbTimerInit::?relay
           ENTRY                   ADDRESS         REF BY
           =====                   =======         ======
           osal_CbTimerInit        00006E74 
               calls direct
               XSTACK = 00000000 ( 00000009 )
    -------------------------------------------------------------------------
<BANKED_CODE,CODE_C> 1 (was BANKED_CODE)
  Relative segment, address: CODE 00006E9E - 00006F6D (0xd0 bytes), align: 0
  Segment part 11.            Intra module refs:   osal_CbTimerProcessEvent::?relay
           ENTRY                   ADDRESS         REF BY
           =====                   =======         ======
           osal_CbTimerProcessEvent
                                   00006E9E 
               XSTACK = 00000000 ( 00000010 )
    -------------------------------------------------------------------------
<BANKED_CODE,CODE_C> 1 (was BANKED_CODE)
  Relative segment, address: CODE 00006F6E - 00006F72 (0x5 bytes), align: 0
  Segment part 13.            Intra module refs:   osal_CbTimerProcessEvent
           LOCAL                   ADDRESS         
           =====                   =======         
           ?Subroutine0            00006F6E 
    -------------------------------------------------------------------------
XDATA_ID
  Relative segment, address: CODE 000001BB - 000001BC (0x2 bytes), align: 0
  Segment part 7.             Intra module refs:   baseTaskID
    -------------------------------------------------------------------------
BANK_RELAYS
  Relative segment, address: CODE 000006AD - 000006B2 (0x6 bytes), align: 0
  Segment part 10.
           ENTRY                   ADDRESS         REF BY
           =====                   =======         ======
           osal_CbTimerInit::?relay
                                   000006AD        osalInitTasks (OSAL_TPMS_OBD)
    -------------------------------------------------------------------------
BANK_RELAYS
  Relative segment, address: CODE 000006B3 - 000006B8 (0x6 bytes), align: 0
  Segment part 12.
           ENTRY                   ADDRESS         REF BY
           =====                   =======         ======
           osal_CbTimerProcessEvent::?relay
                                   000006B3        tasksArr (OSAL_TPMS_OBD)

    *************************************************************************

  FILE NAME : C:\Users\MON\Desktop\IAR_TPMS\IAR Systems\SDK\BLE-CC254x-1.4.0\Projects\ble\TPMS_OBD\CC2540DB\CC2540EM\Obj\osal_snv.r51
  PROGRAM MODULE, NAME : osal_snv

  SEGMENTS IN THE MODULE
  ======================
BLENV_ADDRESS_SPACE
  Relative segment, address: CODE 0003E800 - 0003F7FF (0x1000 bytes), align: 0
  Segment part 6.             Intra module refs:   activePg
           ENTRY                   ADDRESS         REF BY
           =====                   =======         ======
           _nvBuf                  0003E800 
    -------------------------------------------------------------------------
XDATA_Z
  Relative segment, address: XDATA 0000047F - 0000047F (0x1 bytes), align: 0
  Segment part 7.             Intra module refs:   compactPage
                                                   findOffset
                                                   initNV
                                                   setActivePage
           LOCAL                   ADDRESS         
           =====                   =======         
           activePg                0000047F 
    -------------------------------------------------------------------------
XDATA_Z
  Relative segment, address: XDATA 00000480 - 00000481 (0x2 bytes), align: 0
  Segment part 8.             Intra module refs:   ?Subroutine8
                                                   compactPage
                                                   initNV
           LOCAL                   ADDRESS         
           =====                   =======         
           pgOff                   00000480 
    -------------------------------------------------------------------------
XDATA_Z
  Relative segment, address: XDATA 00000482 - 00000482 (0x1 bytes), align: 0
  Segment part 9.             Intra module refs:   compactPage
                                                   erasePage
                                                   initNV
                                                   setActivePage
                                                   verifyWordM
                                                   writeWord
           LOCAL                   ADDRESS         
           =====                   =======         
           failF                   00000482 
    -------------------------------------------------------------------------
<BANKED_CODE,CODE_C> 1 (was BANKED_CODE)
  Relative segment, address: CODE 00003667 - 00003723 (0xbd bytes), align: 0
  Segment part 13.            Intra module refs:   initNV::?relay
           LOCAL                   ADDRESS         
           =====                   =======         
           initNV                  00003667 
               calls direct
               XSTACK = 00000000 ( 00000012 )
    -------------------------------------------------------------------------
<BANKED_CODE,CODE_C> 1 (was BANKED_CODE)
  Relative segment, address: CODE 00003724 - 00003754 (0x31 bytes), align: 0
  Segment part 15.            Intra module refs:   setActivePage::?relay
           LOCAL                   ADDRESS         
           =====                   =======         
           setActivePage           00003724 
               calls direct
               XSTACK = 0000001D ( 0000000D )
    -------------------------------------------------------------------------
<BANKED_CODE,CODE_C> 1 (was BANKED_CODE)
  Relative segment, address: CODE 00003755 - 0000375E (0xa bytes), align: 0
  Segment part 17.            Intra module refs:   setActivePage
           LOCAL                   ADDRESS         
           =====                   =======         
           ?Subroutine1            00003755 
    -------------------------------------------------------------------------
<BANKED_CODE,CODE_C> 1 (was BANKED_CODE)
  Relative segment, address: CODE 0000375F - 000037B2 (0x54 bytes), align: 0
  Segment part 20.            Intra module refs:   erasePage::?relay
           LOCAL                   ADDRESS         
           =====                   =======         
           erasePage               0000375F 
               calls direct
               XSTACK = 0000001D ( 0000000F )
    -------------------------------------------------------------------------
<BANKED_CODE,CODE_C> 1 (was BANKED_CODE)
  Relative segment, address: CODE 000037B3 - 000037B6 (0x4 bytes), align: 0
  Segment part 22.            Intra module refs:   cleanErasedPage
                                                   erasePage
           LOCAL                   ADDRESS         
           =====                   =======         
           ?Subroutine3            000037B3 
    -------------------------------------------------------------------------
<BANKED_CODE,CODE_C> 1 (was BANKED_CODE)
  Relative segment, address: CODE 000037B7 - 000037B8 (0x2 bytes), align: 0
  Segment part 23.            Intra module refs:   findItem
                                                   findOffset
                                                   initNV
           LOCAL                   ADDRESS         
           =====                   =======         
           ?Subroutine0            000037B7 
    -------------------------------------------------------------------------
<BANKED_CODE,CODE_C> 1 (was BANKED_CODE)
  Relative segment, address: CODE 000037B9 - 000037BB (0x3 bytes), align: 0
  Segment part 24.            Intra module refs:   ?Subroutine0
                                                   ?Subroutine3
    -------------------------------------------------------------------------
<BANKED_CODE,CODE_C> 1 (was BANKED_CODE)
  Relative segment, address: CODE 000037BC - 000037C0 (0x5 bytes), align: 0
  Segment part 25.            Intra module refs:   Segment part 24
    -------------------------------------------------------------------------
<BANKED_CODE,CODE_C> 1 (was BANKED_CODE)
  Relative segment, address: CODE 000037C1 - 0000380C (0x4c bytes), align: 0
  Segment part 26.            Intra module refs:   cleanErasedPage::?relay
           LOCAL                   ADDRESS         
           =====                   =======         
           cleanErasedPage         000037C1 
               calls direct
               XSTACK = 00000010 ( 0000000F )
    -------------------------------------------------------------------------
<BANKED_CODE,CODE_C> 1 (was BANKED_CODE)
  Relative segment, address: CODE 0000380D - 00003865 (0x59 bytes), align: 0
  Segment part 28.            Intra module refs:   findOffset::?relay
           LOCAL                   ADDRESS         
           =====                   =======         
           findOffset              0000380D 
               calls direct
               XSTACK = 00000010 ( 00000012 )
    -------------------------------------------------------------------------
<BANKED_CODE,CODE_C> 1 (was BANKED_CODE)
  Relative segment, address: CODE 00003866 - 000038EB (0x86 bytes), align: 0
  Segment part 30.            Intra module refs:   findItem::?relay
           LOCAL                   ADDRESS         
           =====                   =======         
           findItem                00003866 
               calls direct
               XSTACK = 0000001D ( 00000012 )
    -------------------------------------------------------------------------
<BANKED_CODE,CODE_C> 1 (was BANKED_CODE)
  Relative segment, address: CODE 000038EC - 000038F6 (0xb bytes), align: 0
  Segment part 32.            Intra module refs:   compactPage
                                                   findItem
                                                   findOffset
           LOCAL                   ADDRESS         
           =====                   =======         
           ?Subroutine6            000038EC 
    -------------------------------------------------------------------------
<BANKED_CODE,CODE_C> 1 (was BANKED_CODE)
  Relative segment, address: CODE 000038F7 - 00003AA6 (0x1b0 bytes), align: 0
  Segment part 37.            Intra module refs:   compactPage::?relay
           LOCAL                   ADDRESS         
           =====                   =======         
           compactPage             000038F7 
               calls direct
               XSTACK = 00000011 ( 0000001F )
               ISTACK = 00000000 ( 00000002 )
    -------------------------------------------------------------------------
<BANKED_CODE,CODE_C> 1 (was BANKED_CODE)
  Relative segment, address: CODE 00003AA7 - 00003AAC (0x6 bytes), align: 0
  Segment part 39.            Intra module refs:   ?Subroutine7
                                                   compactPage
                                                   findItem
           LOCAL                   ADDRESS         
           =====                   =======         
           ?Subroutine9            00003AA7 
    -------------------------------------------------------------------------
<BANKED_CODE,CODE_C> 1 (was BANKED_CODE)
  Relative segment, address: CODE 00003AAD - 00003AB3 (0x7 bytes), align: 0
  Segment part 40.            Intra module refs:   compactPage
           LOCAL                   ADDRESS         
           =====                   =======         
           ?Subroutine7            00003AAD 
    -------------------------------------------------------------------------
<BANKED_CODE,CODE_C> 1 (was BANKED_CODE)
  Relative segment, address: CODE 00003AB4 - 00003B35 (0x82 bytes), align: 0
  Segment part 41.            Intra module refs:   verifyWordM::?relay
           LOCAL                   ADDRESS         
           =====                   =======         
           verifyWordM             00003AB4 
               calls direct
               XSTACK = 00000016 ( 00000015 )
    -------------------------------------------------------------------------
<BANKED_CODE,CODE_C> 1 (was BANKED_CODE)
  Relative segment, address: CODE 00003B36 - 00003B9A (0x65 bytes), align: 0
  Segment part 43.            Intra module refs:   writeWord::?relay
           LOCAL                   ADDRESS         
           =====                   =======         
           writeWord               00003B36 
               calls direct
               XSTACK = 0000001D ( 00000012 )
    -------------------------------------------------------------------------
<BANKED_CODE,CODE_C> 1 (was BANKED_CODE)
  Relative segment, address: CODE 00003B9B - 00003BB1 (0x17 bytes), align: 0
  Segment part 45.            Intra module refs:   osal_snv_init::?relay
           ENTRY                   ADDRESS         REF BY
           =====                   =======         ======
           osal_snv_init           00003B9B 
               calls direct
               ISTACK = 00000000 ( 00000002 )
    -------------------------------------------------------------------------
<BANKED_CODE,CODE_C> 1 (was BANKED_CODE)
  Relative segment, address: CODE 00003BB2 - 00003BB4 (0x3 bytes), align: 0
  Segment part 49.            Intra module refs:   compactPage
           LOCAL                   ADDRESS         
           =====                   =======         
           ?Subroutine2            00003BB2 
    -------------------------------------------------------------------------
<BANKED_CODE,CODE_C> 1 (was BANKED_CODE)
  Relative segment, address: CODE 00003BB5 - 00003BB9 (0x5 bytes), align: 0
  Segment part 50.            Intra module refs:   ?Subroutine2
                                                   writeWord
    -------------------------------------------------------------------------
<BANKED_CODE,CODE_C> 1 (was BANKED_CODE)
  Relative segment, address: CODE 00003BBA - 00003BC4 (0xb bytes), align: 0
  Segment part 51.            Intra module refs:   findOffset
           LOCAL                   ADDRESS         
           =====                   =======         
           ?Subroutine8            00003BBA 
    -------------------------------------------------------------------------
<XDATA_ROM_C> 1 (was XDATA_ROM_C)
  Relative segment, address: CONST 00008E69 - 00008E6C (0x4 bytes), align: 0
  Segment part 10.            Intra module refs:   initNV
           ENTRY                   ADDRESS         REF BY
           =====                   =======         ======
           __Constant_100000       00008E69 
    -------------------------------------------------------------------------
<XDATA_ROM_C> 1 (was XDATA_ROM_C)
  Relative segment, address: CONST 00008E95 - 00008E98 (0x4 bytes), align: 0
  Segment part 11.            Intra module refs:   findOffset
                                                   llSetT2OVFC2Event2 (ll_timer2)
           ENTRY                   ADDRESS         REF BY
           =====                   =======         ======
           __Constant_ffffffff     00008E95 
    -------------------------------------------------------------------------
BANK_RELAYS
  Relative segment, address: CODE 000006B9 - 000006BE (0x6 bytes), align: 0
  Segment part 14.            Intra module refs:   osal_snv_init
           LOCAL                   ADDRESS         
           =====                   =======         
           initNV::?relay          000006B9 
    -------------------------------------------------------------------------
BANK_RELAYS
  Relative segment, address: CODE 000006BF - 000006C4 (0x6 bytes), align: 0
  Segment part 16.            Intra module refs:   compactPage
                                                   initNV
           LOCAL                   ADDRESS         
           =====                   =======         
           setActivePage::?relay   000006BF 
    -------------------------------------------------------------------------
BANK_RELAYS
  Relative segment, address: CODE 000006C5 - 000006CA (0x6 bytes), align: 0
  Segment part 21.            Intra module refs:   cleanErasedPage
                                                   compactPage
                                                   initNV
           LOCAL                   ADDRESS         
           =====                   =======         
           erasePage::?relay       000006C5 
    -------------------------------------------------------------------------
BANK_RELAYS
  Relative segment, address: CODE 000006CB - 000006D0 (0x6 bytes), align: 0
  Segment part 27.            Intra module refs:   initNV
           LOCAL                   ADDRESS         
           =====                   =======         
           cleanErasedPage::?relay
                                   000006CB 
    -------------------------------------------------------------------------
BANK_RELAYS
  Relative segment, address: CODE 000006D1 - 000006D6 (0x6 bytes), align: 0
  Segment part 29.            Intra module refs:   initNV
           LOCAL                   ADDRESS         
           =====                   =======         
           findOffset::?relay      000006D1 
    -------------------------------------------------------------------------
BANK_RELAYS
  Relative segment, address: CODE 000006D7 - 000006DC (0x6 bytes), align: 0
  Segment part 31.            Intra module refs:   compactPage
           LOCAL                   ADDRESS         
           =====                   =======         
           findItem::?relay        000006D7 
    -------------------------------------------------------------------------
BANK_RELAYS
  Relative segment, address: CODE 000006DD - 000006E2 (0x6 bytes), align: 0
  Segment part 38.            Intra module refs:   initNV
           LOCAL                   ADDRESS         
           =====                   =======         
           compactPage::?relay     000006DD 
    -------------------------------------------------------------------------
BANK_RELAYS
  Relative segment, address: CODE 000006E3 - 000006E8 (0x6 bytes), align: 0
  Segment part 42.            Intra module refs:   writeWord
           LOCAL                   ADDRESS         
           =====                   =======         
           verifyWordM::?relay     000006E3 
    -------------------------------------------------------------------------
BANK_RELAYS
  Relative segment, address: CODE 000006E9 - 000006EE (0x6 bytes), align: 0
  Segment part 44.            Intra module refs:   compactPage
                                                   setActivePage
           LOCAL                   ADDRESS         
           =====                   =======         
           writeWord::?relay       000006E9 
    -------------------------------------------------------------------------
BANK_RELAYS
  Relative segment, address: CODE 000006EF - 000006F4 (0x6 bytes), align: 0
  Segment part 46.
           ENTRY                   ADDRESS         REF BY
           =====                   =======         ======
           osal_snv_init::?relay   000006EF        main (TPMS_OBD_Main)
    -------------------------------------------------------------------------
<XDATA_ROM_C_FLASH> 1 (was XDATA_ROM_C_FLASH)
  Relative segment, address: CODE 00008E69 - 00008E6C (0x4 bytes), align: 0
  Segment part 58.            Intra module refs:   __Constant_100000
    -------------------------------------------------------------------------
<XDATA_ROM_C_FLASH> 1 (was XDATA_ROM_C_FLASH)
  Relative segment, address: CODE 00008E95 - 00008E98 (0x4 bytes), align: 0
  Segment part 59.            Intra module refs:   __Constant_ffffffff

    *************************************************************************

  FILE NAME : C:\Users\MON\Desktop\IAR_TPMS\IAR Systems\Embedded Workbench 6.5\8051\LIB\CLIB\cl-pli-blxd-1e16x01.r51
  LIBRARY MODULE, NAME : ?cexit

  SEGMENTS IN THE MODULE
  ======================
CSTART
  Relative segment, address: CODE 00000091 - 00000095 (0x5 bytes), align: 0
  Segment part 0.
           ENTRY                   ADDRESS         REF BY
           =====                   =======         ======
           exit                    00000091        ?call_main (?cmain)
           ?C_EXIT                 00000091 
           ?ROM_MONITOR_NOPS       00000091 

    -------------------------------------------------------------------------
  LIBRARY MODULE, NAME : ?cmain

  SEGMENTS IN THE MODULE
  ======================
CSTART
  Relative segment, address: CODE 00000096, align: 0
  Segment part 5.
           ENTRY                   ADDRESS         REF BY
           =====                   =======         ======
           ?cmain                  00000096        Segment part 13 (CSTARTUP)
               calls direct
    -------------------------------------------------------------------------
CSTART
  Relative segment, address: CODE 00000096 - 0000009E (0x9 bytes), align: 0
  Segment part 6.
           ENTRY                   ADDRESS         REF BY
           =====                   =======         ======
           __low_level_init_call   00000096        __low_level_init (hal_startup)
    -------------------------------------------------------------------------
CSTART
  Relative segment, address: CODE 0000009F - 000000AC (0xe bytes), align: 0
  Segment part 10.
           ENTRY                   ADDRESS         REF BY
           =====                   =======         ======
           __INIT_DATA_Z           0000009F        Segment part 1 (ll_halt)
    -------------------------------------------------------------------------
CSTART
  Relative segment, address: CODE 000000AD - 000000BA (0xe bytes), align: 0
  Segment part 12.
           ENTRY                   ADDRESS         REF BY
           =====                   =======         ======
           __INIT_IDATA_Z          000000AD        myPC (ll)
    -------------------------------------------------------------------------
CSTART
  Relative segment, address: CODE 000000BB - 000000CA (0x10 bytes), align: 0
  Segment part 16.
           ENTRY                   ADDRESS         REF BY
           =====                   =======         ======
           __INIT_XDATA_Z          000000BB        HalKeyConfigured (hal_key)
                                                   HalLedState (hal_led)
                                                   HalLedStatusControl (hal_led)
                                                   HalSleepLedState (hal_led)
                                                   Hal_KeyIntEnable (hal_key)
                                                   Hal_TaskID (hal_drivers)
                                                   LL_TaskID (ll)
                                                   OSAL_timeSeconds (OSAL_ClockBLE)
                                                   OnboardKeyIntEnable (OnBoard)
                                                   Segment part 10 (gap_simpletask)
                                                   Segment part 12 (gap_configmgr)
                                                   Segment part 12 (ll_scanEndCauses)
                                                   Segment part 15 (gap_configmgr)
                                                   Segment part 6 (gap_centdevmgr)
                                                   Segment part 7 (gap_centdevmgr)
                                                   Segment part 8 (ll_scheduler)
                                                   TXflag (TPMS_OBD)
                                                   activePg (osal_snv)
                                                   adcRef (hal_adc)
                                                   bleEvtMask (hci_event)
                                                   bm_list_ptr (osal_bufmgr)
                                                   buildInfo (ll)
                                                   cbTimers (osal_cbtimer)
                                                   clkDivOnHalt (ll)
                                                   dcdcData (ll)
                                                   deviceFeatureSet (ll)
                                                   dmaCh0 (hal_dma)
                                                   dmaCh1234 (hal_dma)
                                                   extendRfRange (ll)
                                                   failF (osal_snv)
                                                   gapAutoAdvPrivateAddrChange (gap_configmgr)
                                                   gapDeviceAddrMode (gap_configmgr)
                                                   gapObserverRoleBdAddr (observer)
                                                   gapObserverRoleMaxScanRes (observer)
                                                   gapObserverRoleTaskId (observer)
                                                   gapProfileRole (gap_configmgr)
                                                   gapTaskID (gap_simpletask)
                                                   halKeySavedKeys (hal_key)
                                                   halPwrMgtMode (hal_sleep)
                                                   haltDuringRf (ll)
                                                   hciCtrlCmdToken (hci)
                                                   hciExtTaskID (hci_tl)
                                                   hciGapTaskID (hci_tl)
                                                   hciL2capTaskID (hci_tl)
                                                   hciPTMenabled (hci)
                                                   hciSmpTaskID (hci_tl)
                                                   hciTaskID (hci_tl)
                                                   hciTestTaskID (hci_tl)
                                                   llState (ll)
                                                   maxTxPwrForDTM (ll)
                                                   numWLEntries (phy)
                                                   nvInUse (ll)
                                                   osalMemStat (OSAL_Memory)
                                                   osal_qHead (OSAL)
                                                   osal_systemClock (OSAL_Timers)
                                                   ownPublicAddr (ll)
                                                   ownRandomAddr (ll)
                                                   ownSavedPublicAddr (ll)
                                                   pGapDiscReq (gap_devmgr)
                                                   pGapObserverRoleCB (observer)
                                                   pHalKeyProcessFunction (hal_key)
                                                   pHciEvtMask (hci_event)
                                                   pfnPeripheralCBs (gap_simpletask)
                                                   pgOff (osal_snv)
                                                   postRfOperations (ll)
                                                   preBlinkState (hal_led)
                                                   previousLLTimerTick (OSAL_ClockBLE)
                                                   pwrmgr_attribute (OSAL_PwrMgr)
                                                   remUsTicks (OSAL_ClockBLE)
                                                   rssiCorrection (ll)
                                                   rxFifoFlowCtrl (ll)
                                                   scanInfo (ll)
                                                   sendMsgTo_TaskID (TPMS_OBD)
                                                   simpleBLEDevList (TPMS_OBD)
                                                   simpleBLEScanIdx (TPMS_OBD)
                                                   simpleBLEScanRes (TPMS_OBD)
                                                   simpleBLEScanning (TPMS_OBD)
                                                   simpleBLETaskId (TPMS_OBD)
                                                   sleepDelay (ll)
                                                   taskEndCause (ll)
                                                   tasksEvents (OSAL_TPMS_OBD)
                                                   temp (TPMS_OBD)
                                                   timeMSec (OSAL_ClockBLE)
                                                   timerHead (OSAL_Timers)
                                                   trngCounter (ll)
                                                   verInfo (ll)
                                                   wakeForRF (hal_sleep)
    -------------------------------------------------------------------------
CSTART
  Relative segment, address: CODE 000000CB - 000000DD (0x13 bytes), align: 0
  Segment part 24.
           ENTRY                   ADDRESS         REF BY
           =====                   =======         ======
           __INIT_DATA_I           000000CB        halSleepPconValue (hal_sleep)
    -------------------------------------------------------------------------
CSTART
  Relative segment, address: CODE 000000DE - 00000103 (0x26 bytes), align: 0
  Segment part 33.
           ENTRY                   ADDRESS         REF BY
           =====                   =======         ======
           __INIT_XDATA_I          000000DE        Segment part 13 (gap_configmgr)
                                                   Segment part 8 (gap_centdevmgr)
                                                   __Constant_0 (?smallwr)
                                                   activeTaskID (OSAL)
                                                   baseTaskID (osal_cbtimer)
                                                   gapAppTaskID (gap_configmgr)
                                                   gapUnwantedTaskID (gap_simpletask)
                                                   registeredKeysTaskID (OnBoard)
                                                   taskEndCauses (ll)
                                                   taskErrorEndCauses (ll)
    -------------------------------------------------------------------------
CSTART
  Relative segment, address: CODE 00000104, align: 0
  Segment part 37.            Intra module refs:   __low_level_init_call
    -------------------------------------------------------------------------
CSTART
  Relative segment, address: CODE 00000104 - 00000119 (0x16 bytes), align: 0
  Segment part 38.            Intra module refs:   ?cmain
           ENTRY                   ADDRESS         REF BY
           =====                   =======         ======
           ?call_main              00000104 

    -------------------------------------------------------------------------
  LIBRARY MODULE, NAME : CSTARTUP

  SEGMENTS IN THE MODULE
  ======================
REGISTERS
  Relative segment, address: DATA 00000000, align: 0
  Segment part 0.             Intra module refs:   Segment part 6
           ENTRY                   ADDRESS         REF BY
           =====                   =======         ======
           ?REGISTERS              00000000 
    -------------------------------------------------------------------------
ISTACK
  Relative segment, address: IDATA 00000040, align: 0
  Segment part 1.             Intra module refs:   Segment part 6
           ENTRY                   ADDRESS         REF BY
           =====                   =======         ======
           ?ISTACK_START           00000040 
    -------------------------------------------------------------------------
XSTACK
  Relative segment, address: XDATA 00000001, align: 0
  Segment part 3.             Intra module refs:   ?RESET_XSP
           ENTRY                   ADDRESS         REF BY
           =====                   =======         ======
           ?XSTACK_START           00000001 
    -------------------------------------------------------------------------
INTVEC
  Common segment, address: CODE 00000000 - 00000002 (0x3 bytes), align: 0
  Segment part 5. ROOT.       Intra module refs:   Segment part 6
    -------------------------------------------------------------------------
CSTART
  Relative segment, address: CODE 0000011A - 0000011F (0x6 bytes), align: 0
  Segment part 6. ROOT.       Intra module refs:   Segment part 5
           ENTRY                   ADDRESS         REF BY
           =====                   =======         ======
           __program_start         0000011A        Absolute parts (?ABS_ENTRY_MOD)
           ?RESET_SP               0000011D 
    -------------------------------------------------------------------------
CSTART
  Relative segment, address: CODE 00000120 - 00000125 (0x6 bytes), align: 0
  Segment part 8.
           ENTRY                   ADDRESS         REF BY
           =====                   =======         ======
           ?RESET_XSP              00000120        ?XSP (VIRTUAL_REGISTERS)
    -------------------------------------------------------------------------
CSTART
  Relative segment, address: CODE 00000126 - 00000128 (0x3 bytes), align: 0
  Segment part 9.
           ENTRY                   ADDRESS         REF BY
           =====                   =======         ======
           ?RESET_CODE_BANK        00000126        Absolute parts (?BANKED_CODE_SUPPORT)
    -------------------------------------------------------------------------
CSTART
  Relative segment, address: CODE 00000129 - 0000012B (0x3 bytes), align: 0
  Segment part 13.            Intra module refs:   Absolute parts

    -------------------------------------------------------------------------
  LIBRARY MODULE, NAME : VIRTUAL_REGISTERS

  SEGMENTS IN THE MODULE
  ======================
BREG
  Relative segment, address: BIT 00000020.0 - 00000020.7 (0x8 bits), align: 0
  Segment part 0.
           ENTRY                   ADDRESS         REF BY
           =====                   =======         ======
           ?B0                     00000020.0      Absolute parts (CSTARTUP)
    -------------------------------------------------------------------------
VREG
  Relative segment, address: DATA 00000008 - 00000008 (0x1 bytes), align: 0
  Segment part 1.             Intra module refs:   ?V1
           ENTRY                   ADDRESS         REF BY
           =====                   =======         ======
           ?V0                     00000008        ?BANKED_ENTER_XDATA (?BANKED_ENTER_XDATA)
                                                   ?BANKED_LEAVE_XDATA (?BANKED_LEAVE_XDATA)
                                                   ?FUNC_ENTER_XDATA (?FUNC_ENTER_XDATA)
                                                   ?FUNC_LEAVE_XDATA (?FUNC_LEAVE_XDATA)
                                                   ?INTERRUPT_ENTER_XSP (?INTERRUPT_ENTER_XSP)
                                                   ?INTERRUPT_LEAVE_XSP (?INTERRUPT_LEAVE_XSP)
                                                   ?Subroutine0 (hal_sleep)
                                                   ?Subroutine1 (hal_led)
                                                   ?Subroutine4 (hal_led)
                                                   ?UL_GE_X (?UL_GE_X)
                                                   GAPObserverRole_ProcessEvent (observer)
                                                   GAPObserverRole_StartDevice (observer)
                                                   GAPObserverRole_StartDiscovery (observer)
                                                   GAP_CentDevMgrInit (gap_centdevmgr)
                                                   GAP_DeviceDiscoveryRequest (gap_centdevmgr)
                                                   GAP_DeviceInit (gap)
                                                   GAP_ProcessEvent (gap_simpletask)
                                                   HCI_CommandCompleteEvent (hci_event)
                                                   HCI_LE_SetScanParamCmd (hci)
                                                   HCI_ProcessEvent (hci_tl)
                                                   HCI_SendCommandCompleteEvent (hci_event)
                                                   HCI_VendorSpecifcCommandCompleteEvent (hci_event)
                                                   HalAdcRead (hal_adc)
                                                   HalFlashRead (hal_flash)
                                                   HalFlashWrite (hal_flash)
                                                   HalKeyRead (hal_key)
                                                   HalLedBlink (hal_led)
                                                   HalLedSet (hal_led)
                                                   HalLedUpdate (hal_led)
                                                   Hal_ProcessEvent (hal_drivers)
                                                   LL_AdvReportCback (hci_event)
                                                   LL_ENC_GenerateTrueRandNum (ll_enc)
                                                   LL_Init (ll)
                                                   LL_PowerOffReq (ll_sleep)
                                                   LL_PowerOnReq (ll_sleep)
                                                   LL_ProcessEvent (ll)
                                                   LL_RandCback (hci)
                                                   LL_SetScanControl (ll)
                                                   LL_TimeToNextRfEvent (ll_sleep)
                                                   OnBoard_SendKeys (OnBoard)
                                                   PHY_AddWlEntry (phy)
                                                   PHY_ClearBlacklistIndex (phy)
                                                   PHY_RestoreWhiteList (phy)
                                                   PHY_SaveWhiteList (phy)
                                                   PHY_SetBlacklistIndex (phy)
                                                   RF_NormalIsr (ll_isr)
                                                   Segment part 104 (hci_event)
                                                   Segment part 105 (hci_event)
                                                   Segment part 116 (phy)
                                                   Segment part 120 (phy)
                                                   Segment part 131 (ll)
                                                   Segment part 204 (ll_common)
                                                   Segment part 23 (ll_scheduler)
                                                   Segment part 24 (?smallwr)
                                                   Segment part 31 (ll_scanEndCauses)
                                                   Segment part 31 (ll_scheduler)
                                                   Segment part 44 (hci_event)
                                                   Segment part 46 (gap_centdevmgr)
                                                   Segment part 50 (gap_configmgr)
                                                   Segment part 51 (gap_centdevmgr)
                                                   Segment part 52 (gap_centdevmgr)
                                                   Segment part 60 (hci_event)
                                                   Segment part 67 (ll_common)
                                                   TPMS_OBDEventCB (TPMS_OBD)
                                                   TPMS_OBD_ProcessEvent (TPMS_OBD)
                                                   _small_write (?smallwr)
                                                   cleanErasedPage (osal_snv)
                                                   compactPage (osal_snv)
                                                   erasePage (osal_snv)
                                                   findItem (osal_snv)
                                                   findOffset (osal_snv)
                                                   gapCentProcessHCICmdEvt (gap_centdevmgr)
                                                   gapFindADType (gap_devmgr)
                                                   gapFreeScanRecs (gap_centdevmgr)
                                                   gapProcessAdvertDevInfo (gap_centdevmgr)
                                                   gapProcessHCICmdCompleteEvt (gap_simpletask)
                                                   gapProcessRandomAddrComplete (gap_configmgr)
                                                   gapProcessScanningEvt (gap_centdevmgr)
                                                   gapReadBD_ADDRStatus (gap_configmgr)
                                                   gapSendDevDiscEvent (gap_centdevmgr)
                                                   gapSendDeviceInfoEvent (gap_centdevmgr)
                                                   gapSendDeviceInitDoneEvent (gap_configmgr)
                                                   gapSendScanEnable (gap_centdevmgr)
                                                   gapSetScanParamStatus (gap_centdevmgr)
                                                   halSleep (hal_sleep)
                                                   halSleepSetTimer (hal_sleep)
                                                   initNV (osal_snv)
                                                   ll24BitTimeCompare (ll_timer2)
                                                   ll24BitTimeDelta (ll_timer2)
                                                   llFindNextSecTask (ll_scheduler)
                                                   llFindTxPowerSettings (ll_common)
                                                   llInitFeatureSet (ll_common)
                                                   llProcessScanRxFIFO (ll_scanEndCauses)
                                                   llScanEvt_TaskEndOk (ll_scanEndCauses)
                                                   llScanEvt_TaskRxTimeout (ll_scanEndCauses)
                                                   llScheduleTask (ll_scheduler)
                                                   llScheduler (ll_scheduler)
                                                   llSetT2OVFC2Event2 (ll_timer2)
                                                   llSetupScan (ll_common)
                                                   osalAddTimer (OSAL_Timers)
                                                   osalTimeUpdate (OSAL_ClockBLE)
                                                   osalTimerUpdate (OSAL_Timers)
                                                   osal_CbTimerProcessEvent (osal_cbtimer)
                                                   osal_bm_free (osal_bufmgr)
                                                   osal_mem_alloc (OSAL_Memory)
                                                   osal_mem_kick (OSAL_Memory)
                                                   osal_memcmp (OSAL)
                                                   osal_memset (OSAL)
                                                   osal_msg_allocate (OSAL)
                                                   osal_msg_extract (OSAL)
                                                   osal_msg_receive (OSAL)
                                                   osal_next_timeout (OSAL_Timers)
                                                   osal_pwrmgr_powerconserve (OSAL_PwrMgr)
                                                   osal_pwrmgr_task_state (OSAL_PwrMgr)
                                                   osal_run_system (OSAL)
                                                   osal_start_reload_timer (OSAL_Timers)
                                                   osal_start_timerEx (OSAL_Timers)
                                                   osal_stop_timerEx (OSAL_Timers)
                                                   phyFindWlEntry (phy)
                                                   simpleBLEAddDeviceInfo (TPMS_OBD)
                                                   sprintf (?sprintf)
                                                   verifyWordM (osal_snv)
                                                   writeWord (osal_snv)
    -------------------------------------------------------------------------
VREG
  Relative segment, address: DATA 00000009 - 00000009 (0x1 bytes), align: 0
  Segment part 2.             Intra module refs:   ?V2
           ENTRY                   ADDRESS         REF BY
           =====                   =======         ======
           ?V1                     00000009        ?Subroutine0 (hal_sleep)
                                                   ?Subroutine1 (hal_led)
                                                   GAPObserverRole_ProcessEvent (observer)
                                                   GAPObserverRole_StartDevice (observer)
                                                   GAP_DeviceInit (gap)
                                                   HalAdcRead (hal_adc)
                                                   HalFlashRead (hal_flash)
                                                   HalFlashWrite (hal_flash)
                                                   HalLedBlink (hal_led)
                                                   HalLedSet (hal_led)
                                                   HalLedUpdate (hal_led)
                                                   Hal_ProcessEvent (hal_drivers)
                                                   OnBoard_SendKeys (OnBoard)
                                                   Segment part 24 (?smallwr)
                                                   TPMS_OBDEventCB (TPMS_OBD)
                                                   TPMS_OBD_ProcessEvent (TPMS_OBD)
                                                   _small_write (?smallwr)
                                                   compactPage (osal_snv)
                                                   findItem (osal_snv)
                                                   findOffset (osal_snv)
                                                   halSleep (hal_sleep)
                                                   halSleepSetTimer (hal_sleep)
                                                   initNV (osal_snv)
                                                   osalAddTimer (OSAL_Timers)
                                                   osalTimeUpdate (OSAL_ClockBLE)
                                                   osalTimerUpdate (OSAL_Timers)
                                                   osal_CbTimerProcessEvent (osal_cbtimer)
                                                   osal_bm_free (osal_bufmgr)
                                                   osal_mem_alloc (OSAL_Memory)
                                                   osal_mem_kick (OSAL_Memory)
                                                   osal_memcmp (OSAL)
                                                   osal_memset (OSAL)
                                                   osal_msg_allocate (OSAL)
                                                   osal_msg_extract (OSAL)
                                                   osal_msg_receive (OSAL)
                                                   osal_next_timeout (OSAL_Timers)
                                                   osal_pwrmgr_powerconserve (OSAL_PwrMgr)
                                                   osal_pwrmgr_task_state (OSAL_PwrMgr)
                                                   osal_run_system (OSAL)
                                                   osal_start_reload_timer (OSAL_Timers)
                                                   osal_start_timerEx (OSAL_Timers)
                                                   osal_stop_timerEx (OSAL_Timers)
                                                   simpleBLEAddDeviceInfo (TPMS_OBD)
                                                   sprintf (?sprintf)
                                                   verifyWordM (osal_snv)
                                                   writeWord (osal_snv)
    -------------------------------------------------------------------------
VREG
  Relative segment, address: DATA 0000000A - 0000000A (0x1 bytes), align: 0
  Segment part 3.             Intra module refs:   ?V3
           ENTRY                   ADDRESS         REF BY
           =====                   =======         ======
           ?V2                     0000000A        ?Subroutine0 (hal_sleep)
                                                   ?Subroutine1 (hal_led)
                                                   GAPObserverRole_ProcessEvent (observer)
                                                   HalFlashRead (hal_flash)
                                                   HalLedBlink (hal_led)
                                                   HalLedSet (hal_led)
                                                   HalLedUpdate (hal_led)
                                                   _small_write (?smallwr)
                                                   cleanErasedPage (osal_snv)
                                                   compactPage (osal_snv)
                                                   erasePage (osal_snv)
                                                   findItem (osal_snv)
                                                   findOffset (osal_snv)
                                                   halSleep (hal_sleep)
                                                   halSleepSetTimer (hal_sleep)
                                                   initNV (osal_snv)
                                                   osalAddTimer (OSAL_Timers)
                                                   osalTimeUpdate (OSAL_ClockBLE)
                                                   osalTimerUpdate (OSAL_Timers)
                                                   osal_CbTimerProcessEvent (osal_cbtimer)
                                                   osal_mem_alloc (OSAL_Memory)
                                                   osal_memcmp (OSAL)
                                                   osal_msg_extract (OSAL)
                                                   osal_msg_receive (OSAL)
                                                   osal_next_timeout (OSAL_Timers)
                                                   osal_pwrmgr_powerconserve (OSAL_PwrMgr)
                                                   osal_run_system (OSAL)
                                                   osal_start_reload_timer (OSAL_Timers)
                                                   osal_stop_timerEx (OSAL_Timers)
                                                   simpleBLEAddDeviceInfo (TPMS_OBD)
                                                   verifyWordM (osal_snv)
                                                   writeWord (osal_snv)
    -------------------------------------------------------------------------
VREG
  Relative segment, address: DATA 0000000B - 0000000B (0x1 bytes), align: 0
  Segment part 4.             Intra module refs:   ?V4
           ENTRY                   ADDRESS         REF BY
           =====                   =======         ======
           ?V3                     0000000B        ?Subroutine0 (hal_sleep)
                                                   ?Subroutine1 (hal_led)
                                                   GAPObserverRole_ProcessEvent (observer)
                                                   HalLedBlink (hal_led)
                                                   HalLedUpdate (hal_led)
                                                   _small_write (?smallwr)
                                                   cleanErasedPage (osal_snv)
                                                   compactPage (osal_snv)
                                                   erasePage (osal_snv)
                                                   findItem (osal_snv)
                                                   findOffset (osal_snv)
                                                   halSleep (hal_sleep)
                                                   halSleepSetTimer (hal_sleep)
                                                   initNV (osal_snv)
                                                   osalAddTimer (OSAL_Timers)
                                                   osalTimeUpdate (OSAL_ClockBLE)
                                                   osalTimerUpdate (OSAL_Timers)
                                                   osal_mem_alloc (OSAL_Memory)
                                                   osal_msg_extract (OSAL)
                                                   osal_msg_receive (OSAL)
                                                   osal_next_timeout (OSAL_Timers)
                                                   osal_pwrmgr_powerconserve (OSAL_PwrMgr)
                                                   osal_run_system (OSAL)
                                                   osal_start_reload_timer (OSAL_Timers)
                                                   osal_stop_timerEx (OSAL_Timers)
                                                   simpleBLEAddDeviceInfo (TPMS_OBD)
                                                   verifyWordM (osal_snv)
    -------------------------------------------------------------------------
VREG
  Relative segment, address: DATA 0000000C - 0000000C (0x1 bytes), align: 0
  Segment part 5.             Intra module refs:   ?V5
           ENTRY                   ADDRESS         REF BY
           =====                   =======         ======
           ?V4                     0000000C        HalLedBlink (hal_led)
                                                   HalLedUpdate (hal_led)
                                                   _small_write (?smallwr)
                                                   compactPage (osal_snv)
                                                   halSleep (hal_sleep)
                                                   osalAddTimer (OSAL_Timers)
                                                   osalTimeUpdate (OSAL_ClockBLE)
                                                   osalTimerUpdate (OSAL_Timers)
                                                   osal_CbTimerProcessEvent (osal_cbtimer)
                                                   osal_mem_alloc (OSAL_Memory)
                                                   osal_next_timeout (OSAL_Timers)
                                                   osal_start_reload_timer (OSAL_Timers)
                                                   simpleBLEAddDeviceInfo (TPMS_OBD)
                                                   verifyWordM (osal_snv)
                                                   writeWord (osal_snv)
    -------------------------------------------------------------------------
VREG
  Relative segment, address: DATA 0000000D - 0000000D (0x1 bytes), align: 0
  Segment part 6.             Intra module refs:   ?V6
           ENTRY                   ADDRESS         REF BY
           =====                   =======         ======
           ?V5                     0000000D        HalLedBlink (hal_led)
                                                   HalLedUpdate (hal_led)
                                                   _small_write (?smallwr)
                                                   compactPage (osal_snv)
                                                   halSleep (hal_sleep)
                                                   osalAddTimer (OSAL_Timers)
                                                   osalTimeUpdate (OSAL_ClockBLE)
                                                   osalTimerUpdate (OSAL_Timers)
                                                   osal_CbTimerProcessEvent (osal_cbtimer)
                                                   osal_mem_alloc (OSAL_Memory)
                                                   osal_next_timeout (OSAL_Timers)
                                                   osal_start_reload_timer (OSAL_Timers)
                                                   verifyWordM (osal_snv)
                                                   writeWord (osal_snv)
    -------------------------------------------------------------------------
VREG
  Relative segment, address: DATA 0000000E - 0000000E (0x1 bytes), align: 0
  Segment part 7.             Intra module refs:   ?V7
           ENTRY                   ADDRESS         REF BY
           =====                   =======         ======
           ?V6                     0000000E        HalLedUpdate (hal_led)
                                                   _small_write (?smallwr)
                                                   compactPage (osal_snv)
                                                   halSleep (hal_sleep)
                                                   osalAddTimer (OSAL_Timers)
                                                   osalTimeUpdate (OSAL_ClockBLE)
                                                   osalTimerUpdate (OSAL_Timers)
                                                   osal_CbTimerProcessEvent (osal_cbtimer)
                                                   osal_next_timeout (OSAL_Timers)
                                                   verifyWordM (osal_snv)
                                                   writeWord (osal_snv)
    -------------------------------------------------------------------------
VREG
  Relative segment, address: DATA 0000000F - 0000000F (0x1 bytes), align: 0
  Segment part 8.
           ENTRY                   ADDRESS         REF BY
           =====                   =======         ======
           ?V7                     0000000F        HalLedUpdate (hal_led)
                                                   _small_write (?smallwr)
                                                   compactPage (osal_snv)
                                                   halSleep (hal_sleep)
                                                   osalTimeUpdate (OSAL_ClockBLE)
                                                   osalTimerUpdate (OSAL_Timers)
                                                   osal_CbTimerProcessEvent (osal_cbtimer)
                                                   osal_next_timeout (OSAL_Timers)
                                                   writeWord (osal_snv)
    -------------------------------------------------------------------------
XSP
  Relative segment, address: DATA 00000018 - 00000019 (0x2 bytes), align: 0
  Segment part 34.
           ENTRY                   ADDRESS         REF BY
           =====                   =======         ======
           ?XSP                    00000018        ?ADD_XSTACK_DISP0_8 (?ADD_XSTACK_DISP8)
                                                   ?ALLOC_XSTACK8 (?ALLOC_XSTACK8)
                                                   ?BANKED_ENTER_XDATA (?BANKED_ENTER_XDATA)
                                                   ?BANKED_LEAVE_XDATA (?BANKED_LEAVE_XDATA)
                                                   ?DEALLOC_XSTACK8 (?DEALLOC_XSTACK8)
                                                   ?FUNC_ENTER_XDATA (?FUNC_ENTER_XDATA)
                                                   ?FUNC_LEAVE_XDATA (?FUNC_LEAVE_XDATA)
                                                   ?INTERRUPT_ENTER_XSP (?INTERRUPT_ENTER_XSP)
                                                   ?INTERRUPT_LEAVE_XSP (?INTERRUPT_LEAVE_XSP)
                                                   ?PUSH_XSTACK8_X (?PUSH_XSTACK8_X)
                                                   ?RESET_XSP (CSTARTUP)
                                                   ?Subroutine4 (TPMS_OBD)
                                                   ?XSTACK_DISP0_8 (?XSTACK_DISP8)
                                                   ?XSTACK_DISP100_8 (?XSTACK_DISP8_RP)
                                                   ?XSTACK_DISP101_8 (?XSTACK_DISP8_RP)
                                                   ?XSTACK_DISP102_8 (?XSTACK_DISP8_RP)
                                                   GAPObserverRole_StartDiscovery (observer)
                                                   HCI_LE_ReadBufSizeCmd (hci)
                                                   HalLedUpdate (hal_led)
                                                   LL_ENC_GenerateTrueRandNum (ll_enc)
                                                   LL_EXT_ExtendRfRangeCback (hci)
                                                   LL_EXT_SetRxGainCback (hci)
                                                   LL_EXT_SetTxPowerCback (hci)
                                                   LL_RandCback (hci)
                                                   LL_TimeToNextRfEvent (ll_sleep)
                                                   Segment part 115 (phy)
                                                   Segment part 116 (phy)
                                                   Segment part 35 (ll_timer2)
                                                   Segment part 38 (ll_timer2)
                                                   Segment part 44 (ll_timer2)
                                                   Segment part 50 (ll_timer2)
                                                   Segment part 51 (ll_timer2)
                                                   Segment part 56 (hci)
                                                   Segment part 61 (hci)
                                                   Segment part 62 (ll_timer2)
                                                   Segment part 87 (hci)
                                                   TPMS_OBD_Init (TPMS_OBD)
                                                   _small_write (?smallwr)
                                                   cleanErasedPage (osal_snv)
                                                   compactPage (osal_snv)
                                                   erasePage (osal_snv)
                                                   findItem (osal_snv)
                                                   findOffset (osal_snv)
                                                   halSleep (hal_sleep)
                                                   halSleepReadTimer (hal_sleep)
                                                   halSleepSetTimer (hal_sleep)
                                                   initNV (osal_snv)
                                                   llFindTxPowerSettings (ll_common)
                                                   llGetAdvChanPDU (ll_scanEndCauses)
                                                   llGetCurrentFineTime (ll_timer2)
                                                   llProcessPostRfOps (ll_common)
                                                   llProcessScanRxFIFO (ll_scanEndCauses)
                                                   llSetT2Delta (ll_timer2)
                                                   llSetT2OVFC2Event2 (ll_timer2)
                                                   llSetupScan (ll_common)
                                                   ll_McuPrecisionCount (ll_timer2)
                                                   memset (?memset)
                                                   osalTimerUpdate (OSAL_Timers)
                                                   setActivePage (osal_snv)
                                                   simpleBLEAddDeviceInfo (TPMS_OBD)
                                                   sprintf (?sprintf)

    -------------------------------------------------------------------------
  LIBRARY MODULE, NAME : ?BANKED_CODE_SUPPORT

  SEGMENTS IN THE MODULE
  ======================
CSTART
  Relative segment, address: CODE 0000012C - 00000149 (0x1e bytes), align: 0
  Segment part 0.
           ENTRY                   ADDRESS         REF BY
           =====                   =======         ======
           ?BCALL_FF               0000012C        ?call_main (?cmain)
           ?BRET_FF                00000132        ?BANKED_LEAVE_XDATA (?BANKED_LEAVE_XDATA)
                                                   ?Subroutine0 (OSAL)
                                                   ?Subroutine0 (OSAL_Memory)
                                                   ?Subroutine0 (OSAL_PwrMgr)
                                                   ?Subroutine0 (OSAL_Timers)
                                                   ?Subroutine0 (TPMS_OBD)
                                                   ?Subroutine0 (hal_drivers)
                                                   ?Subroutine0 (hal_key)
                                                   ?Subroutine1 (observer)
                                                   GAP_NumActiveConnections (gap_simpletask)
                                                   HalFlashErase (hal_flash)
                                                   HalKeyEnterSleep (hal_key)
                                                   Hal_ProcessPoll (hal_drivers)
                                                   InitClock (TPMS_OBD)
                                                   PHY_DeallocateRxFifo (phy)
                                                   Segment part 10 (hci_event)
                                                   Segment part 106 (hci)
                                                   Segment part 184 (phy)
                                                   Segment part 23 (hci_tl)
                                                   Segment part 31 (gap_simpletask)
                                                   Segment part 31 (ll_enc)
                                                   Segment part 33 (hal_led)
                                                   Segment part 40 (gap_configmgr)
                                                   Segment part 42 (ll_scheduler)
                                                   Segment part 54 (ll_timer2)
                                                   Segment part 64 (ll_common)
                                                   Segment part 73 (ll_timer2)
                                                   Segment part 84 (ll)
                                                   gapValidADType (gap_devmgr)
                                                   halRestoreSleepLevel (hal_sleep)
                                                   halSetSleepMode (hal_sleep)
                                                   halSleepReadTimer (hal_sleep)
                                                   llClearRfInts (ll_common)
                                                   llScanEvt_TaskAbort (ll_scanEndCauses)
                                                   llUnexpectedEndCauseHandler (ll_errorEndCauses)
                                                   main (TPMS_OBD_Main)
                                                   memset (?memset)
                                                   osalInitTasks (OSAL_TPMS_OBD)
                                                   osal_int_disable (OSAL)
                                                   osal_snv_init (osal_snv)
                                                   put_c_in_string (?sprintf)
                                                   strlen (?strlen)
           ?BDISPATCH_FF           00000135        GAPObserverRole_CancelDiscovery::?relay (observer)
                                                   GAPObserverRole_Init::?relay (observer)
                                                   GAPObserverRole_ProcessEvent::?relay (observer)
                                                   GAPObserverRole_SetParameter::?relay (observer)
                                                   GAPObserverRole_StartDevice::?relay (observer)
                                                   GAPObserverRole_StartDiscovery::?relay (observer)
                                                   GAP_CentDevMgrInit::?relay (gap_centdevmgr)
                                                   GAP_DeviceDiscoveryCancel::?relay (gap_centdevmgr)
                                                   GAP_DeviceDiscoveryRequest::?relay (gap_centdevmgr)
                                                   GAP_DeviceInit::?relay (gap)
                                                   GAP_GetParamValue::?relay (gap_configmgr)
                                                   GAP_Init::?relay (gap_simpletask)
                                                   GAP_NumActiveConnections::?relay (gap_simpletask)
                                                   GAP_ParamsInit::?relay (gap_configmgr)
                                                   GAP_ProcessEvent::?relay (gap_simpletask)
                                                   GAP_RegisterForHCIMsgs::?relay (gap_simpletask)
                                                   GAP_SetParamValue::?relay (gap_configmgr)
                                                   HCI_CommandCompleteEvent::?relay (hci_event)
                                                   HCI_GAPTaskRegister::?relay (hci_tl)
                                                   HCI_Init::?relay (hci_tl)
                                                   HCI_LE_ReadBufSizeCmd::?relay (hci)
                                                   HCI_LE_SetScanEnableCmd::?relay (hci)
                                                   HCI_LE_SetScanParamCmd::?relay (hci)
                                                   HCI_ProcessEvent::?relay (hci_tl)
                                                   HCI_ReadBDADDRCmd::?relay (hci)
                                                   HCI_SendCommandCompleteEvent::?relay (hci_event)
                                                   HCI_VendorSpecifcCommandCompleteEvent::?relay (hci_event)
                                                   HalAdcRead::?relay (hal_adc)
                                                   HalFlashErase::?relay (hal_flash)
                                                   HalFlashRead::?relay (hal_flash)
                                                   HalFlashWrite::?relay (hal_flash)
                                                   HalKeyConfig::?relay (hal_key)
                                                   HalKeyEnterSleep::?relay (hal_key)
                                                   HalKeyExitSleep::?relay (hal_key)
                                                   HalKeyPoll::?relay (hal_key)
                                                   HalKeyRead::?relay (hal_key)
                                                   HalLedBlink::?relay (hal_led)
                                                   HalLedEnterSleep::?relay (hal_led)
                                                   HalLedExitSleep::?relay (hal_led)
                                                   HalLedOnOff::?relay (hal_led)
                                                   HalLedSet::?relay (hal_led)
                                                   HalLedUpdate::?relay (hal_led)
                                                   Hal_Init::?relay (hal_drivers)
                                                   Hal_ProcessEvent::?relay (hal_drivers)
                                                   Hal_ProcessPoll::?relay (hal_drivers)
                                                   InitBoard::?relay (OnBoard)
                                                   InitClock::?relay (TPMS_OBD)
                                                   InitUART1::?relay (TPMS_OBD)
                                                   LL_AdvReportCback::?relay (hci_event)
                                                   LL_ENC_GeneratePseudoRandNum::?relay (ll_enc)
                                                   LL_ENC_GenerateTrueRandNum::?relay (ll_enc)
                                                   LL_ENC_InitAesDMA::?relay (ll_enc)
                                                   LL_EXT_ExtendRfRangeCback::?relay (hci)
                                                   LL_EXT_SetRxGainCback::?relay (hci)
                                                   LL_EXT_SetTxPowerCback::?relay (hci)
                                                   LL_Init::?relay (ll)
                                                   LL_ProcessEvent::?relay (ll)
                                                   LL_RandCback::?relay (hci)
                                                   LL_ReadBDADDR::?relay (ll)
                                                   LL_Reset::?relay (ll)
                                                   LL_SetScanControl::?relay (ll)
                                                   LL_SetScanParam::?relay (ll)
                                                   OnBoard_KeyCallback::?relay (OnBoard)
                                                   OnBoard_SendKeys::?relay (OnBoard)
                                                   PHY_AddWlEntry::?relay (phy)
                                                   PHY_ClearAllRegsAndFifos::?relay (phy)
                                                   PHY_ClearBlacklist::?relay (phy)
                                                   PHY_ClearBlacklistIndex::?relay (phy)
                                                   PHY_ClearSavedWhiteList::?relay (phy)
                                                   PHY_ClearWhitelist::?relay (phy)
                                                   PHY_ConfigWhitener::?relay (phy)
                                                   PHY_ConfigureAppendRfStatus::?relay (phy)
                                                   PHY_ConfigureFifoDataProcessing::?relay (phy)
                                                   PHY_ConfigureMD::?relay (phy)
                                                   PHY_DeallocateRxFifo::?relay (phy)
                                                   PHY_GetEndCause::?relay (phy)
                                                   PHY_Init::?relay (phy)
                                                   PHY_LoadNR::?relay (phy)
                                                   PHY_Reset::?relay (phy)
                                                   PHY_RestoreWhiteList::?relay (phy)
                                                   PHY_SaveWhiteList::?relay (phy)
                                                   PHY_SetBackoffCnt::?relay (phy)
                                                   PHY_SetBlacklistEntry::?relay (phy)
                                                   PHY_SetBlacklistIndex::?relay (phy)
                                                   PHY_SetCRCInit::?relay (phy)
                                                   PHY_SetEndConnection::?relay (phy)
                                                   PHY_SetFifoConfig::?relay (phy)
                                                   PHY_SetOwnAddr::?relay (phy)
                                                   PHY_SetScanEnd::?relay (phy)
                                                   PHY_SetScanMode::?relay (phy)
                                                   PHY_SetScanWlPolicy::?relay (phy)
                                                   PHY_SetSyncWord::?relay (phy)
                                                   PHY_VerifyNR::?relay (phy)
                                                   SerialApp_Init::?relay (TPMS_OBD)
                                                   TPMS_OBDEventCB::?relay (TPMS_OBD)
                                                   TPMS_OBD_Init::?relay (TPMS_OBD)
                                                   TPMS_OBD_ProcessEvent::?relay (TPMS_OBD)
                                                   Uart1SendString::?relay (TPMS_OBD)
                                                   _small_write::?relay (?smallwr)
                                                   cleanErasedPage::?relay (osal_snv)
                                                   compactPage::?relay (osal_snv)
                                                   erasePage::?relay (osal_snv)
                                                   findItem::?relay (osal_snv)
                                                   findOffset::?relay (osal_snv)
                                                   gapCentProcessHCICmdEvt::?relay (gap_centdevmgr)
                                                   gapDetermineAddrType::?relay (gap_configmgr)
                                                   gapFindADType::?relay (gap_devmgr)
                                                   gapFreeScanRecs::?relay (gap_centdevmgr)
                                                   gapProcessAdvertDevInfo::?relay (gap_centdevmgr)
                                                   gapProcessHCICmdCompleteEvt::?relay (gap_simpletask)
                                                   gapProcessRandomAddrComplete::?relay (gap_configmgr)
                                                   gapProcessScanningEvt::?relay (gap_centdevmgr)
                                                   gapReadBD_ADDRStatus::?relay (gap_configmgr)
                                                   gapReadBufSizeCmdStatus::?relay (gap_configmgr)
                                                   gapRegisterCentral::?relay (gap_simpletask)
                                                   gapSendDevDiscEvent::?relay (gap_centdevmgr)
                                                   gapSendDeviceInfoEvent::?relay (gap_centdevmgr)
                                                   gapSendDeviceInitDoneEvent::?relay (gap_configmgr)
                                                   gapSendScanEnable::?relay (gap_centdevmgr)
                                                   gapSetScanParamStatus::?relay (gap_centdevmgr)
                                                   gapValidADType::?relay (gap_devmgr)
                                                   halGetJoyKeyInput::?relay (hal_key)
                                                   halProcessKeyInterrupt::?relay (hal_key)
                                                   halRestoreSleepLevel::?relay (hal_sleep)
                                                   halSetSleepMode::?relay (hal_sleep)
                                                   halSleep::?relay (hal_sleep)
                                                   halSleepReadTimer::?relay (hal_sleep)
                                                   halSleepSetTimer::?relay (hal_sleep)
                                                   hciInitEventMasks::?relay (hci_event)
                                                   initNV::?relay (osal_snv)
                                                   llAllocTask::?relay (ll_scheduler)
                                                   llClearRfInts::?relay (ll_common)
                                                   llClearSetInts::?relay (ll_common)
                                                   llDisableRfInts::?relay (ll_common)
                                                   llDisableT2E1::?relay (ll_timer2)
                                                   llDisableT2Ints::?relay (ll_timer2)
                                                   llDisableT2IntsEvts::?relay (ll_timer2)
                                                   llEnableRfInts::?relay (ll_common)
                                                   llExtendRfRange::?relay (ll_common)
                                                   llFindNextSecTask::?relay (ll_scheduler)
                                                   llFindTxPowerSettings::?relay (ll_common)
                                                   llFreeTask::?relay (ll_scheduler)
                                                   llGenerateNextBackoffCount::?relay (ll_scanEndCauses)
                                                   llGetAdvChanPDU::?relay (ll_scanEndCauses)
                                                   llGetCurrentFineTime::?relay (ll_timer2)
                                                   llGetCurrentTask::?relay (ll_scheduler)
                                                   llGetCurrentTime::?relay (ll_timer2)
                                                   llGetFullCTandST::?relay (ll_timer2)
                                                   llGetNumTasks::?relay (ll_scheduler)
                                                   llGetTask::?relay (ll_scheduler)
                                                   llGetTaskState::?relay (ll_scheduler)
                                                   llInitFeatureSet::?relay (ll_common)
                                                   llInitTimer2::?relay (ll_timer2)
                                                   llProcessPostRfOps::?relay (ll_common)
                                                   llProcessScanRxFIFO::?relay (ll_scanEndCauses)
                                                   llRfInit::?relay (ll_common)
                                                   llScanEvt_TaskAbort::?relay (ll_scanEndCauses)
                                                   llScanEvt_TaskEndOk::?relay (ll_scanEndCauses)
                                                   llScanEvt_TaskRxTimeout::?relay (ll_scanEndCauses)
                                                   llScheduleTask::?relay (ll_scheduler)
                                                   llScheduler::?relay (ll_scheduler)
                                                   llSchedulerInit::?relay (ll_scheduler)
                                                   llSetFreqTune::?relay (ll_common)
                                                   llSetRxGain::?relay (ll_common)
                                                   llSetT2C1Event1::?relay (ll_timer2)
                                                   llSetT2Delta::?relay (ll_timer2)
                                                   llSetT2OVFC1Event1::?relay (ll_timer2)
                                                   llSetT2OVFC1Timeout::?relay (ll_timer2)
                                                   llSetT2OVFC2Event2::?relay (ll_timer2)
                                                   llSetTxPower::?relay (ll_common)
                                                   llSetupScan::?relay (ll_common)
                                                   llSetupScanInit::?relay (ll_common)
                                                   llStartScanSetup::?relay (ll_common)
                                                   llStartTimer2::?relay (ll_timer2)
                                                   llStopTimer2::?relay (ll_timer2)
                                                   llUnexpectedEndCauseHandler::?relay (ll_errorEndCauses)
                                                   ll_McuPrecisionCount::?relay (ll_timer2)
                                                   memset::?relay (?memset)
                                                   osalAddTimer::?relay (OSAL_Timers)
                                                   osalDeleteTimer::?relay (OSAL_Timers)
                                                   osalFindTimer::?relay (OSAL_Timers)
                                                   osalInitTasks::?relay (OSAL_TPMS_OBD)
                                                   osalTimeUpdate::?relay (OSAL_ClockBLE)
                                                   osalTimerInit::?relay (OSAL_Timers)
                                                   osalTimerUpdate::?relay (OSAL_Timers)
                                                   osal_CbTimerInit::?relay (osal_cbtimer)
                                                   osal_CbTimerProcessEvent::?relay (osal_cbtimer)
                                                   osal_GetSystemClock::?relay (OSAL_Timers)
                                                   osal_bm_free::?relay (osal_bufmgr)
                                                   osal_clear_event::?relay (OSAL)
                                                   osal_init_system::?relay (OSAL)
                                                   osal_int_disable::?relay (OSAL)
                                                   osal_mem_alloc::?relay (OSAL_Memory)
                                                   osal_mem_free::?relay (OSAL_Memory)
                                                   osal_mem_init::?relay (OSAL_Memory)
                                                   osal_mem_kick::?relay (OSAL_Memory)
                                                   osal_memcmp::?relay (OSAL)
                                                   osal_memcpy::?relay (OSAL)
                                                   osal_memset::?relay (OSAL)
                                                   osal_msg_allocate::?relay (OSAL)
                                                   osal_msg_deallocate::?relay (OSAL)
                                                   osal_msg_enqueue::?relay (OSAL)
                                                   osal_msg_enqueue_push::?relay (OSAL)
                                                   osal_msg_extract::?relay (OSAL)
                                                   osal_msg_push::?relay (OSAL)
                                                   osal_msg_receive::?relay (OSAL)
                                                   osal_msg_send::?relay (OSAL)
                                                   osal_next_timeout::?relay (OSAL_Timers)
                                                   osal_pwrmgr_device::?relay (OSAL_PwrMgr)
                                                   osal_pwrmgr_init::?relay (OSAL_PwrMgr)
                                                   osal_pwrmgr_powerconserve::?relay (OSAL_PwrMgr)
                                                   osal_pwrmgr_task_state::?relay (OSAL_PwrMgr)
                                                   osal_run_system::?relay (OSAL)
                                                   osal_set_event::?relay (OSAL)
                                                   osal_snv_init::?relay (osal_snv)
                                                   osal_start_reload_timer::?relay (OSAL_Timers)
                                                   osal_start_system::?relay (OSAL)
                                                   osal_start_timerEx::?relay (OSAL_Timers)
                                                   osal_stop_timerEx::?relay (OSAL_Timers)
                                                   phyFindWlEntry::?relay (phy)
                                                   put_c_in_string::?relay (?sprintf)
                                                   setActivePage::?relay (osal_snv)
                                                   simpleBLEAddDeviceInfo::?relay (TPMS_OBD)
                                                   sprintf::?relay (?sprintf)
                                                   strlen::?relay (?strlen)
                                                   verifyWordM::?relay (osal_snv)
                                                   writeWord::?relay (osal_snv)

    -------------------------------------------------------------------------
  LIBRARY MODULE, NAME : ?L_EQ_X

  SEGMENTS IN THE MODULE
  ======================
RCODE
  Relative segment, address: CODE 00000713 - 00000727 (0x15 bytes), align: 0
  Segment part 1.
           ENTRY                   ADDRESS         REF BY
           =====                   =======         ======
           ?L_EQ_X                 00000713        findOffset (osal_snv)
                                                   initNV (osal_snv)
                                                   llSetT2OVFC2Event2 (ll_timer2)

    -------------------------------------------------------------------------
  LIBRARY MODULE, NAME : ?SL_GT_X

  SEGMENTS IN THE MODULE
  ======================
RCODE
  Relative segment, address: CODE 00000728 - 0000073C (0x15 bytes), align: 0
  Segment part 1.
           ENTRY                   ADDRESS         REF BY
           =====                   =======         ======
           ?SL_GT_X                00000728        _small_write (?smallwr)

    -------------------------------------------------------------------------
  LIBRARY MODULE, NAME : ?UL_GT

  SEGMENTS IN THE MODULE
  ======================
RCODE
  Relative segment, address: CODE 0000073D - 0000074C (0x10 bytes), align: 0
  Segment part 1.
           ENTRY                   ADDRESS         REF BY
           =====                   =======         ======
           ?UL_GT                  0000073D        LL_TimeToNextRfEvent (ll_sleep)
                                                   ll24BitTimeCompare (ll_timer2)
                                                   ll24BitTimeDelta (ll_timer2)
                                                   osal_next_timeout (OSAL_Timers)

    -------------------------------------------------------------------------
  LIBRARY MODULE, NAME : ?UL_GT_X

  SEGMENTS IN THE MODULE
  ======================
RCODE
  Relative segment, address: CODE 0000074D - 0000075C (0x10 bytes), align: 0
  Segment part 1.
           ENTRY                   ADDRESS         REF BY
           =====                   =======         ======
           ?UL_GT_X                0000074D        HalLedUpdate (hal_led)
                                                   _small_write (?smallwr)
                                                   halSleep (hal_sleep)
                                                   osalTimerUpdate (OSAL_Timers)

    -------------------------------------------------------------------------
  LIBRARY MODULE, NAME : ?UL_GE_X

  SEGMENTS IN THE MODULE
  ======================
RCODE
  Relative segment, address: CODE 0000075D - 0000077B (0x1f bytes), align: 0
  Segment part 1.
           ENTRY                   ADDRESS         REF BY
           =====                   =======         ======
           ?UL_GE_X                0000075D        LL_TimeToNextRfEvent (ll_sleep)
                                                   halSleep (hal_sleep)
                                                   ll24BitTimeCompare (ll_timer2)

    -------------------------------------------------------------------------
  LIBRARY MODULE, NAME : ?L_MUL

  SEGMENTS IN THE MODULE
  ======================
RCODE
  Relative segment, address: CODE 0000077C - 0000077E (0x3 bytes), align: 0
  Segment part 0.
           ENTRY                   ADDRESS         REF BY
           =====                   =======         ======
           ?L_MUL                  0000077C        HalLedUpdate (hal_led)
                                                   llScheduleTask (ll_scheduler)
    -------------------------------------------------------------------------
RCODE
  Relative segment, address: CODE 0000077F - 000007FB (0x7d bytes), align: 0
  Segment part 1.             Intra module refs:   ?L_MUL
           ENTRY                   ADDRESS         REF BY
           =====                   =======         ======
           ?L_MUL_REW              0000077F 

    -------------------------------------------------------------------------
  LIBRARY MODULE, NAME : ?UL_DIV_MOD

  SEGMENTS IN THE MODULE
  ======================
RCODE
  Relative segment, address: CODE 000007FC - 0000086A (0x6f bytes), align: 0
  Segment part 1.
           ENTRY                   ADDRESS         REF BY
           =====                   =======         ======
           ?UL_DIV_MOD             000007FC        HalLedUpdate (hal_led)
                                                   LL_TimeToNextRfEvent (ll_sleep)
                                                   _small_write (?smallwr)
                                                   halSleep (hal_sleep)

    -------------------------------------------------------------------------
  LIBRARY MODULE, NAME : ?L_NEG

  SEGMENTS IN THE MODULE
  ======================
RCODE
  Relative segment, address: CODE 0000086B - 0000087B (0x11 bytes), align: 0
  Segment part 1.
           ENTRY                   ADDRESS         REF BY
           =====                   =======         ======
           ?L_NEG                  0000086B        _small_write (?smallwr)

    -------------------------------------------------------------------------
  LIBRARY MODULE, NAME : ?UL_SHR

  SEGMENTS IN THE MODULE
  ======================
RCODE
  Relative segment, address: CODE 0000087C - 00000880 (0x5 bytes), align: 0
  Segment part 1.             Intra module refs:   Segment part 2
           ENTRY                   ADDRESS         REF BY
           =====                   =======         ======
           ?UL_SHR                 0000087C        llFindTxPowerSettings (ll_common)
                                                   llScheduleTask (ll_scheduler)
    -------------------------------------------------------------------------
RCODE
  Relative segment, address: CODE 00000881 - 00000894 (0x14 bytes), align: 0
  Segment part 2.             Intra module refs:   ?UL_SHR

    -------------------------------------------------------------------------
  LIBRARY MODULE, NAME : ?L_SHL

  SEGMENTS IN THE MODULE
  ======================
RCODE
  Relative segment, address: CODE 00000895 - 0000089A (0x6 bytes), align: 0
  Segment part 0.
           ENTRY                   ADDRESS         REF BY
           =====                   =======         ======
           ?L_SHL                  00000895        LL_TimeToNextRfEvent (ll_sleep)
                                                   halSleep (hal_sleep)
    -------------------------------------------------------------------------
RCODE
  Relative segment, address: CODE 0000089B - 0000089F (0x5 bytes), align: 0
  Segment part 1.             Intra module refs:   Segment part 2
           ENTRY                   ADDRESS         REF BY
           =====                   =======         ======
           ?L_SHL_REW              0000089B 
    -------------------------------------------------------------------------
RCODE
  Relative segment, address: CODE 000008A0 - 000008B3 (0x14 bytes), align: 0
  Segment part 2.             Intra module refs:   ?L_SHL
                                                   ?L_SHL_REW

    -------------------------------------------------------------------------
  LIBRARY MODULE, NAME : ?L_ADD

  SEGMENTS IN THE MODULE
  ======================
RCODE
  Relative segment, address: CODE 000008B4 - 000008C6 (0x13 bytes), align: 0
  Segment part 1.
           ENTRY                   ADDRESS         REF BY
           =====                   =======         ======
           ?L_ADD                  000008B4        LL_SetScanControl (ll)
                                                   LL_TimeToNextRfEvent (ll_sleep)
                                                   ll24BitTimeDelta (ll_timer2)
                                                   llScheduler (ll_scheduler)

    -------------------------------------------------------------------------
  LIBRARY MODULE, NAME : ?L_ADD_X

  SEGMENTS IN THE MODULE
  ======================
RCODE
  Relative segment, address: CODE 000008C7 - 000008D9 (0x13 bytes), align: 0
  Segment part 1.
           ENTRY                   ADDRESS         REF BY
           =====                   =======         ======
           ?L_ADD_X                000008C7        HalLedUpdate (hal_led)
                                                   LL_SetScanControl (ll)
                                                   LL_TimeToNextRfEvent (ll_sleep)
                                                   halSleepSetTimer (hal_sleep)
                                                   llFindNextSecTask (ll_scheduler)
                                                   llScanEvt_TaskRxTimeout (ll_scanEndCauses)
                                                   llScheduler (ll_scheduler)

    -------------------------------------------------------------------------
  LIBRARY MODULE, NAME : ?L_ADD_TO_X

  SEGMENTS IN THE MODULE
  ======================
RCODE
  Relative segment, address: CODE 000008DA - 000008EC (0x13 bytes), align: 0
  Segment part 1.
           ENTRY                   ADDRESS         REF BY
           =====                   =======         ======
           ?L_ADD_TO_X             000008DA        halSleepSetTimer (hal_sleep)
                                                   llScanEvt_TaskRxTimeout (ll_scanEndCauses)
                                                   osalTimeUpdate (OSAL_ClockBLE)
                                                   osalTimerUpdate (OSAL_Timers)

    -------------------------------------------------------------------------
  LIBRARY MODULE, NAME : ?L_SUB

  SEGMENTS IN THE MODULE
  ======================
RCODE
  Relative segment, address: CODE 000008ED - 00000900 (0x14 bytes), align: 0
  Segment part 1.
           ENTRY                   ADDRESS         REF BY
           =====                   =======         ======
           ?L_SUB                  000008ED        LL_TimeToNextRfEvent (ll_sleep)
                                                   ll24BitTimeCompare (ll_timer2)
                                                   ll24BitTimeDelta (ll_timer2)

    -------------------------------------------------------------------------
  LIBRARY MODULE, NAME : ?L_SUB_FROM_X

  SEGMENTS IN THE MODULE
  ======================
RCODE
  Relative segment, address: CODE 00000901 - 00000914 (0x14 bytes), align: 0
  Segment part 1.
           ENTRY                   ADDRESS         REF BY
           =====                   =======         ======
           ?L_SUB_FROM_X           00000901        osalTimerUpdate (OSAL_Timers)

    -------------------------------------------------------------------------
  LIBRARY MODULE, NAME : ?L_AND_X

  SEGMENTS IN THE MODULE
  ======================
RCODE
  Relative segment, address: CODE 00000915 - 00000927 (0x13 bytes), align: 0
  Segment part 1.
           ENTRY                   ADDRESS         REF BY
           =====                   =======         ======
           ?L_AND_X                00000915        LL_SetScanControl (ll)
                                                   LL_TimeToNextRfEvent (ll_sleep)
                                                   ll24BitTimeCompare (ll_timer2)
                                                   ll24BitTimeDelta (ll_timer2)
                                                   llScheduler (ll_scheduler)

    -------------------------------------------------------------------------
  LIBRARY MODULE, NAME : ?L_MOV_X

  SEGMENTS IN THE MODULE
  ======================
RCODE
  Relative segment, address: CODE 00000928 - 00000936 (0xf bytes), align: 0
  Segment part 0.
           ENTRY                   ADDRESS         REF BY
           =====                   =======         ======
           ?L_MOV_X                00000928        HalLedUpdate (hal_led)
                                                   LL_TimeToNextRfEvent (ll_sleep)
                                                   _small_write (?smallwr)
                                                   findOffset (osal_snv)
                                                   halSleep (hal_sleep)
                                                   halSleepSetTimer (hal_sleep)
                                                   initNV (osal_snv)
                                                   ll24BitTimeCompare (ll_timer2)
                                                   ll24BitTimeDelta (ll_timer2)
                                                   llFindNextSecTask (ll_scheduler)
                                                   llFindTxPowerSettings (ll_common)
                                                   llScheduleTask (ll_scheduler)
                                                   llScheduler (ll_scheduler)
                                                   llSetT2OVFC2Event2 (ll_timer2)
                                                   osalAddTimer (OSAL_Timers)
                                                   osalTimerUpdate (OSAL_Timers)
                                                   osal_next_timeout (OSAL_Timers)
                                                   osal_start_reload_timer (OSAL_Timers)

    -------------------------------------------------------------------------
  LIBRARY MODULE, NAME : ?L_MOV_TO_X

  SEGMENTS IN THE MODULE
  ======================
RCODE
  Relative segment, address: CODE 00000937 - 00000945 (0xf bytes), align: 0
  Segment part 2.
           ENTRY                   ADDRESS         REF BY
           =====                   =======         ======
           ?L_MOV_TO_X             00000937        HalLedUpdate (hal_led)
                                                   LL_SetScanControl (ll)
                                                   LL_TimeToNextRfEvent (ll_sleep)
                                                   _small_write (?smallwr)
                                                   llScanEvt_TaskRxTimeout (ll_scanEndCauses)
                                                   llScheduler (ll_scheduler)
                                                   osalAddTimer (OSAL_Timers)
                                                   osalTimerUpdate (OSAL_Timers)
                                                   osal_start_reload_timer (OSAL_Timers)

    -------------------------------------------------------------------------
  LIBRARY MODULE, NAME : ?XLOAD_R2345

  SEGMENTS IN THE MODULE
  ======================
RCODE
  Relative segment, address: CODE 00000946 - 00000951 (0xc bytes), align: 0
  Segment part 0.
           ENTRY                   ADDRESS         REF BY
           =====                   =======         ======
           ?XLOAD_R2345            00000946        LL_Reset (ll)
                                                   Segment part 51 (ll_timer2)
                                                   halSleep (hal_sleep)
                                                   halSleepReadTimer (hal_sleep)
                                                   llFindNextSecTask (ll_scheduler)
                                                   llScheduleTask (ll_scheduler)
                                                   llScheduler (ll_scheduler)
                                                   llSetupScan (ll_common)
                                                   osal_GetSystemClock (OSAL_Timers)

    -------------------------------------------------------------------------
  LIBRARY MODULE, NAME : ?XSTORE_R2345

  SEGMENTS IN THE MODULE
  ======================
RCODE
  Relative segment, address: CODE 00000952 - 0000095D (0xc bytes), align: 0
  Segment part 0.
           ENTRY                   ADDRESS         REF BY
           =====                   =======         ======
           ?XSTORE_R2345           00000952        HalLedUpdate (hal_led)
                                                   halSleep (hal_sleep)
                                                   llAllocTask (ll_scheduler)

    -------------------------------------------------------------------------
  LIBRARY MODULE, NAME : ?XLOAD_R0123

  SEGMENTS IN THE MODULE
  ======================
RCODE
  Relative segment, address: CODE 0000095E - 00000969 (0xc bytes), align: 0
  Segment part 0.
           ENTRY                   ADDRESS         REF BY
           =====                   =======         ======
           ?XLOAD_R0123            0000095E        _small_write (?smallwr)
                                                   halSleep (hal_sleep)
                                                   initNV (osal_snv)
                                                   osalTimerUpdate (OSAL_Timers)

    -------------------------------------------------------------------------
  LIBRARY MODULE, NAME : ?XSTORE_R0123

  SEGMENTS IN THE MODULE
  ======================
RCODE
  Relative segment, address: CODE 0000096A - 00000975 (0xc bytes), align: 0
  Segment part 0.
           ENTRY                   ADDRESS         REF BY
           =====                   =======         ======
           ?XSTORE_R0123           0000096A        HalLedBlink (hal_led)
                                                   _small_write (?smallwr)
                                                   osalTimerUpdate (OSAL_Timers)

    -------------------------------------------------------------------------
  LIBRARY MODULE, NAME : ?MOVE_LONG8_XDATA_IDATA

  SEGMENTS IN THE MODULE
  ======================
RCODE
  Relative segment, address: CODE 00000976 - 00000982 (0xd bytes), align: 0
  Segment part 0.
           ENTRY                   ADDRESS         REF BY
           =====                   =======         ======
           ?MOVE_LONG8_XDATA_IDATA
                                   00000976        ?PUSH_XSTACK_I (?PUSH_XSTACK_I)

    -------------------------------------------------------------------------
  LIBRARY MODULE, NAME : ?MOVE_LONG8_XDATA_XDATA

  SEGMENTS IN THE MODULE
  ======================
RCODE
  Relative segment, address: CODE 00000983 - 000009A3 (0x21 bytes), align: 0
  Segment part 0.
           ENTRY                   ADDRESS         REF BY
           =====                   =======         ======
           ?MOVE_LONG8_XDATA_XDATA
                                   00000983        ?PUSH_XSTACK8_X (?PUSH_XSTACK8_X)
                                                   llFindTxPowerSettings (ll_common)
                                                   llSetupScan (ll_common)

    -------------------------------------------------------------------------
  LIBRARY MODULE, NAME : ?S_DIV_MOD

  SEGMENTS IN THE MODULE
  ======================
RCODE
  Relative segment, address: CODE 000009A4 - 000009FC (0x59 bytes), align: 0
  Segment part 1.
           ENTRY                   ADDRESS         REF BY
           =====                   =======         ======
           ?US_DIV_MOD             000009A4        llGenerateNextBackoffCount (ll_scanEndCauses)
                                                   osalTimeUpdate (OSAL_ClockBLE)

    -------------------------------------------------------------------------
  LIBRARY MODULE, NAME : ?SS_SHR

  SEGMENTS IN THE MODULE
  ======================
RCODE
  Relative segment, address: CODE 000009FD - 000009FF (0x3 bytes), align: 0
  Segment part 1.             Intra module refs:   Segment part 2
           ENTRY                   ADDRESS         REF BY
           =====                   =======         ======
           ?SS_SHR                 000009FD        HalAdcRead (hal_adc)
                                                   phyFindWlEntry (phy)
    -------------------------------------------------------------------------
RCODE
  Relative segment, address: CODE 00000A00 - 00000A0C (0xd bytes), align: 0
  Segment part 2.             Intra module refs:   ?SS_SHR

    -------------------------------------------------------------------------
  LIBRARY MODULE, NAME : ?US_SHR

  SEGMENTS IN THE MODULE
  ======================
RCODE
  Relative segment, address: CODE 00000A0D - 00000A0F (0x3 bytes), align: 0
  Segment part 1.             Intra module refs:   Segment part 2
           ENTRY                   ADDRESS         REF BY
           =====                   =======         ======
           ?US_SHR                 00000A0D        HalFlashWrite (hal_flash)
                                                   LL_Init (ll)
                                                   RF_NormalIsr (ll_isr)
                                                   llScanEvt_TaskEndOk (ll_scanEndCauses)
                                                   osalTimeUpdate (OSAL_ClockBLE)
                                                   osal_CbTimerProcessEvent (osal_cbtimer)
                                                   writeWord (osal_snv)
    -------------------------------------------------------------------------
RCODE
  Relative segment, address: CODE 00000A10 - 00000A1B (0xc bytes), align: 0
  Segment part 2.             Intra module refs:   ?US_SHR

    -------------------------------------------------------------------------
  LIBRARY MODULE, NAME : ?S_SHL

  SEGMENTS IN THE MODULE
  ======================
RCODE
  Relative segment, address: CODE 00000A1C - 00000A1E (0x3 bytes), align: 0
  Segment part 0.
           ENTRY                   ADDRESS         REF BY
           =====                   =======         ======
           ?S_SHL                  00000A1C        HalFlashRead (hal_flash)
                                                   LL_PowerOffReq (ll_sleep)
                                                   LL_PowerOnReq (ll_sleep)
                                                   PHY_AddWlEntry (phy)
                                                   PHY_ClearBlacklistIndex (phy)
                                                   PHY_RestoreWhiteList (phy)
                                                   PHY_SaveWhiteList (phy)
                                                   PHY_SetBlacklistIndex (phy)
                                                   TPMS_OBDEventCB (TPMS_OBD)
                                                   gapSendDevDiscEvent (gap_centdevmgr)
                                                   llFindTxPowerSettings (ll_common)
                                                   osal_CbTimerProcessEvent (osal_cbtimer)
                                                   osal_pwrmgr_task_state (OSAL_PwrMgr)
                                                   phyFindWlEntry (phy)
                                                   simpleBLEAddDeviceInfo (TPMS_OBD)
                                                   writeWord (osal_snv)
    -------------------------------------------------------------------------
RCODE
  Relative segment, address: CODE 00000A1F - 00000A21 (0x3 bytes), align: 0
  Segment part 1.             Intra module refs:   Segment part 2
           ENTRY                   ADDRESS         REF BY
           =====                   =======         ======
           ?S_SHL_REW              00000A1F 
    -------------------------------------------------------------------------
RCODE
  Relative segment, address: CODE 00000A22 - 00000A2E (0xd bytes), align: 0
  Segment part 2.             Intra module refs:   ?S_SHL
                                                   ?S_SHL_REW

    -------------------------------------------------------------------------
  LIBRARY MODULE, NAME : ?ALLOC_XSTACK8

  SEGMENTS IN THE MODULE
  ======================
RCODE
  Relative segment, address: CODE 00000A2F - 00000A44 (0x16 bytes), align: 0
  Segment part 0.
           ENTRY                   ADDRESS         REF BY
           =====                   =======         ======
           ?ALLOC_XSTACK8          00000A2F        GAPObserverRole_StartDiscovery (observer)
                                                   HCI_LE_ReadBufSizeCmd (hci)
                                                   HCI_LE_SetScanEnableCmd (hci)
                                                   HCI_LE_SetScanParamCmd (hci)
                                                   HCI_ReadBDADDRCmd (hci)
                                                   HalLedUpdate (hal_led)
                                                   LL_ENC_GenerateTrueRandNum (ll_enc)
                                                   LL_EXT_ExtendRfRangeCback (hci)
                                                   LL_EXT_SetRxGainCback (hci)
                                                   LL_EXT_SetTxPowerCback (hci)
                                                   LL_RandCback (hci)
                                                   LL_TimeToNextRfEvent (ll_sleep)
                                                   PHY_RestoreWhiteList (phy)
                                                   PHY_SaveWhiteList (phy)
                                                   TPMS_OBD_Init (TPMS_OBD)
                                                   _small_write (?smallwr)
                                                   cleanErasedPage (osal_snv)
                                                   compactPage (osal_snv)
                                                   erasePage (osal_snv)
                                                   findItem (osal_snv)
                                                   findOffset (osal_snv)
                                                   gapProcessAdvertDevInfo (gap_centdevmgr)
                                                   halSleep (hal_sleep)
                                                   halSleepReadTimer (hal_sleep)
                                                   halSleepSetTimer (hal_sleep)
                                                   initNV (osal_snv)
                                                   llFindTxPowerSettings (ll_common)
                                                   llGetAdvChanPDU (ll_scanEndCauses)
                                                   llGetCurrentFineTime (ll_timer2)
                                                   llGetCurrentTime (ll_timer2)
                                                   llProcessPostRfOps (ll_common)
                                                   llProcessScanRxFIFO (ll_scanEndCauses)
                                                   llSetT2C1Event1 (ll_timer2)
                                                   llSetT2Delta (ll_timer2)
                                                   llSetT2OVFC1Event1 (ll_timer2)
                                                   llSetT2OVFC1Timeout (ll_timer2)
                                                   llSetT2OVFC2Event2 (ll_timer2)
                                                   llSetupScan (ll_common)
                                                   ll_McuPrecisionCount (ll_timer2)
                                                   osalTimerUpdate (OSAL_Timers)
                                                   setActivePage (osal_snv)
                                                   simpleBLEAddDeviceInfo (TPMS_OBD)
                                                   sprintf (?sprintf)
                                                   verifyWordM (osal_snv)

    -------------------------------------------------------------------------
  LIBRARY MODULE, NAME : ?DEALLOC_XSTACK8

  SEGMENTS IN THE MODULE
  ======================
RCODE
  Relative segment, address: CODE 00000A45 - 00000A5F (0x1b bytes), align: 0
  Segment part 0.
           ENTRY                   ADDRESS         REF BY
           =====                   =======         ======
           ?DEALLOC_XSTACK8        00000A45        ?Subroutine1 (osal_snv)
                                                   ?Subroutine2 (osal_snv)
                                                   GAPObserverRole_ProcessEvent (observer)
                                                   GAPObserverRole_StartDevice (observer)
                                                   GAPObserverRole_StartDiscovery (observer)
                                                   GAP_DeviceDiscoveryRequest (gap_centdevmgr)
                                                   HCI_CommandCompleteEvent (hci_event)
                                                   HCI_LE_SetScanParamCmd (hci)
                                                   HCI_SendCommandCompleteEvent (hci_event)
                                                   HCI_VendorSpecifcCommandCompleteEvent (hci_event)
                                                   HalLedUpdate (hal_led)
                                                   Hal_ProcessEvent (hal_drivers)
                                                   LL_AdvReportCback (hci_event)
                                                   LL_ENC_GenerateTrueRandNum (ll_enc)
                                                   LL_Init (ll)
                                                   LL_ProcessEvent (ll)
                                                   LL_RandCback (hci)
                                                   LL_TimeToNextRfEvent (ll_sleep)
                                                   Segment part 105 (hci)
                                                   Segment part 112 (phy)
                                                   Segment part 24 (osal_snv)
                                                   Segment part 26 (ll_scanEndCauses)
                                                   Segment part 53 (ll_timer2)
                                                   Segment part 67 (hci)
                                                   Segment part 92 (hci)
                                                   TPMS_OBDEventCB (TPMS_OBD)
                                                   TPMS_OBD_Init (TPMS_OBD)
                                                   _small_write (?smallwr)
                                                   cleanErasedPage (osal_snv)
                                                   compactPage (osal_snv)
                                                   erasePage (osal_snv)
                                                   findItem (osal_snv)
                                                   findOffset (osal_snv)
                                                   gapProcessAdvertDevInfo (gap_centdevmgr)
                                                   gapProcessRandomAddrComplete (gap_configmgr)
                                                   gapReadBD_ADDRStatus (gap_configmgr)
                                                   gapSendDevDiscEvent (gap_centdevmgr)
                                                   gapSendDeviceInfoEvent (gap_centdevmgr)
                                                   gapSendDeviceInitDoneEvent (gap_configmgr)
                                                   gapSetScanParamStatus (gap_centdevmgr)
                                                   halProcessKeyInterrupt (hal_key)
                                                   halSleep (hal_sleep)
                                                   halSleepReadTimer (hal_sleep)
                                                   halSleepSetTimer (hal_sleep)
                                                   initNV (osal_snv)
                                                   llFindNextSecTask (ll_scheduler)
                                                   llFindTxPowerSettings (ll_common)
                                                   llProcessPostRfOps (ll_common)
                                                   llProcessScanRxFIFO (ll_scanEndCauses)
                                                   llScheduleTask (ll_scheduler)
                                                   llScheduler (ll_scheduler)
                                                   llSetT2OVFC2Event2 (ll_timer2)
                                                   llSetupScan (ll_common)
                                                   osalTimerUpdate (OSAL_Timers)
                                                   osal_memset (OSAL)
                                                   osal_msg_receive (OSAL)
                                                   osal_start_reload_timer (OSAL_Timers)
                                                   osal_start_timerEx (OSAL_Timers)
                                                   simpleBLEAddDeviceInfo (TPMS_OBD)
                                                   sprintf (?sprintf)
                                                   verifyWordM (osal_snv)
                                                   writeWord (osal_snv)

    -------------------------------------------------------------------------
  LIBRARY MODULE, NAME : ?ADD_XSTACK_DISP8

  SEGMENTS IN THE MODULE
  ======================
RCODE
  Relative segment, address: CODE 00000A60 - 00000A7A (0x1b bytes), align: 0
  Segment part 1.
           ENTRY                   ADDRESS         REF BY
           =====                   =======         ======
           ?ADD_XSTACK_DISP0_8     00000A60        ?PUSH_XSTACK_I (?PUSH_XSTACK_I)

    -------------------------------------------------------------------------
  LIBRARY MODULE, NAME : ?XSTACK_DISP8

  SEGMENTS IN THE MODULE
  ======================
RCODE
  Relative segment, address: CODE 00000A7B - 00000A84 (0xa bytes), align: 0
  Segment part 1.
           ENTRY                   ADDRESS         REF BY
           =====                   =======         ======
           ?XSTACK_DISP0_8         00000A7B        GAPObserverRole_StartDiscovery (observer)
                                                   HCI_LE_ReadBufSizeCmd (hci)
                                                   HCI_LE_SetScanParamCmd (hci)
                                                   HCI_ReadBDADDRCmd (hci)
                                                   HCI_SendCommandCompleteEvent (hci_event)
                                                   HalFlashRead (hal_flash)
                                                   HalFlashWrite (hal_flash)
                                                   HalLedUpdate (hal_led)
                                                   LL_AdvReportCback (hci_event)
                                                   LL_ENC_GenerateTrueRandNum (ll_enc)
                                                   LL_EXT_ExtendRfRangeCback (hci)
                                                   LL_EXT_SetRxGainCback (hci)
                                                   LL_EXT_SetTxPowerCback (hci)
                                                   LL_RandCback (hci)
                                                   LL_SetScanParam (ll)
                                                   Segment part 51 (ll_timer2)
                                                   _small_write (?smallwr)
                                                   compactPage (osal_snv)
                                                   findItem (osal_snv)
                                                   gapFindADType (gap_devmgr)
                                                   gapProcessAdvertDevInfo (gap_centdevmgr)
                                                   halSleep (hal_sleep)
                                                   halSleepReadTimer (hal_sleep)
                                                   halSleepSetTimer (hal_sleep)
                                                   ll24BitTimeCompare (ll_timer2)
                                                   ll24BitTimeDelta (ll_timer2)
                                                   llFindTxPowerSettings (ll_common)
                                                   llGetAdvChanPDU (ll_scanEndCauses)
                                                   llGetCurrentFineTime (ll_timer2)
                                                   llProcessScanRxFIFO (ll_scanEndCauses)
                                                   llSetT2C1Event1 (ll_timer2)
                                                   llSetT2Delta (ll_timer2)
                                                   llSetT2OVFC1Event1 (ll_timer2)
                                                   llSetT2OVFC1Timeout (ll_timer2)
                                                   llSetT2OVFC2Event2 (ll_timer2)
                                                   ll_McuPrecisionCount (ll_timer2)
                                                   osalAddTimer (OSAL_Timers)
                                                   osalTimerUpdate (OSAL_Timers)
                                                   osal_memcmp (OSAL)
                                                   osal_memcpy (OSAL)
                                                   osal_msg_extract (OSAL)
                                                   osal_start_reload_timer (OSAL_Timers)
                                                   osal_start_timerEx (OSAL_Timers)
                                                   simpleBLEAddDeviceInfo (TPMS_OBD)
                                                   sprintf (?sprintf)
                                                   verifyWordM (osal_snv)

    -------------------------------------------------------------------------
  LIBRARY MODULE, NAME : ?XSTACK_DISP8_RP

  SEGMENTS IN THE MODULE
  ======================
RCODE
  Relative segment, address: CODE 00000A85 - 00000A8C (0x8 bytes), align: 0
  Segment part 0.
           ENTRY                   ADDRESS         REF BY
           =====                   =======         ======
           ?XSTACK_DISP100_8       00000A85        sprintf (?sprintf)
    -------------------------------------------------------------------------
RCODE
  Relative segment, address: CODE 00000A8D - 00000A94 (0x8 bytes), align: 0
  Segment part 1.
           ENTRY                   ADDRESS         REF BY
           =====                   =======         ======
           ?XSTACK_DISP101_8       00000A8D        TPMS_OBD_Init (TPMS_OBD)
                                                   halSleep (hal_sleep)
                                                   verifyWordM (osal_snv)
    -------------------------------------------------------------------------
RCODE
  Relative segment, address: CODE 00000A95 - 00000A9C (0x8 bytes), align: 0
  Segment part 2.
           ENTRY                   ADDRESS         REF BY
           =====                   =======         ======
           ?XSTACK_DISP102_8       00000A95        cleanErasedPage (osal_snv)
                                                   compactPage (osal_snv)
                                                   erasePage (osal_snv)
                                                   findItem (osal_snv)
                                                   findOffset (osal_snv)
                                                   initNV (osal_snv)
                                                   verifyWordM (osal_snv)

    -------------------------------------------------------------------------
  LIBRARY MODULE, NAME : ?CALL_IND

  SEGMENTS IN THE MODULE
  ======================
RCODE
  Relative segment, address: CODE 00000A9D - 00000A9E (0x2 bytes), align: 0
  Segment part 0.
           ENTRY                   ADDRESS         REF BY
           =====                   =======         ======
           ?CALL_IND               00000A9D        GAPObserverRole_ProcessEvent (observer)
                                                   GAP_ProcessEvent (gap_simpletask)
                                                   HalKeyPoll (hal_key)
                                                   LL_ProcessEvent (ll)
                                                   _small_write (?smallwr)
                                                   gapProcessHCICmdCompleteEvt (gap_simpletask)
                                                   gapProcessRandomAddrComplete (gap_configmgr)
                                                   llScheduleTask (ll_scheduler)
                                                   osal_CbTimerProcessEvent (osal_cbtimer)
                                                   osal_run_system (OSAL)

    -------------------------------------------------------------------------
  LIBRARY MODULE, NAME : ?BANKED_ENTER_XDATA

  SEGMENTS IN THE MODULE
  ======================
RCODE
  Relative segment, address: CODE 00000A9F - 00000B0A (0x6c bytes), align: 0
  Segment part 1.
           ENTRY                   ADDRESS         REF BY
           =====                   =======         ======
           ?BANKED_ENTER_XDATA     00000A9F        GAPObserverRole_Init (observer)
                                                   GAPObserverRole_ProcessEvent (observer)
                                                   GAPObserverRole_StartDevice (observer)
                                                   GAPObserverRole_StartDiscovery (observer)
                                                   GAP_CentDevMgrInit (gap_centdevmgr)
                                                   GAP_DeviceDiscoveryCancel (gap_centdevmgr)
                                                   GAP_DeviceDiscoveryRequest (gap_centdevmgr)
                                                   GAP_DeviceInit (gap)
                                                   GAP_Init (gap_simpletask)
                                                   GAP_ParamsInit (gap_configmgr)
                                                   GAP_ProcessEvent (gap_simpletask)
                                                   HCI_CommandCompleteEvent (hci_event)
                                                   HCI_Init (hci_tl)
                                                   HCI_LE_SetScanEnableCmd (hci)
                                                   HCI_LE_SetScanParamCmd (hci)
                                                   HCI_ProcessEvent (hci_tl)
                                                   HCI_SendCommandCompleteEvent (hci_event)
                                                   HCI_VendorSpecifcCommandCompleteEvent (hci_event)
                                                   HalAdcRead (hal_adc)
                                                   HalFlashRead (hal_flash)
                                                   HalFlashWrite (hal_flash)
                                                   HalKeyConfig (hal_key)
                                                   HalKeyPoll (hal_key)
                                                   HalKeyRead (hal_key)
                                                   HalLedBlink (hal_led)
                                                   HalLedSet (hal_led)
                                                   HalLedUpdate (hal_led)
                                                   Hal_ProcessEvent (hal_drivers)
                                                   InitBoard (OnBoard)
                                                   LL_AdvReportCback (hci_event)
                                                   LL_ENC_GenerateTrueRandNum (ll_enc)
                                                   LL_Init (ll)
                                                   LL_ProcessEvent (ll)
                                                   LL_RandCback (hci)
                                                   LL_SetScanControl (ll)
                                                   LL_SetScanParam (ll)
                                                   OnBoard_KeyCallback (OnBoard)
                                                   OnBoard_SendKeys (OnBoard)
                                                   PHY_AddWlEntry (phy)
                                                   PHY_ClearBlacklistIndex (phy)
                                                   PHY_RestoreWhiteList (phy)
                                                   PHY_SaveWhiteList (phy)
                                                   PHY_SetBlacklistEntry (phy)
                                                   PHY_SetBlacklistIndex (phy)
                                                   PHY_SetCRCInit (phy)
                                                   PHY_SetSyncWord (phy)
                                                   SerialApp_Init (TPMS_OBD)
                                                   TPMS_OBDEventCB (TPMS_OBD)
                                                   TPMS_OBD_Init (TPMS_OBD)
                                                   TPMS_OBD_ProcessEvent (TPMS_OBD)
                                                   Uart1SendString (TPMS_OBD)
                                                   _small_write (?smallwr)
                                                   cleanErasedPage (osal_snv)
                                                   compactPage (osal_snv)
                                                   erasePage (osal_snv)
                                                   findItem (osal_snv)
                                                   findOffset (osal_snv)
                                                   gapCentProcessHCICmdEvt (gap_centdevmgr)
                                                   gapFindADType (gap_devmgr)
                                                   gapFreeScanRecs (gap_centdevmgr)
                                                   gapProcessAdvertDevInfo (gap_centdevmgr)
                                                   gapProcessHCICmdCompleteEvt (gap_simpletask)
                                                   gapProcessRandomAddrComplete (gap_configmgr)
                                                   gapProcessScanningEvt (gap_centdevmgr)
                                                   gapReadBD_ADDRStatus (gap_configmgr)
                                                   gapReadBufSizeCmdStatus (gap_configmgr)
                                                   gapSendDevDiscEvent (gap_centdevmgr)
                                                   gapSendDeviceInfoEvent (gap_centdevmgr)
                                                   gapSendDeviceInitDoneEvent (gap_configmgr)
                                                   gapSendScanEnable (gap_centdevmgr)
                                                   gapSetScanParamStatus (gap_centdevmgr)
                                                   halGetJoyKeyInput (hal_key)
                                                   halSleep (hal_sleep)
                                                   halSleepSetTimer (hal_sleep)
                                                   initNV (osal_snv)
                                                   llAllocTask (ll_scheduler)
                                                   llClearSetInts (ll_common)
                                                   llFindNextSecTask (ll_scheduler)
                                                   llFindTxPowerSettings (ll_common)
                                                   llGenerateNextBackoffCount (ll_scanEndCauses)
                                                   llGetAdvChanPDU (ll_scanEndCauses)
                                                   llInitFeatureSet (ll_common)
                                                   llProcessScanRxFIFO (ll_scanEndCauses)
                                                   llScanEvt_TaskEndOk (ll_scanEndCauses)
                                                   llScanEvt_TaskRxTimeout (ll_scanEndCauses)
                                                   llScheduleTask (ll_scheduler)
                                                   llScheduler (ll_scheduler)
                                                   llSetT2OVFC2Event2 (ll_timer2)
                                                   llSetupScan (ll_common)
                                                   osalAddTimer (OSAL_Timers)
                                                   osalTimeUpdate (OSAL_ClockBLE)
                                                   osalTimerInit (OSAL_Timers)
                                                   osalTimerUpdate (OSAL_Timers)
                                                   osal_CbTimerInit (osal_cbtimer)
                                                   osal_CbTimerProcessEvent (osal_cbtimer)
                                                   osal_bm_free (osal_bufmgr)
                                                   osal_clear_event (OSAL)
                                                   osal_mem_alloc (OSAL_Memory)
                                                   osal_mem_kick (OSAL_Memory)
                                                   osal_memcmp (OSAL)
                                                   osal_memcpy (OSAL)
                                                   osal_memset (OSAL)
                                                   osal_msg_allocate (OSAL)
                                                   osal_msg_enqueue (OSAL)
                                                   osal_msg_enqueue_push (OSAL)
                                                   osal_msg_extract (OSAL)
                                                   osal_msg_push (OSAL)
                                                   osal_msg_receive (OSAL)
                                                   osal_msg_send (OSAL)
                                                   osal_next_timeout (OSAL_Timers)
                                                   osal_pwrmgr_powerconserve (OSAL_PwrMgr)
                                                   osal_pwrmgr_task_state (OSAL_PwrMgr)
                                                   osal_run_system (OSAL)
                                                   osal_set_event (OSAL)
                                                   osal_start_reload_timer (OSAL_Timers)
                                                   osal_start_timerEx (OSAL_Timers)
                                                   osal_stop_timerEx (OSAL_Timers)
                                                   phyFindWlEntry (phy)
                                                   setActivePage (osal_snv)
                                                   simpleBLEAddDeviceInfo (TPMS_OBD)
                                                   sprintf (?sprintf)
                                                   verifyWordM (osal_snv)
                                                   writeWord (osal_snv)

    -------------------------------------------------------------------------
  LIBRARY MODULE, NAME : ?FUNC_ENTER_XDATA

  SEGMENTS IN THE MODULE
  ======================
RCODE
  Relative segment, address: CODE 00000B0B - 00000B70 (0x66 bytes), align: 0
  Segment part 1.
           ENTRY                   ADDRESS         REF BY
           =====                   =======         ======
           ?FUNC_ENTER_XDATA       00000B0B        LL_PowerOffReq (ll_sleep)
                                                   LL_PowerOnReq (ll_sleep)
                                                   LL_TimeToNextRfEvent (ll_sleep)
                                                   ll24BitTimeCompare (ll_timer2)
                                                   ll24BitTimeDelta (ll_timer2)
                                                   llT2OVFC1_ISR (ll_isr)

    -------------------------------------------------------------------------
  LIBRARY MODULE, NAME : ?BANKED_LEAVE_XDATA

  SEGMENTS IN THE MODULE
  ======================
RCODE
  Relative segment, address: CODE 00000B71 - 00000BB6 (0x46 bytes), align: 0
  Segment part 1.
           ENTRY                   ADDRESS         REF BY
           =====                   =======         ======
           ?BANKED_LEAVE_XDATA     00000B71        ?Subroutine0 (OnBoard)
                                                   ?Subroutine0 (observer)
                                                   ?Subroutine0 (osal_cbtimer)
                                                   ?Subroutine1 (OSAL_Timers)
                                                   ?Subroutine1 (TPMS_OBD)
                                                   ?Subroutine1 (hal_key)
                                                   ?Subroutine1 (osal_snv)
                                                   ?Subroutine2 (OSAL)
                                                   ?Subroutine2 (OSAL_Timers)
                                                   ?Subroutine2 (TPMS_OBD)
                                                   ?Subroutine2 (observer)
                                                   ?Subroutine3 (OSAL_Timers)
                                                   ?Subroutine4 (OSAL)
                                                   GAPObserverRole_ProcessEvent (observer)
                                                   GAP_DeviceInit (gap)
                                                   GAP_Init (gap_simpletask)
                                                   GAP_ProcessEvent (gap_simpletask)
                                                   HCI_Init (hci_tl)
                                                   HCI_ProcessEvent (hci_tl)
                                                   HalAdcRead (hal_adc)
                                                   HalFlashRead (hal_flash)
                                                   HalFlashWrite (hal_flash)
                                                   HalKeyConfig (hal_key)
                                                   HalLedBlink (hal_led)
                                                   HalLedSet (hal_led)
                                                   HalLedUpdate (hal_led)
                                                   Hal_ProcessEvent (hal_drivers)
                                                   OnBoard_SendKeys (OnBoard)
                                                   PHY_AddWlEntry (phy)
                                                   Segment part 105 (phy)
                                                   Segment part 112 (phy)
                                                   Segment part 117 (ll)
                                                   Segment part 13 (hci_event)
                                                   Segment part 136 (ll)
                                                   Segment part 14 (gap_centdevmgr)
                                                   Segment part 15 (ll_scanEndCauses)
                                                   Segment part 154 (ll_common)
                                                   Segment part 16 (hci_event)
                                                   Segment part 22 (gap_centdevmgr)
                                                   Segment part 22 (ll_scheduler)
                                                   Segment part 222 (phy)
                                                   Segment part 23 (OSAL_ClockBLE)
                                                   Segment part 25 (gap_configmgr)
                                                   Segment part 25 (ll_enc)
                                                   Segment part 25 (osal_snv)
                                                   Segment part 27 (ll_scanEndCauses)
                                                   Segment part 29 (gap_centdevmgr)
                                                   Segment part 32 (gap_configmgr)
                                                   Segment part 38 (hci_event)
                                                   Segment part 45 (phy)
                                                   Segment part 47 (gap_configmgr)
                                                   Segment part 47 (ll_common)
                                                   Segment part 50 (osal_snv)
                                                   Segment part 58 (hci_event)
                                                   Segment part 64 (OSAL)
                                                   Segment part 67 (hci)
                                                   Segment part 81 (phy)
                                                   Segment part 92 (hci)
                                                   Segment part 97 (ll)
                                                   _small_write (?smallwr)
                                                   gapFindADType (gap_devmgr)
                                                   gapFreeScanRecs (gap_centdevmgr)
                                                   gapProcessAdvertDevInfo (gap_centdevmgr)
                                                   gapProcessHCICmdCompleteEvt (gap_simpletask)
                                                   gapSendDevDiscEvent (gap_centdevmgr)
                                                   gapSendDeviceInfoEvent (gap_centdevmgr)
                                                   halSleep (hal_sleep)
                                                   halSleepSetTimer (hal_sleep)
                                                   llAllocTask (ll_scheduler)
                                                   llFindNextSecTask (ll_scheduler)
                                                   llFindTxPowerSettings (ll_common)
                                                   llScheduleTask (ll_scheduler)
                                                   llSetT2OVFC2Event2 (ll_timer2)
                                                   osalAddTimer (OSAL_Timers)
                                                   osalTimerInit (OSAL_Timers)
                                                   osal_CbTimerInit (osal_cbtimer)
                                                   osal_bm_free (osal_bufmgr)
                                                   osal_mem_alloc (OSAL_Memory)
                                                   osal_mem_kick (OSAL_Memory)
                                                   osal_memcmp (OSAL)
                                                   osal_pwrmgr_powerconserve (OSAL_PwrMgr)
                                                   osal_pwrmgr_task_state (OSAL_PwrMgr)
                                                   osal_start_timerEx (OSAL_Timers)
                                                   simpleBLEAddDeviceInfo (TPMS_OBD)
                                                   sprintf (?sprintf)
                                                   verifyWordM (osal_snv)

    -------------------------------------------------------------------------
  LIBRARY MODULE, NAME : ?FUNC_LEAVE_XDATA

  SEGMENTS IN THE MODULE
  ======================
RCODE
  Relative segment, address: CODE 00000BB7 - 00000BF6 (0x40 bytes), align: 0
  Segment part 1.
           ENTRY                   ADDRESS         REF BY
           =====                   =======         ======
           ?FUNC_LEAVE_XDATA       00000BB7        LL_TimeToNextRfEvent (ll_sleep)
                                                   Segment part 21 (ll_sleep)
                                                   Segment part 95 (ll_timer2)
                                                   ll24BitTimeDelta (ll_timer2)
                                                   llT2OVFC1_ISR (ll_isr)

    -------------------------------------------------------------------------
  LIBRARY MODULE, NAME : ?INTERRUPT_ENTER_XSP

  SEGMENTS IN THE MODULE
  ======================
RCODE
  Relative segment, address: CODE 00000BF7 - 00000C55 (0x5f bytes), align: 0
  Segment part 1.
           ENTRY                   ADDRESS         REF BY
           =====                   =======         ======
           ?INTERRUPT_ENTER_XSP    00000BF7        RF_NormalIsr (ll_isr)
                                                   T2_Isr (ll_isr)
                                                   halKeyPort0Isr (hal_key)
                                                   halKeyPort2Isr (hal_key)

    -------------------------------------------------------------------------
  LIBRARY MODULE, NAME : ?INTERRUPT_LEAVE_XSP

  SEGMENTS IN THE MODULE
  ======================
RCODE
  Relative segment, address: CODE 00000C56 - 00000CAD (0x58 bytes), align: 0
  Segment part 1.
           ENTRY                   ADDRESS         REF BY
           =====                   =======         ======
           ?INTERRUPT_LEAVE_XSP    00000C56        ?Subroutine2 (hal_key)
                                                   RF_NormalIsr (ll_isr)
                                                   T2_Isr (ll_isr)

    -------------------------------------------------------------------------
  LIBRARY MODULE, NAME : ?PUSH_XSTACK_I

  SEGMENTS IN THE MODULE
  ======================
RCODE
  Relative segment, address: CODE 00000CAE - 00000CB1 (0x4 bytes), align: 0
  Segment part 0.
           ENTRY                   ADDRESS         REF BY
           =====                   =======         ======
           ?PUSH_XSTACK_I_FOUR     00000CAE        HalLedUpdate (hal_led)
                                                   LL_ProcessEvent (ll)
                                                   gapSetScanParamStatus (gap_centdevmgr)
                                                   halSleep (hal_sleep)
                                                   llFindNextSecTask (ll_scheduler)
                                                   llScheduleTask (ll_scheduler)
                                                   llScheduler (ll_scheduler)
                                                   osal_start_reload_timer (OSAL_Timers)
    -------------------------------------------------------------------------
RCODE
  Relative segment, address: CODE 00000CB2 - 00000CB5 (0x4 bytes), align: 0
  Segment part 2.
           ENTRY                   ADDRESS         REF BY
           =====                   =======         ======
           ?PUSH_XSTACK_I_TWO      00000CB2        GAPObserverRole_ProcessEvent (observer)
                                                   GAPObserverRole_StartDevice (observer)
                                                   GAP_DeviceDiscoveryRequest (gap_centdevmgr)
                                                   HCI_CommandCompleteEvent (hci_event)
                                                   HCI_SendCommandCompleteEvent (hci_event)
                                                   HCI_VendorSpecifcCommandCompleteEvent (hci_event)
                                                   LL_AdvReportCback (hci_event)
                                                   LL_Init (ll)
                                                   LL_RandCback (hci)
                                                   TPMS_OBDEventCB (TPMS_OBD)
                                                   cleanErasedPage (osal_snv)
                                                   compactPage (osal_snv)
                                                   erasePage (osal_snv)
                                                   findItem (osal_snv)
                                                   findOffset (osal_snv)
                                                   gapProcessAdvertDevInfo (gap_centdevmgr)
                                                   gapProcessRandomAddrComplete (gap_configmgr)
                                                   gapReadBD_ADDRStatus (gap_configmgr)
                                                   gapSendDevDiscEvent (gap_centdevmgr)
                                                   gapSendDeviceInfoEvent (gap_centdevmgr)
                                                   gapSendDeviceInitDoneEvent (gap_configmgr)
                                                   initNV (osal_snv)
                                                   llFindTxPowerSettings (ll_common)
                                                   llProcessScanRxFIFO (ll_scanEndCauses)
                                                   osal_memset (OSAL)
                                                   osal_msg_receive (OSAL)
                                                   simpleBLEAddDeviceInfo (TPMS_OBD)
                                                   sprintf (?sprintf)
                                                   verifyWordM (osal_snv)
                                                   writeWord (osal_snv)
    -------------------------------------------------------------------------
RCODE
  Relative segment, address: CODE 00000CB6 - 00000CB7 (0x2 bytes), align: 0
  Segment part 3.
           ENTRY                   ADDRESS         REF BY
           =====                   =======         ======
           ?PUSH_XSTACK_I_ONE      00000CB6        GAP_DeviceDiscoveryRequest (gap_centdevmgr)
                                                   HCI_LE_SetScanParamCmd (hci)
                                                   llProcessScanRxFIFO (ll_scanEndCauses)
                                                   writeWord (osal_snv)
    -------------------------------------------------------------------------
RCODE
  Relative segment, address: CODE 00000CB8 - 00000CC4 (0xd bytes), align: 0
  Segment part 4.             Intra module refs:   ?PUSH_XSTACK_I_FOUR
                                                   ?PUSH_XSTACK_I_ONE
                                                   ?PUSH_XSTACK_I_TWO
           ENTRY                   ADDRESS         REF BY
           =====                   =======         ======
           ?PUSH_XSTACK_I          00000CB8 

    -------------------------------------------------------------------------
  LIBRARY MODULE, NAME : ?PUSH_XSTACK8_X

  SEGMENTS IN THE MODULE
  ======================
RCODE
  Relative segment, address: CODE 00000CC5 - 00000CC8 (0x4 bytes), align: 0
  Segment part 1.
           ENTRY                   ADDRESS         REF BY
           =====                   =======         ======
           ?PUSH_XSTACK8_X_FOUR    00000CC5        Hal_ProcessEvent (hal_drivers)
                                                   gapProcessRandomAddrComplete (gap_configmgr)
                                                   halProcessKeyInterrupt (hal_key)
                                                   halSleep (hal_sleep)
                                                   llScheduler (ll_scheduler)
                                                   osal_start_timerEx (OSAL_Timers)
    -------------------------------------------------------------------------
RCODE
  Relative segment, address: CODE 00000CC9 - 00000CCC (0x4 bytes), align: 0
  Segment part 3.
           ENTRY                   ADDRESS         REF BY
           =====                   =======         ======
           ?PUSH_XSTACK8_X_TWO     00000CC9        TPMS_OBDEventCB (TPMS_OBD)
    -------------------------------------------------------------------------
RCODE
  Relative segment, address: CODE 00000CCD - 00000CF5 (0x29 bytes), align: 0
  Segment part 5.             Intra module refs:   ?PUSH_XSTACK8_X_FOUR
                                                   ?PUSH_XSTACK8_X_TWO
           ENTRY                   ADDRESS         REF BY
           =====                   =======         ======
           ?PUSH_XSTACK8_X         00000CCD 

    -------------------------------------------------------------------------
  LIBRARY MODULE, NAME : ?US_SWITCH_DENSE

  SEGMENTS IN THE MODULE
  ======================
RCODE
  Relative segment, address: CODE 00000CF6 - 00000CFC (0x7 bytes), align: 0
  Segment part 0.
           ENTRY                   ADDRESS         REF BY
           =====                   =======         ======
           ?US_SWITCH_DENSE        00000CF6        gapCentProcessHCICmdEvt (gap_centdevmgr)
           ?US_SWITCH_DENSE_CFI_INVALID_BEGINS
                                   00000CF6 
    -------------------------------------------------------------------------
RCODE
  Relative segment, address: CODE 00000CFD - 00000D3A (0x3e bytes), align: 0
  Segment part 2.             Intra module refs:   Segment part 0
    -------------------------------------------------------------------------
RCODE
  Relative segment, address: CODE 00000D3B - 00000D3B (0x1 bytes), align: 0
  Segment part 4.             Intra module refs:   Segment part 0
           ENTRY                   ADDRESS         REF BY
           =====                   =======         ======
           ?US_SWITCH_DENSE_CFI_INVALID_ENDS
                                   00000D3C 

    -------------------------------------------------------------------------
  LIBRARY MODULE, NAME : ?US_SWITCH_SPARSE

  SEGMENTS IN THE MODULE
  ======================
RCODE
  Relative segment, address: CODE 00000D3C - 00000D45 (0xa bytes), align: 0
  Segment part 0.
           ENTRY                   ADDRESS         REF BY
           =====                   =======         ======
           ?US_SWITCH_SPARSE       00000D3C        gapProcessHCICmdCompleteEvt (gap_simpletask)
           ?US_SWITCH_SPARSE_CFI_INVALID_BEGINS
                                   00000D3C 
    -------------------------------------------------------------------------
RCODE
  Relative segment, address: CODE 00000D46 - 00000D86 (0x41 bytes), align: 0
  Segment part 2.             Intra module refs:   Segment part 0
           ENTRY                   ADDRESS         REF BY
           =====                   =======         ======
           ?US_SWITCH_SPARSE_LEAVE
                                   00000D78        Segment part 0 (?US_JMP_IF_IN_RANGE)
                                                   Segment part 0 (?US_JMP_IF_VALUE)
    -------------------------------------------------------------------------
RCODE
  Relative segment, address: CODE 00000D87 - 00000D87 (0x1 bytes), align: 0
  Segment part 4.             Intra module refs:   Segment part 0
           ENTRY                   ADDRESS         REF BY
           =====                   =======         ======
           ?US_SWITCH_SPARSE_CFI_INVALID_ENDS
                                   00000D88 

    -------------------------------------------------------------------------
  LIBRARY MODULE, NAME : ?US_JMP_IF_IN_RANGE

  SEGMENTS IN THE MODULE
  ======================
RCODE
  Relative segment, address: CODE 00000D88 - 00000DC6 (0x3f bytes), align: 0
  Segment part 0.
           ENTRY                   ADDRESS         REF BY
           =====                   =======         ======
           ?US_JMP_IF_IN_RANGE     00000D88        ?US_SWITCH_SPARSE_LEAVE (?US_SWITCH_SPARSE)
           ?US_JMP_IF_IN_RANGE_CFI_INVALID_BEGINS
                                   00000D88 
           ?US_JMP_IF_IN_RANGE_CFI_INVALID_ENDS
                                   00000DC7 

    -------------------------------------------------------------------------
  LIBRARY MODULE, NAME : ?US_JMP_IF_VALUE

  SEGMENTS IN THE MODULE
  ======================
RCODE
  Relative segment, address: CODE 00000DC7 - 00000DF1 (0x2b bytes), align: 0
  Segment part 0.
           ENTRY                   ADDRESS         REF BY
           =====                   =======         ======
           ?US_JMP_IF_VALUE        00000DC7        ?US_SWITCH_SPARSE_LEAVE (?US_SWITCH_SPARSE)
           ?US_JMP_IF_VALUE_CFI_INVALID_BEGINS
                                   00000DC7 
           ?US_JMP_IF_VALUE_CFI_INVALID_ENDS
                                   00000DF2 

    -------------------------------------------------------------------------
  LIBRARY MODULE, NAME : ?memset

  SEGMENTS IN THE MODULE
  ======================
<BANKED_CODE,CODE_C> 1 (was BANKED_CODE)
  Relative segment, address: CODE 000075DD - 00007608 (0x2c bytes), align: 0
  Segment part 6.             Intra module refs:   memset::?relay
           ENTRY                   ADDRESS         REF BY
           =====                   =======         ======
           memset                  000075DD 
               XSTACK = 00000002 ( 00000000 )
               ISTACK = 00000000 ( 00000002 )
    -------------------------------------------------------------------------
BANK_RELAYS
  Relative segment, address: CODE 000006F5 - 000006FA (0x6 bytes), align: 0
  Segment part 7.
           ENTRY                   ADDRESS         REF BY
           =====                   =======         ======
           memset::?relay          000006F5        osal_memset (OSAL)

    -------------------------------------------------------------------------
  LIBRARY MODULE, NAME : ?smallwr

  SEGMENTS IN THE MODULE
  ======================
<BANKED_CODE,CODE_C> 1 (was BANKED_CODE)
  Relative segment, address: CODE 000053CA - 00005784 (0x3bb bytes), align: 0
  Segment part 10.            Intra module refs:   _small_write::?relay
           ENTRY                   ADDRESS         REF BY
           =====                   =======         ======
           _small_write            000053CA 
               XSTACK = 00000004 ( 0000001F )
               ISTACK = 00000000 ( 00000001 )
    -------------------------------------------------------------------------
<BANKED_CODE,CODE_C> 1 (was BANKED_CODE)
  Relative segment, address: CODE 00005785 - 0000578E (0xa bytes), align: 0
  Segment part 12.            Intra module refs:   _small_write
    -------------------------------------------------------------------------
<BANKED_CODE,CODE_C> 1 (was BANKED_CODE)
  Relative segment, address: CODE 0000578F - 00005792 (0x4 bytes), align: 0
  Segment part 13.            Intra module refs:   _small_write
    -------------------------------------------------------------------------
<BANKED_CODE,CODE_C> 1 (was BANKED_CODE)
  Relative segment, address: CODE 00005793 - 0000579F (0xd bytes), align: 0
  Segment part 14.            Intra module refs:   Segment part 13
                                                   Segment part 15
    -------------------------------------------------------------------------
<BANKED_CODE,CODE_C> 1 (was BANKED_CODE)
  Relative segment, address: CODE 000057A0 - 000057A4 (0x5 bytes), align: 0
  Segment part 15.            Intra module refs:   _small_write
    -------------------------------------------------------------------------
<BANKED_CODE,CODE_C> 1 (was BANKED_CODE)
  Relative segment, address: CODE 000057A5 - 000057AA (0x6 bytes), align: 0
  Segment part 16.            Intra module refs:   _small_write
    -------------------------------------------------------------------------
<BANKED_CODE,CODE_C> 1 (was BANKED_CODE)
  Relative segment, address: CODE 000057AB - 000057AE (0x4 bytes), align: 0
  Segment part 17.            Intra module refs:   _small_write
    -------------------------------------------------------------------------
<BANKED_CODE,CODE_C> 1 (was BANKED_CODE)
  Relative segment, address: CODE 000057AF - 000057B2 (0x4 bytes), align: 0
  Segment part 18.            Intra module refs:   Segment part 17
                                                   Segment part 20
    -------------------------------------------------------------------------
<BANKED_CODE,CODE_C> 1 (was BANKED_CODE)
  Relative segment, address: CODE 000057B3 - 000057BB (0x9 bytes), align: 0
  Segment part 19.            Intra module refs:   Segment part 18
                                                   Segment part 22
    -------------------------------------------------------------------------
<BANKED_CODE,CODE_C> 1 (was BANKED_CODE)
  Relative segment, address: CODE 000057BC - 000057C0 (0x5 bytes), align: 0
  Segment part 20.            Intra module refs:   _small_write
    -------------------------------------------------------------------------
<BANKED_CODE,CODE_C> 1 (was BANKED_CODE)
  Relative segment, address: CODE 000057C1 - 000057C4 (0x4 bytes), align: 0
  Segment part 21.            Intra module refs:   _small_write
    -------------------------------------------------------------------------
<BANKED_CODE,CODE_C> 1 (was BANKED_CODE)
  Relative segment, address: CODE 000057C5 - 000057D2 (0xe bytes), align: 0
  Segment part 22.            Intra module refs:   Segment part 21
                                                   Segment part 24
    -------------------------------------------------------------------------
<BANKED_CODE,CODE_C> 1 (was BANKED_CODE)
  Relative segment, address: CODE 000057D3 - 000057DE (0xc bytes), align: 0
  Segment part 23.            Intra module refs:   _small_write
    -------------------------------------------------------------------------
<BANKED_CODE,CODE_C> 1 (was BANKED_CODE)
  Relative segment, address: CODE 000057DF - 000057E8 (0xa bytes), align: 0
  Segment part 24.            Intra module refs:   _small_write
    -------------------------------------------------------------------------
<BANKED_CODE,CODE_C> 1 (was BANKED_CODE)
  Relative segment, address: CODE 000057E9 - 000057F1 (0x9 bytes), align: 0
  Segment part 25.            Intra module refs:   _small_write
    -------------------------------------------------------------------------
XDATA_I
  Relative segment, address: XDATA 000004F5 - 000004F8 (0x4 bytes), align: 0
  Segment part 6.             Intra module refs:   _small_write
           ENTRY                   ADDRESS         REF BY
           =====                   =======         ======
           __Constant_0            000004F5 
    -------------------------------------------------------------------------
XDATA_ID
  Relative segment, address: CODE 000001BD - 000001C0 (0x4 bytes), align: 0
  Segment part 7.             Intra module refs:   __Constant_0
    -------------------------------------------------------------------------
BANK_RELAYS
  Relative segment, address: CODE 000006FB - 00000700 (0x6 bytes), align: 0
  Segment part 11.
           ENTRY                   ADDRESS         REF BY
           =====                   =======         ======
           _small_write::?relay    000006FB        sprintf (?sprintf)

    -------------------------------------------------------------------------
  LIBRARY MODULE, NAME : ?sprintf

  SEGMENTS IN THE MODULE
  ======================
<BANKED_CODE,CODE_C> 1 (was BANKED_CODE)
  Relative segment, address: CODE 0000746E - 00007497 (0x2a bytes), align: 0
  Segment part 6.             Intra module refs:   put_c_in_string::?relay
           LOCAL                   ADDRESS         
           =====                   =======         
           put_c_in_string         0000746E 
               is indirectly called
               ISTACK = 00000000 ( 00000003 )
    -------------------------------------------------------------------------
<BANKED_CODE,CODE_C> 1 (was BANKED_CODE)
  Relative segment, address: CODE 00007498 - 000074FA (0x63 bytes), align: 0
  Segment part 8.             Intra module refs:   sprintf::?relay
           ENTRY                   ADDRESS         REF BY
           =====                   =======         ======
           sprintf                 00007498 
               calls direct
               XSTACK = 00000000 ( 00000012 )
    -------------------------------------------------------------------------
<BANKED_CODE,CODE_C> 1 (was BANKED_CODE)
  Relative segment, address: CODE 000074FB - 00007503 (0x9 bytes), align: 0
  Segment part 10.            Intra module refs:   put_c_in_string
                                                   sprintf
    -------------------------------------------------------------------------
BANK_RELAYS
  Relative segment, address: CODE 00000701 - 00000706 (0x6 bytes), align: 0
  Segment part 7.             Intra module refs:   sprintf
           LOCAL                   ADDRESS         
           =====                   =======         
           put_c_in_string::?relay
                                   00000701 
    -------------------------------------------------------------------------
BANK_RELAYS
  Relative segment, address: CODE 00000707 - 0000070C (0x6 bytes), align: 0
  Segment part 9.
           ENTRY                   ADDRESS         REF BY
           =====                   =======         ======
           sprintf::?relay         00000707        TPMS_OBD_Init (TPMS_OBD)

    -------------------------------------------------------------------------
  LIBRARY MODULE, NAME : ?strlen

  SEGMENTS IN THE MODULE
  ======================
<BANKED_CODE,CODE_C> 1 (was BANKED_CODE)
  Relative segment, address: CODE 0000762E - 0000764B (0x1e bytes), align: 0
  Segment part 6.             Intra module refs:   strlen::?relay
           ENTRY                   ADDRESS         REF BY
           =====                   =======         ======
           strlen                  0000762E 
               ISTACK = 00000000 ( 00000002 )
    -------------------------------------------------------------------------
BANK_RELAYS
  Relative segment, address: CODE 0000070D - 00000712 (0x6 bytes), align: 0
  Segment part 7.
           ENTRY                   ADDRESS         REF BY
           =====                   =======         ======
           strlen::?relay          0000070D        TPMS_OBD_Init (TPMS_OBD)




                ****************************************
                *                                      *
                *            MODULE SUMMARY            *
                *                                      *
                ****************************************

Module                     CODE      DATA      XDATA  IDATA    BIT  CONST
------                     ----      ----      -----  -----    ---  -----
                          (Rel)  (Rel)  (Abs)  (Rel)  (Rel)  (Rel)  (Rel)
?ADD_XSTACK_DISP8            27
?ALLOC_XSTACK8               22
?BANKED_CODE_SUPPORT         30
?BANKED_ENTER_XDATA         108
?BANKED_LEAVE_XDATA          70
?CALL_IND                     2
?DEALLOC_XSTACK8             27
?FUNC_ENTER_XDATA           102
?FUNC_LEAVE_XDATA            64
?INTERRUPT_ENTER_XSP         95
?INTERRUPT_LEAVE_XSP         88
?L_ADD                       19
?L_ADD_TO_X                  19
?L_ADD_X                     19
?L_AND_X                     19
?L_EQ_X                      21
?L_MOV_TO_X                  15
?L_MOV_X                     15
?L_MUL                      128
?L_NEG                       17
?L_SHL                       31
?L_SUB                       20
?L_SUB_FROM_X                20
?MOVE_LONG8_XDATA_IDATA      13
?MOVE_LONG8_XDATA_XDATA      33
?PUSH_XSTACK8_X              49
?PUSH_XSTACK_I               23
?SL_GT_X                     21
?SS_SHR                      16
?S_DIV_MOD                   89
?S_SHL                       19
?UL_DIV_MOD                 111
?UL_GE_X                     31
?UL_GT                       16
?UL_GT_X                     16
?UL_SHR                      25
?US_JMP_IF_IN_RANGE          63
?US_JMP_IF_VALUE             43
?US_SHR                      15
?US_SWITCH_DENSE             70
?US_SWITCH_SPARSE            76
?XLOAD_R0123                 12
?XLOAD_R2345                 12
?XSTACK_DISP8                10
?XSTACK_DISP8_RP             24
?XSTORE_R0123                12
?XSTORE_R2345                12
?cexit                        5
?cmain                      132
?memset                      50
?smallwr                  1 074                    4
?sprintf                    162
?strlen                      36
CSTARTUP                     18
  + common                    3
OSAL                      1 306                    3
OSAL_ClockBLE               256                   10
OSAL_Memory                 535                2 051
OSAL_PwrMgr                 176                    7
OSAL_TPMS_OBD                91                    2                   15
OSAL_Timers               1 160                    6
OnBoard                     201                    2
TPMS_OBD                    979             5    127                   31
  + shared                   30            14
  + common
TPMS_OBD_Main                28
VIRTUAL_REGISTERS                   10                           8
gap                          43
gap_centdevmgr            2 511                    7
gap_configmgr               805                  104                    4
gap_devmgr                  189                    2
gap_simpletask              537                    6
hal_adc                     171             4      1
  + shared                                  1
hal_aes
  + shared                                  3
hal_dma                                     4     40
hal_drivers                 224                    1
  + shared                                                              4
hal_flash                   278
  + shared                                  1
hal_key                     499             4      5
  + shared                  110             9                           4
  + common
hal_led                   1 284                   40
hal_sleep                   664      1      2      2                   24
  + shared                   46             3
  + common
hal_startup                  11
hci                         510                    2
hci_event                 1 403                    9
hci_tl                      171                    6
ll                        1 723             4    100      2             4
  + shared                                  2                           8
ll_common                 1 632             9                          22
  + shared                                                              4
ll_constData                  8
ll_enc                      315             3
ll_errorEndCauses             9
ll_halt                       7      2
ll_isr                      573
  + shared                  134            10
  + common
ll_scanEndCauses          1 261                   37
ll_scheduler              1 716                   29                   16
ll_sleep                    634                                         8
  + shared                                                              4
ll_timer2                 1 184             8
observer                    388                   10
osal_bufmgr                 153                    2
osal_cbtimer                269                   62
osal_snv                  5 538                    4                    4
  + shared                                                              4
phy                       1 731                    1
phy_image                 3 582                                     3 582
N/A (command line)                  16           640    192
N/A (alignment)
----------               ------     --     --  -----    ---      -  -----
Total:                   38 021     29     86  3 322    194      8  3 738
  + common                  134


                ****************************************
                *                                      *
                *      SEGMENTS IN ADDRESS ORDER       *
                *                                      *
                ****************************************


SEGMENT              SPACE    START ADDRESS   END ADDRESS     SIZE  TYPE  ALIGN
=======              =====    =============   ===========     ====  ====  =====
INTVEC               CODE          00000000 - 00000085          86   com    0
CSTART               CODE          00000086 - 00000149          C4   rel    0
BIT_ID               CODE               0000014A                     dse    0
BDATA_ID             CODE               0000014A                     dse    0
DATA_ID              CODE          0000014A - 0000014A           1   rel    0
IXDATA_ID            CODE               0000014B                     dse    0
PDATA_ID             CODE               0000014B                     dse    0
IDATA_ID             CODE               0000014B                     dse    0
XDATA_ID             CODE          0000014B - 000001C0          76   rel    0
BANK_RELAYS          CODE          000001C1 - 00000712         552   rel    0
RCODE                CODE          00000713 - 00000DF1         6DF   rel    0
CODE_N               CODE               00000DF2                     dse    0
DIFUNCT              CODE               00000DF2                     dse    0
NEAR_CODE            CODE          00000DF4 - 0000140F         61C   rel    2
<BANKED_CODE,CODE_C> 1
                     CODE          00001410 - 0000766A        625B   rel    2
SLEEP_CODE           CODE          00007FF8 - 00007FFF           8   rel    0
<XDATA_ROM_C_FLASH> 1
                     CODE          00008000 - 00008E99         E9A   rel    0
BLENV_ADDRESS_SPACE
                     CODE          0003E800 - 0003F7FF        1000   rel    0
REGISTERS            DATA          00000000 - 00000007           8   rel    0
VREG                 DATA          00000008 - 00000017          10   rel    0
PSP                  DATA               00000018                     dse    0
XSP                  DATA          00000018 - 00000019           2   rel    0
DATA_I               DATA          0000001A - 0000001A           1   rel    0
DATA_Z               DATA          0000001B - 0000001C           2   rel    0
BREG                 BIT        00000020.0  -  00000020.7        8   rel    0
SFR_AN               DATA          00000080 - 00000080           1   rel    0
                     DATA          00000086 - 00000089           4 
                     DATA          0000008B - 0000008D           3 
                     DATA          00000090 - 00000091           2 
                     DATA          00000094 - 00000097           4 
                     DATA          0000009A - 0000009C           3 
                     DATA          0000009E - 000000A9           C 
                     DATA          000000AB - 000000AF           5 
                     DATA          000000B3 - 000000B4           2 
                     DATA          000000B6 - 000000B6           1 
                     DATA          000000B8 - 000000C7          10 
                     DATA          000000C9 - 000000C9           1 
                     DATA          000000D1 - 000000D7           7 
                     DATA          000000D9 - 000000DB           3 
                     DATA          000000E1 - 000000E5           5 
                     DATA          000000E8 - 000000E9           2 
                     DATA          000000F1 - 000000F2           2 
                     DATA          000000F2 - 000000F5           4 
                     DATA          000000F7 - 000000FF           9 
XSTACK               XDATA         00000001 - 00000280         280   rel    0
XDATA_Z              XDATA         00000281 - 00000482         202   rel    0
XDATA_I              XDATA         00000483 - 000004F8          76   rel    0
<XDATA_N> 1          XDATA         000004F9 - 00000CFA         802   rel    0
<XDATA_ROM_C> 1      CONST         00008000 - 00008E99         E9A   rel    0
IDATA_I              IDATA              0000001D                     dse    0
IDATA_Z              IDATA         0000001D - 0000001E           2   rel    0
ISTACK               IDATA         00000040 - 000000FF          C0   rel    0

                ****************************************
                *                                      *
                *        END OF CROSS REFERENCE        *
                *                                      *
                ****************************************

 38 155 bytes of CODE  memory
     29 bytes of DATA  memory (+ 86 absolute )
  3 322 bytes of XDATA memory
    194 bytes of IDATA memory
      8 bits  of BIT   memory
  3 738 bytes of CONST memory

Errors: none
Warnings: 2

